00000 C30C02   JP   020C
00003 00       NOP  
00004 00       NOP  
00005 00       NOP  
00006 00       NOP  
00007 00       NOP  
00008 C30C02   JP   020C
0000B FF       RST  38
0000C FF       RST  38
0000D FF       RST  38
0000E FF       RST  38
0000F FF       RST  38
00010 FF       RST  38
00011 FF       RST  38
00012 FF       RST  38
00013 FF       RST  38
00014 FF       RST  38
00015 FF       RST  38
00016 FF       RST  38
00017 FF       RST  38
00018 FF       RST  38
00019 FF       RST  38
0001A FF       RST  38
0001B FF       RST  38
0001C FF       RST  38
0001D FF       RST  38
0001E FF       RST  38
0001F FF       RST  38
00020 FF       RST  38
00021 FF       RST  38
00022 FF       RST  38
00023 FF       RST  38
00024 FF       RST  38
00025 FF       RST  38
00026 FF       RST  38
00027 FF       RST  38
00028 87       ADD  A,A
00029 E1       POP  HL
0002A 5F       LD   E,A
0002B 1600     LD   D,00
0002D 19       ADD  HL,DE
0002E 5E       LD   E,(HL)
0002F 23       INC  HL
00030 56       LD   D,(HL)
00031 D5       PUSH DE
00032 E1       POP  HL
00033 E9       JP   (HL)
00034 FF       RST  38
00035 FF       RST  38
00036 FF       RST  38
00037 FF       RST  38
00038 FF       RST  38
00039 FF       RST  38
0003A FF       RST  38
0003B FF       RST  38
0003C FF       RST  38
0003D FF       RST  38
0003E FF       RST  38
0003F FF       RST  38
00040 C37E01   JP   017E
00043 FF       RST  38
00044 FF       RST  38
00045 FF       RST  38
00046 FF       RST  38
00047 FF       RST  38
00048 C3BE26   JP   26BE
0004B FF       RST  38
0004C FF       RST  38
0004D FF       RST  38
0004E FF       RST  38
0004F FF       RST  38
00050 C3BE26   JP   26BE
00053 FF       RST  38
00054 FF       RST  38
00055 FF       RST  38
00056 FF       RST  38
00057 FF       RST  38
00058 C35B00   JP   005B
0005B F5       PUSH AF
0005C E5       PUSH HL
0005D D5       PUSH DE
0005E C5       PUSH BC
0005F CD6B00   CALL 006B
00062 3E01     LD   A,01
00064 E0CC     OUT  (CC),A
00066 C1       POP  BC
00067 D1       POP  DE
00068 E1       POP  HL
00069 F1       POP  AF
0006A D9       RETI 
0006B F0CD     IN   A,(CD)
0006D EF       RST  28
0006E 78       LD   A,B
0006F 00       NOP  
00070 9F       SBC  A,A
00071 00       NOP  
00072 A4       AND  H
00073 00       NOP  
00074 BA       CP   D
00075 00       NOP  
00076 EA27F0   LD   (F027),A
00079 E1       POP  HL
0007A FE07     CP   07
0007C 2808     JR   Z,0086
0007E FE06     CP   06
00080 C8       RET  Z
00081 3E06     LD   A,06
00083 E0E1     OUT  (E1),A
00085 C9       RET  
00086 F001     IN   A,(01)
00088 FE55     CP   55
0008A 2008     JR   NZ,0094
0008C 3E29     LD   A,29
0008E E0CB     OUT  (CB),A
00090 3E01     LD   A,01
00092 1808     JR   009C
00094 FE29     CP   29
00096 C0       RET  NZ
00097 3E55     LD   A,55
00099 E0CB     OUT  (CB),A
0009B AF       XOR  A
0009C E002     OUT  (02),A
0009E C9       RET  
0009F F001     IN   A,(01)
000A1 E0D0     OUT  (D0),A
000A3 C9       RET  
000A4 F001     IN   A,(01)
000A6 E0D0     OUT  (D0),A
000A8 F0CB     IN   A,(CB)
000AA FE29     CP   29
000AC C8       RET  Z
000AD F0CF     IN   A,(CF)
000AF E001     OUT  (01),A
000B1 3EFF     LD   A,FF
000B3 E0CF     OUT  (CF),A
000B5 3E80     LD   A,80
000B7 E002     OUT  (02),A
000B9 C9       RET  
000BA F001     IN   A,(01)
000BC E0D0     OUT  (D0),A
000BE F0CB     IN   A,(CB)
000C0 FE29     CP   29
000C2 C8       RET  Z
000C3 F0CF     IN   A,(CF)
000C5 E001     OUT  (01),A
000C7 FB       EI   
000C8 CD980A   CALL 0A98
000CB 3E80     LD   A,80
000CD E002     OUT  (02),A
000CF C9       RET  
000D0 F0CD     IN   A,(CD)
000D2 FE02     CP   02
000D4 C0       RET  NZ
000D5 AF       XOR  A
000D6 E00F     OUT  (0F),A
000D8 FB       EI   
000D9 C9       RET  
000DA FF       RST  38
000DB FF       RST  38
000DC FF       RST  38
000DD FF       RST  38
000DE FF       RST  38
000DF FF       RST  38
000E0 FF       RST  38
000E1 FF       RST  38
000E2 FF       RST  38
000E3 FF       RST  38
000E4 FF       RST  38
000E5 FF       RST  38
000E6 FF       RST  38
000E7 FF       RST  38
000E8 FF       RST  38
000E9 FF       RST  38
000EA FF       RST  38
000EB FF       RST  38
000EC FF       RST  38
000ED FF       RST  38
000EE FF       RST  38
000EF FF       RST  38
000F0 FF       RST  38
000F1 FF       RST  38
000F2 FF       RST  38
000F3 FF       RST  38
000F4 FF       RST  38
000F5 FF       RST  38
000F6 FF       RST  38
000F7 FF       RST  38
000F8 FF       RST  38
000F9 FF       RST  38
000FA FF       RST  38
000FB FF       RST  38
000FC FF       RST  38
000FD FF       RST  38
000FE FF       RST  38
000FF FF       RST  38
00100 00       NOP  
00101 C35001   JP   0150
00104 CEED     ADC  A,ED
00106 66       LD   H,(HL)
00107 66       LD   H,(HL)
00108 CC0D00   CALL Z,000D
0010B 0B       DEC  BC
0010C 03       INC  BC
0010D 73       LD   (HL),E
0010E 00       NOP  
0010F 83       ADD  A,E
00110 00       NOP  
00111 0C       INC  C
00112 00       NOP  
00113 0D       DEC  C
00114 00       NOP  
00115 08       EX   AF,AF
00116 111F88   LD   DE,881F
00119 89       ADC  A,C
0011A 00       NOP  
0011B 0EDC     LD   C,DC
0011D CC6EE6   CALL Z,E66E
00120 DD       DB   DD
00121 DD       DB   DD
00122 D9       RETI 
00123 99       SBC  A,C
00124 BB       CP   E
00125 BB       CP   E
00126 67       LD   H,A
00127 63       LD   H,E
00128 6E       LD   L,(HL)
00129 0EEC     LD   C,EC
0012B CCDDDC   CALL Z,DCDD
0012E 99       SBC  A,C
0012F 9F       SBC  A,A
00130 BB       CP   E
00131 B9       CP   C
00132 33       INC  SP
00133 3E54     LD   A,54
00135 45       LD   B,L
00136 54       LD   D,H
00137 52       LD   D,D
00138 49       LD   C,C
00139 53       LD   D,E
0013A 00       NOP  
0013B 00       NOP  
0013C 00       NOP  
0013D 00       NOP  
0013E 00       NOP  
0013F 00       NOP  
00140 00       NOP  
00141 00       NOP  
00142 00       NOP  
00143 00       NOP  
00144 00       NOP  
00145 00       NOP  
00146 00       NOP  
00147 00       NOP  
00148 00       NOP  
00149 00       NOP  
0014A 00       NOP  
0014B 01010A   LD   BC,0A01
0014E 16BF     LD   D,BF
00150 C30C02   JP   020C
00153 CDE329   CALL 29E3
00156 F041     IN   A,(41)
00158 E603     AND  03
0015A 20FA     JR   NZ,0156
0015C 46       LD   B,(HL)
0015D F041     IN   A,(41)
0015F E603     AND  03
00161 20FA     JR   NZ,015D
00163 7E       LD   A,(HL)
00164 A0       AND  B
00165 C9       RET  
00166 7B       LD   A,E
00167 86       ADD  A,(HL)
00168 27       DAA  
00169 22       HL++ (HL),A
0016A 7A       LD   A,D
0016B 8E       ADC  A,(HL)
0016C 27       DAA  
0016D 22       HL++ (HL),A
0016E 3E00     LD   A,00
00170 8E       ADC  A,(HL)
00171 27       DAA  
00172 77       LD   (HL),A
00173 3E01     LD   A,01
00175 E0E0     OUT  (E0),A
00177 D0       RET  NC
00178 3E99     LD   A,99
0017A 32       HL-- (HL),A
0017B 32       HL-- (HL),A
0017C 77       LD   (HL),A
0017D C9       RET  
0017E F5       PUSH AF
0017F C5       PUSH BC
00180 D5       PUSH DE
00181 E5       PUSH HL
00182 F0CE     IN   A,(CE)
00184 A7       AND  A
00185 2812     JR   Z,0199
00187 F0CB     IN   A,(CB)
00189 FE29     CP   29
0018B 200C     JR   NZ,0199
0018D AF       XOR  A
0018E E0CE     OUT  (CE),A
00190 F0CF     IN   A,(CF)
00192 E001     OUT  (01),A
00194 2102FF   LD   HL,FF02
00197 3681     LD   (HL),81
00199 CDE021   CALL 21E0
0019C CDCC23   CALL 23CC
0019F CDB723   CALL 23B7
001A2 CD9E23   CALL 239E
001A5 CD8C23   CALL 238C
001A8 CD7D23   CALL 237D
001AB CD6E23   CALL 236E
001AE CD5F23   CALL 235F
001B1 CD5023   CALL 2350
001B4 CD4123   CALL 2341
001B7 CD3223   CALL 2332
001BA CD2323   CALL 2323
001BD CDF822   CALL 22F8
001C0 CDE922   CALL 22E9
001C3 CDDA22   CALL 22DA
001C6 CDCB22   CALL 22CB
001C9 CDBC22   CALL 22BC
001CC CDAD22   CALL 22AD
001CF CD9E22   CALL 229E
001D2 CDD71E   CALL 1ED7
001D5 CDB6FF   CALL FFB6
001D8 CDCA18   CALL 18CA
001DB FACEC0   LD   A,(C0CE)
001DE A7       AND  A
001DF 281A     JR   Z,01FB
001E1 F098     IN   A,(98)
001E3 FE03     CP   03
001E5 2014     JR   NZ,01FB
001E7 216D98   LD   HL,986D
001EA CD3B24   CALL 243B
001ED 3E01     LD   A,01
001EF E0E0     OUT  (E0),A
001F1 216D9C   LD   HL,9C6D
001F4 CD3B24   CALL 243B
001F7 AF       XOR  A
001F8 EACEC0   LD   (C0CE),A
001FB 21E2FF   LD   HL,FFE2
001FE 34       INC  (HL)
001FF AF       XOR  A
00200 E043     OUT  (43),A
00202 E042     OUT  (42),A
00204 3C       INC  A
00205 E085     OUT  (85),A
00207 E1       POP  HL
00208 D1       POP  DE
00209 C1       POP  BC
0020A F1       POP  AF
0020B D9       RETI 
0020C AF       XOR  A
0020D 21FFDF   LD   HL,DFFF
00210 0E10     LD   C,10
00212 0600     LD   B,00
00214 32       HL-- (HL),A
00215 05       DEC  B
00216 20FC     JR   NZ,0214
00218 0D       DEC  C
00219 20F9     JR   NZ,0214
0021B 3E01     LD   A,01
0021D F3       DI   
0021E E00F     OUT  (0F),A
00220 E0FF     OUT  (FF),A
00222 AF       XOR  A
00223 E042     OUT  (42),A
00225 E043     OUT  (43),A
00227 E0A4     OUT  (A4),A
00229 E041     OUT  (41),A
0022B E001     OUT  (01),A
0022D E002     OUT  (02),A
0022F 3E80     LD   A,80
00231 E040     OUT  (40),A
00233 F044     IN   A,(44)
00235 FE94     CP   94
00237 20FA     JR   NZ,0233
00239 3E03     LD   A,03
0023B E040     OUT  (40),A
0023D 3EE4     LD   A,E4
0023F E047     OUT  (47),A
00241 E048     OUT  (48),A
00243 3EC4     LD   A,C4
00245 E049     OUT  (49),A
00247 2126FF   LD   HL,FF26
0024A 3E80     LD   A,80
0024C 32       HL-- (HL),A
0024D 3EFF     LD   A,FF
0024F 32       HL-- (HL),A
00250 3677     LD   (HL),77
00252 3E01     LD   A,01
00254 EA0020   LD   (2000),A
00257 31FFCF   LD   SP,CFFF
0025A AF       XOR  A
0025B 21FFDF   LD   HL,DFFF
0025E 0600     LD   B,00
00260 32       HL-- (HL),A
00261 05       DEC  B
00262 20FC     JR   NZ,0260
00264 21FFCF   LD   HL,CFFF
00267 0E10     LD   C,10
00269 0600     LD   B,00
0026B 32       HL-- (HL),A
0026C 05       DEC  B
0026D 20FC     JR   NZ,026B
0026F 0D       DEC  C
00270 20F9     JR   NZ,026B
00272 21FF9F   LD   HL,9FFF
00275 0E20     LD   C,20
00277 AF       XOR  A
00278 0600     LD   B,00
0027A 32       HL-- (HL),A
0027B 05       DEC  B
0027C 20FC     JR   NZ,027A
0027E 0D       DEC  C
0027F 20F9     JR   NZ,027A
00281 21FFFE   LD   HL,FEFF
00284 0600     LD   B,00
00286 32       HL-- (HL),A
00287 05       DEC  B
00288 20FC     JR   NZ,0286
0028A 21FEFF   LD   HL,FFFE
0028D 0680     LD   B,80
0028F 32       HL-- (HL),A
00290 05       DEC  B
00291 20FC     JR   NZ,028F
00293 0EB6     LD   C,B6
00295 060C     LD   B,0C
00297 217F2A   LD   HL,2A7F
0029A 2A       HL++ A,(HL)
0029B E2       OUT  (C),A
0029C 0C       INC  C
0029D 05       DEC  B
0029E 20FA     JR   NZ,029A
002A0 CD9527   CALL 2795
002A3 CDF37F   CALL 7FF3
002A6 3E09     LD   A,09
002A8 E0FF     OUT  (FF),A
002AA 3E37     LD   A,37
002AC E0C0     OUT  (C0),A
002AE 3E1C     LD   A,1C
002B0 E0C1     OUT  (C1),A
002B2 3E24     LD   A,24
002B4 E0E1     OUT  (E1),A
002B6 3E80     LD   A,80
002B8 E040     OUT  (40),A
002BA FB       EI   
002BB AF       XOR  A
002BC E00F     OUT  (0F),A
002BE E04A     OUT  (4A),A
002C0 E04B     OUT  (4B),A
002C2 E006     OUT  (06),A
002C4 CDA629   CALL 29A6
002C7 CDF802   CALL 02F8
002CA CDF07F   CALL 7FF0
002CD F080     IN   A,(80)
002CF E60F     AND  0F
002D1 FE0F     CP   0F
002D3 CA1B02   JP   Z,021B
002D6 21A6FF   LD   HL,FFA6
002D9 0602     LD   B,02
002DB 7E       LD   A,(HL)
002DC A7       AND  A
002DD 2801     JR   Z,02E0
002DF 35       DEC  (HL)
002E0 2C       INC  L
002E1 05       DEC  B
002E2 20F7     JR   NZ,02DB
002E4 F0C5     IN   A,(C5)
002E6 A7       AND  A
002E7 2804     JR   Z,02ED
002E9 3E09     LD   A,09
002EB E0FF     OUT  (FF),A
002ED F085     IN   A,(85)
002EF A7       AND  A
002F0 28FB     JR   Z,02ED
002F2 AF       XOR  A
002F3 E085     OUT  (85),A
002F5 C3C402   JP   02C4
002F8 F0E1     IN   A,(E1)
002FA EF       RST  28
002FB CE1B     ADC  A,1B
002FD E2       OUT  (C),A
002FE 1C       INC  E
002FF 44       LD   B,H
00300 12       LD   (DE),A
00301 7B       LD   A,E
00302 12       LD   (DE),A
00303 061D     LD   B,1D
00305 261D     LD   H,1D
00307 AE       XOR  (HL)
00308 03       INC  BC
00309 79       LD   A,C
0030A 04       INC  B
0030B 44       LD   B,H
0030C 14       INC  D
0030D 8C       ADC  A,H
0030E 14       INC  D
0030F 07       RLCA 
00310 1A       LD   A,(DE)
00311 C0       RET  NZ
00312 1D       DEC  E
00313 161F     LD   D,1F
00315 1F       RRA  
00316 1F       RRA  
00317 25       DEC  H
00318 15       DEC  D
00319 B0       OR   B
0031A 14       INC  D
0031B 7B       LD   A,E
0031C 15       DEC  D
0031D BF       CP   A
0031E 15       DEC  D
0031F 29       ADD  HL,HL
00320 167A     LD   D,7A
00322 16EB     LD   D,EB
00324 1613     LD   D,13
00326 19       ADD  HL,DE
00327 77       LD   (HL),A
00328 062C     LD   B,2C
0032A 07       RLCA 
0032B 25       DEC  H
0032C 08       EX   AF,AF
0032D E40831   CALL PO,3108
00330 0B       DEC  BC
00331 EB       EX   DE,HL
00332 0C       INC  C
00333 D20A32   JP   NC,320A
00336 0D       DEC  C
00337 23       INC  HL
00338 0E12     LD   C,12
0033A 11990D   LD   DE,0D99
0033D 8A       ADC  A,D
0033E 0ECE     LD   C,CE
00340 1D       DEC  E
00341 41       LD   B,C
00342 1E69     LD   E,69
00344 03       INC  BC
00345 93       SUB  E
00346 03       INC  BC
00347 67       LD   H,A
00348 11E611   LD   DE,11E6
0034B FC111C   CALL M,1C11
0034E 12       LD   (DE),A
0034F C7       RST  00
00350 05       DEC  B
00351 F7       RST  30
00352 05       DEC  B
00353 B3       OR   E
00354 12       LD   (DE),A
00355 05       DEC  B
00356 13       INC  DE
00357 24       INC  H
00358 13       INC  DE
00359 51       LD   D,C
0035A 13       INC  DE
0035B 67       LD   H,A
0035C 13       INC  DE
0035D 7E       LD   A,(HL)
0035E 13       INC  DE
0035F B5       OR   L
00360 13       INC  DE
00361 E5       PUSH HL
00362 13       INC  DE
00363 1B       DEC  DE
00364 13       INC  DE
00365 A0       AND  B
00366 03       INC  BC
00367 EA27CD   LD   (CD27),A
0036A 2028     JR   NZ,0394
0036C CDD727   CALL 27D7
0036F 11074A   LD   DE,4A07
00372 CDEB27   CALL 27EB
00375 CD8A17   CALL 178A
00378 2100C3   LD   HL,C300
0037B 115064   LD   DE,6450
0037E 1A       LD   A,(DE)
0037F 22       HL++ (HL),A
00380 13       INC  DE
00381 7C       LD   A,H
00382 FEC4     CP   C4
00384 20F8     JR   NZ,037E
00386 3ED3     LD   A,D3
00388 E040     OUT  (40),A
0038A 3EFA     LD   A,FA
0038C E0A6     OUT  (A6),A
0038E 3E25     LD   A,25
00390 E0E1     OUT  (E1),A
00392 C9       RET  
00393 F0A6     IN   A,(A6)
00395 A7       AND  A
00396 C0       RET  NZ
00397 3EFA     LD   A,FA
00399 E0A6     OUT  (A6),A
0039B 3E35     LD   A,35
0039D E0E1     OUT  (E1),A
0039F C9       RET  
003A0 F081     IN   A,(81)
003A2 A7       AND  A
003A3 2004     JR   NZ,03A9
003A5 F0A6     IN   A,(A6)
003A7 A7       AND  A
003A8 C0       RET  NZ
003A9 3E06     LD   A,06
003AB E0E1     OUT  (E1),A
003AD C9       RET  
003AE CD2028   CALL 2820
003B1 AF       XOR  A
003B2 E0E9     OUT  (E9),A
003B4 E098     OUT  (98),A
003B6 E09C     OUT  (9C),A
003B8 E09B     OUT  (9B),A
003BA E0FB     OUT  (FB),A
003BC E09F     OUT  (9F),A
003BE E0E3     OUT  (E3),A
003C0 E0C7     OUT  (C7),A
003C2 CD9322   CALL 2293
003C5 CD5126   CALL 2651
003C8 CDD727   CALL 27D7
003CB 2100C8   LD   HL,C800
003CE 3E2F     LD   A,2F
003D0 22       HL++ (HL),A
003D1 7C       LD   A,H
003D2 FECC     CP   CC
003D4 20F8     JR   NZ,03CE
003D6 2101C8   LD   HL,C801
003D9 CDA926   CALL 26A9
003DC 210CC8   LD   HL,C80C
003DF CDA926   CALL 26A9
003E2 2141CA   LD   HL,CA41
003E5 060C     LD   B,0C
003E7 3E8E     LD   A,8E
003E9 22       HL++ (HL),A
003EA 05       DEC  B
003EB 20FC     JR   NZ,03E9
003ED 116F4B   LD   DE,4B6F
003F0 CDEB27   CALL 27EB
003F3 CD8A17   CALL 178A
003F6 2100C0   LD   HL,C000
003F9 3680     LD   (HL),80
003FB 2C       INC  L
003FC 3610     LD   (HL),10
003FE 2C       INC  L
003FF 3658     LD   (HL),58
00401 3E03     LD   A,03
00403 EAE8DF   LD   (DFE8),A
00406 3ED3     LD   A,D3
00408 E040     OUT  (40),A
0040A 3E07     LD   A,07
0040C E0E1     OUT  (E1),A
0040E 3E7D     LD   A,7D
00410 E0A6     OUT  (A6),A
00412 3E04     LD   A,04
00414 E0C6     OUT  (C6),A
00416 F0E4     IN   A,(E4)
00418 A7       AND  A
00419 C0       RET  NZ
0041A 3E13     LD   A,13
0041C E0C6     OUT  (C6),A
0041E C9       RET  
0041F 3E37     LD   A,37
00421 E0C0     OUT  (C0),A
00423 3E09     LD   A,09
00425 E0C2     OUT  (C2),A
00427 AF       XOR  A
00428 E0C5     OUT  (C5),A
0042A E0B0     OUT  (B0),A
0042C E0ED     OUT  (ED),A
0042E E0EA     OUT  (EA),A
00430 3E62     LD   A,62
00432 E0EB     OUT  (EB),A
00434 3EB0     LD   A,B0
00436 E0EC     OUT  (EC),A
00438 F0E4     IN   A,(E4)
0043A FE02     CP   02
0043C 3E02     LD   A,02
0043E 201A     JR   NZ,045A
00440 3E77     LD   A,77
00442 E0C0     OUT  (C0),A
00444 3E09     LD   A,09
00446 E0C3     OUT  (C3),A
00448 3E02     LD   A,02
0044A E0C4     OUT  (C4),A
0044C 3E63     LD   A,63
0044E E0EB     OUT  (EB),A
00450 3EB0     LD   A,B0
00452 E0EC     OUT  (EC),A
00454 3E11     LD   A,11
00456 E0B0     OUT  (B0),A
00458 3E01     LD   A,01
0045A E0E4     OUT  (E4),A
0045C 3E0A     LD   A,0A
0045E E0E1     OUT  (E1),A
00460 CD2028   CALL 2820
00463 CDAD27   CALL 27AD
00466 11D74C   LD   DE,4CD7
00469 CDEB27   CALL 27EB
0046C CD8A17   CALL 178A
0046F 3ED3     LD   A,D3
00471 E040     OUT  (40),A
00473 C9       RET  
00474 3EFF     LD   A,FF
00476 E0E9     OUT  (E9),A
00478 C9       RET  
00479 F0A6     IN   A,(A6)
0047B A7       AND  A
0047C 200A     JR   NZ,0488
0047E 21C6FF   LD   HL,FFC6
00481 35       DEC  (HL)
00482 289B     JR   Z,041F
00484 3E7D     LD   A,7D
00486 E0A6     OUT  (A6),A
00488 CD980A   CALL 0A98
0048B 3E55     LD   A,55
0048D E001     OUT  (01),A
0048F 3E80     LD   A,80
00491 E002     OUT  (02),A
00493 F0CC     IN   A,(CC)
00495 A7       AND  A
00496 280A     JR   Z,04A2
00498 F0CB     IN   A,(CB)
0049A A7       AND  A
0049B 203A     JR   NZ,04D7
0049D AF       XOR  A
0049E E0CC     OUT  (CC),A
004A0 1867     JR   0509
004A2 F081     IN   A,(81)
004A4 47       LD   B,A
004A5 F0C5     IN   A,(C5)
004A7 CB50     BIT  2,B
004A9 2048     JR   NZ,04F3
004AB CB60     BIT  4,B
004AD 2053     JR   NZ,0502
004AF CB68     BIT  5,B
004B1 2054     JR   NZ,0507
004B3 CB58     BIT  3,B
004B5 C8       RET  Z
004B6 A7       AND  A
004B7 3E08     LD   A,08
004B9 282C     JR   Z,04E7
004BB 78       LD   A,B
004BC FE08     CP   08
004BE C0       RET  NZ
004BF F0CB     IN   A,(CB)
004C1 FE29     CP   29
004C3 2812     JR   Z,04D7
004C5 3E29     LD   A,29
004C7 E001     OUT  (01),A
004C9 3E81     LD   A,81
004CB E002     OUT  (02),A
004CD F0CC     IN   A,(CC)
004CF A7       AND  A
004D0 28FB     JR   Z,04CD
004D2 F0CB     IN   A,(CB)
004D4 A7       AND  A
004D5 2832     JR   Z,0509
004D7 3E2A     LD   A,2A
004D9 E0E1     OUT  (E1),A
004DB AF       XOR  A
004DC E0A6     OUT  (A6),A
004DE E0C2     OUT  (C2),A
004E0 E0C3     OUT  (C3),A
004E2 E0C4     OUT  (C4),A
004E4 E0E4     OUT  (E4),A
004E6 C9       RET  
004E7 F5       PUSH AF
004E8 F080     IN   A,(80)
004EA CB7F     BIT  7,A
004EC 2802     JR   Z,04F0
004EE E0F4     OUT  (F4),A
004F0 F1       POP  AF
004F1 18E6     JR   04D9
004F3 EE01     XOR  01
004F5 E0C5     OUT  (C5),A
004F7 A7       AND  A
004F8 3E10     LD   A,10
004FA 2802     JR   Z,04FE
004FC 3E60     LD   A,60
004FE EA01C0   LD   (C001),A
00501 C9       RET  
00502 A7       AND  A
00503 C0       RET  NZ
00504 AF       XOR  A
00505 18EC     JR   04F3
00507 A7       AND  A
00508 C8       RET  Z
00509 AF       XOR  A
0050A 18E9     JR   04F5
0050C F0E4     IN   A,(E4)
0050E A7       AND  A
0050F C8       RET  Z
00510 CD980A   CALL 0A98
00513 AF       XOR  A
00514 E001     OUT  (01),A
00516 3E80     LD   A,80
00518 E002     OUT  (02),A
0051A F081     IN   A,(81)
0051C CB5F     BIT  3,A
0051E 280D     JR   Z,052D
00520 3E33     LD   A,33
00522 E001     OUT  (01),A
00524 3E81     LD   A,81
00526 E002     OUT  (02),A
00528 3E06     LD   A,06
0052A E0E1     OUT  (E1),A
0052C C9       RET  
0052D 21B0FF   LD   HL,FFB0
00530 F0E4     IN   A,(E4)
00532 FE02     CP   02
00534 0610     LD   B,10
00536 2802     JR   Z,053A
00538 061D     LD   B,1D
0053A 7E       LD   A,(HL)
0053B B8       CP   B
0053C C0       RET  NZ
0053D 3E06     LD   A,06
0053F E0E1     OUT  (E1),A
00541 C9       RET  
00542 F0E4     IN   A,(E4)
00544 A7       AND  A
00545 C8       RET  Z
00546 F0E9     IN   A,(E9)
00548 FEFF     CP   FF
0054A C8       RET  Z
0054B F0EA     IN   A,(EA)
0054D A7       AND  A
0054E 2805     JR   Z,0555
00550 3D       DEC  A
00551 E0EA     OUT  (EA),A
00553 181C     JR   0571
00555 F0EB     IN   A,(EB)
00557 67       LD   H,A
00558 F0EC     IN   A,(EC)
0055A 6F       LD   L,A
0055B 2A       HL++ A,(HL)
0055C 47       LD   B,A
0055D F0ED     IN   A,(ED)
0055F A8       XOR  B
00560 A0       AND  B
00561 E081     OUT  (81),A
00563 78       LD   A,B
00564 E0ED     OUT  (ED),A
00566 2A       HL++ A,(HL)
00567 E0EA     OUT  (EA),A
00569 7C       LD   A,H
0056A E0EB     OUT  (EB),A
0056C 7D       LD   A,L
0056D E0EC     OUT  (EC),A
0056F 1803     JR   0574
00571 AF       XOR  A
00572 E081     OUT  (81),A
00574 F080     IN   A,(80)
00576 E0EE     OUT  (EE),A
00578 F0ED     IN   A,(ED)
0057A E080     OUT  (80),A
0057C C9       RET  
0057D AF       XOR  A
0057E E0ED     OUT  (ED),A
00580 18EF     JR   0571
00582 C9       RET  
00583 F0E4     IN   A,(E4)
00585 A7       AND  A
00586 C8       RET  Z
00587 F0E9     IN   A,(E9)
00589 FEFF     CP   FF
0058B C0       RET  NZ
0058C F080     IN   A,(80)
0058E 47       LD   B,A
0058F F0ED     IN   A,(ED)
00591 B8       CP   B
00592 2819     JR   Z,05AD
00594 F0EB     IN   A,(EB)
00596 67       LD   H,A
00597 F0EC     IN   A,(EC)
00599 6F       LD   L,A
0059A F0ED     IN   A,(ED)
0059C 22       HL++ (HL),A
0059D F0EA     IN   A,(EA)
0059F 22       HL++ (HL),A
005A0 7C       LD   A,H
005A1 E0EB     OUT  (EB),A
005A3 7D       LD   A,L
005A4 E0EC     OUT  (EC),A
005A6 78       LD   A,B
005A7 E0ED     OUT  (ED),A
005A9 AF       XOR  A
005AA E0EA     OUT  (EA),A
005AC C9       RET  
005AD F0EA     IN   A,(EA)
005AF 3C       INC  A
005B0 E0EA     OUT  (EA),A
005B2 C9       RET  
005B3 F0E4     IN   A,(E4)
005B5 A7       AND  A
005B6 C8       RET  Z
005B7 F0E9     IN   A,(E9)
005B9 A7       AND  A
005BA C0       RET  NZ
005BB F0EE     IN   A,(EE)
005BD E080     OUT  (80),A
005BF C9       RET  
005C0 2102FF   LD   HL,FF02
005C3 CBFE     SET  7,(HL)
005C5 180A     JR   05D1
005C7 3E03     LD   A,03
005C9 E0CD     OUT  (CD),A
005CB F0CB     IN   A,(CB)
005CD FE29     CP   29
005CF 20EF     JR   NZ,05C0
005D1 CD4F14   CALL 144F
005D4 3E80     LD   A,80
005D6 EA10C2   LD   (C210),A
005D9 CD7126   CALL 2671
005DC E0CE     OUT  (CE),A
005DE AF       XOR  A
005DF E001     OUT  (01),A
005E1 E0CF     OUT  (CF),A
005E3 E0DC     OUT  (DC),A
005E5 E0D2     OUT  (D2),A
005E7 E0D3     OUT  (D3),A
005E9 E0D4     OUT  (D4),A
005EB E0D5     OUT  (D5),A
005ED E0E3     OUT  (E3),A
005EF CDF37F   CALL 7FF3
005F2 3E2B     LD   A,2B
005F4 E0E1     OUT  (E1),A
005F6 C9       RET  
005F7 F0CB     IN   A,(CB)
005F9 FE29     CP   29
005FB 2816     JR   Z,0613
005FD F0F0     IN   A,(F0)
005FF A7       AND  A
00600 281E     JR   Z,0620
00602 AF       XOR  A
00603 E0F0     OUT  (F0),A
00605 1101C2   LD   DE,C201
00608 CD9214   CALL 1492
0060B CD1715   CALL 1517
0060E CD7126   CALL 2671
00611 180D     JR   0620
00613 F081     IN   A,(81)
00615 CB47     BIT  0,A
00617 2007     JR   NZ,0620
00619 CB5F     BIT  3,A
0061B 2003     JR   NZ,0620
0061D CDB014   CALL 14B0
00620 F0CB     IN   A,(CB)
00622 FE29     CP   29
00624 281E     JR   Z,0644
00626 F0CC     IN   A,(CC)
00628 A7       AND  A
00629 C8       RET  Z
0062A AF       XOR  A
0062B E0CC     OUT  (CC),A
0062D 3E39     LD   A,39
0062F E0CF     OUT  (CF),A
00631 F0D0     IN   A,(D0)
00633 FE50     CP   50
00635 282D     JR   Z,0664
00637 47       LD   B,A
00638 F0C1     IN   A,(C1)
0063A B8       CP   B
0063B C8       RET  Z
0063C 78       LD   A,B
0063D E0C1     OUT  (C1),A
0063F 3E01     LD   A,01
00641 E0F0     OUT  (F0),A
00643 C9       RET  
00644 F081     IN   A,(81)
00646 CB5F     BIT  3,A
00648 2022     JR   NZ,066C
0064A CB47     BIT  0,A
0064C 201E     JR   NZ,066C
0064E F0CC     IN   A,(CC)
00650 A7       AND  A
00651 C8       RET  Z
00652 AF       XOR  A
00653 E0CC     OUT  (CC),A
00655 F0CF     IN   A,(CF)
00657 FE50     CP   50
00659 2809     JR   Z,0664
0065B F0C1     IN   A,(C1)
0065D E0CF     OUT  (CF),A
0065F 3E01     LD   A,01
00661 E0CE     OUT  (CE),A
00663 C9       RET  
00664 CD8A17   CALL 178A
00667 3E16     LD   A,16
00669 E0E1     OUT  (E1),A
0066B C9       RET  
0066C 3E50     LD   A,50
0066E 18ED     JR   065D
00670 2102FF   LD   HL,FF02
00673 CBFE     SET  7,(HL)
00675 181F     JR   0696
00677 3E03     LD   A,03
00679 E0CD     OUT  (CD),A
0067B F0CB     IN   A,(CB)
0067D FE29     CP   29
0067F 20EF     JR   NZ,0670
00681 CDA10A   CALL 0AA1
00684 CDA10A   CALL 0AA1
00687 CDA10A   CALL 0AA1
0068A 0600     LD   B,00
0068C 2100C3   LD   HL,C300
0068F CDA10A   CALL 0AA1
00692 22       HL++ (HL),A
00693 05       DEC  B
00694 20F9     JR   NZ,068F
00696 CD2028   CALL 2820
00699 CDAD27   CALL 27AD
0069C 111452   LD   DE,5214
0069F CDEB27   CALL 27EB
006A2 CD8A17   CALL 178A
006A5 3E2F     LD   A,2F
006A7 CDDD1F   CALL 1FDD
006AA 3E03     LD   A,03
006AC E0CE     OUT  (CE),A
006AE AF       XOR  A
006AF E001     OUT  (01),A
006B1 E0CF     OUT  (CF),A
006B3 E0DC     OUT  (DC),A
006B5 E0D2     OUT  (D2),A
006B7 E0D3     OUT  (D3),A
006B9 E0D4     OUT  (D4),A
006BB E0D5     OUT  (D5),A
006BD E0E3     OUT  (E3),A
006BF E0CC     OUT  (CC),A
006C1 2100C4   LD   HL,C400
006C4 060A     LD   B,0A
006C6 3E28     LD   A,28
006C8 22       HL++ (HL),A
006C9 05       DEC  B
006CA 20FC     JR   NZ,06C8
006CC F0D6     IN   A,(D6)
006CE A7       AND  A
006CF C26D07   JP   NZ,076D
006D2 CD1715   CALL 1517
006D5 3ED3     LD   A,D3
006D7 E040     OUT  (40),A
006D9 2180C0   LD   HL,C080
006DC 110507   LD   DE,0705
006DF 0620     LD   B,20
006E1 CD2507   CALL 0725
006E4 2100C2   LD   HL,C200
006E7 11ED26   LD   DE,26ED
006EA 0E02     LD   C,02
006EC CD7617   CALL 1776
006EF CD0E08   CALL 080E
006F2 CD7126   CALL 2671
006F5 AF       XOR  A
006F6 E0D7     OUT  (D7),A
006F8 E0D8     OUT  (D8),A
006FA E0D9     OUT  (D9),A
006FC E0DA     OUT  (DA),A
006FE E0DB     OUT  (DB),A
00700 3E17     LD   A,17
00702 E0E1     OUT  (E1),A
00704 C9       RET  
00705 40       LD   B,B
00706 28AE     JR   Z,06B6
00708 00       NOP  
00709 40       LD   B,B
0070A 30AE     JR   NC,06BA
0070C 2048     JR   NZ,0756
0070E 28AF     JR   Z,06BF
00710 00       NOP  
00711 48       LD   C,B
00712 30AF     JR   NC,06C3
00714 2078     JR   NZ,078E
00716 28C0     JR   Z,06D8
00718 00       NOP  
00719 78       LD   A,B
0071A 30C0     JR   NC,06DC
0071C 2080     JR   NZ,069E
0071E 28C1     JR   Z,06E1
00720 00       NOP  
00721 80       ADD  A,B
00722 30C1     JR   NC,06E5
00724 201A     JR   NZ,0740
00726 22       HL++ (HL),A
00727 13       INC  DE
00728 05       DEC  B
00729 20FA     JR   NZ,0725
0072B C9       RET  
0072C F0CB     IN   A,(CB)
0072E FE29     CP   29
00730 2823     JR   Z,0755
00732 F0CC     IN   A,(CC)
00734 A7       AND  A
00735 2813     JR   Z,074A
00737 F0D0     IN   A,(D0)
00739 FE60     CP   60
0073B 282D     JR   Z,076A
0073D FE06     CP   06
0073F 3002     JR   NC,0743
00741 E0AC     OUT  (AC),A
00743 F0AD     IN   A,(AD)
00745 E0CF     OUT  (CF),A
00747 AF       XOR  A
00748 E0CC     OUT  (CC),A
0074A 1110C2   LD   DE,C210
0074D CD6617   CALL 1766
00750 21ADFF   LD   HL,FFAD
00753 1868     JR   07BD
00755 F081     IN   A,(81)
00757 CB5F     BIT  3,A
00759 2804     JR   Z,075F
0075B 3E60     LD   A,60
0075D 184D     JR   07AC
0075F F0CC     IN   A,(CC)
00761 A7       AND  A
00762 2850     JR   Z,07B4
00764 F0CF     IN   A,(CF)
00766 FE60     CP   60
00768 2038     JR   NZ,07A2
0076A CD8A17   CALL 178A
0076D F0D6     IN   A,(D6)
0076F A7       AND  A
00770 2018     JR   NZ,078A
00772 3E18     LD   A,18
00774 E0E1     OUT  (E1),A
00776 F0CB     IN   A,(CB)
00778 FE29     CP   29
0077A C0       RET  NZ
0077B AF       XOR  A
0077C E0A0     OUT  (A0),A
0077E 3E06     LD   A,06
00780 11E0FF   LD   DE,FFE0
00783 21A2C9   LD   HL,C9A2
00786 CD681B   CALL 1B68
00789 C9       RET  
0078A F0CB     IN   A,(CB)
0078C FE29     CP   29
0078E C22808   JP   NZ,0828
00791 AF       XOR  A
00792 E0A0     OUT  (A0),A
00794 3E06     LD   A,06
00796 11E0FF   LD   DE,FFE0
00799 21A2C9   LD   HL,C9A2
0079C CD681B   CALL 1B68
0079F C32808   JP   0828
007A2 F0D0     IN   A,(D0)
007A4 FE06     CP   06
007A6 3002     JR   NC,07AA
007A8 E0AD     OUT  (AD),A
007AA F0AC     IN   A,(AC)
007AC E0CF     OUT  (CF),A
007AE AF       XOR  A
007AF E0CC     OUT  (CC),A
007B1 3C       INC  A
007B2 E0CE     OUT  (CE),A
007B4 1100C2   LD   DE,C200
007B7 CD6617   CALL 1766
007BA 21ACFF   LD   HL,FFAC
007BD 7E       LD   A,(HL)
007BE CB60     BIT  4,B
007C0 2014     JR   NZ,07D6
007C2 CB68     BIT  5,B
007C4 2022     JR   NZ,07E8
007C6 CB70     BIT  6,B
007C8 2024     JR   NZ,07EE
007CA CB78     BIT  7,B
007CC 2813     JR   Z,07E1
007CE FE03     CP   03
007D0 300F     JR   NC,07E1
007D2 C603     ADD  A,03
007D4 1805     JR   07DB
007D6 FE05     CP   05
007D8 2807     JR   Z,07E1
007DA 3C       INC  A
007DB 77       LD   (HL),A
007DC 3E01     LD   A,01
007DE EAE0DF   LD   (DFE0),A
007E1 CD0E08   CALL 080E
007E4 CD7126   CALL 2671
007E7 C9       RET  
007E8 A7       AND  A
007E9 28F6     JR   Z,07E1
007EB 3D       DEC  A
007EC 18ED     JR   07DB
007EE FE03     CP   03
007F0 38EF     JR   C,07E1
007F2 D603     SUB  03
007F4 18E5     JR   07DB
007F6 40       LD   B,B
007F7 60       LD   H,B
007F8 40       LD   B,B
007F9 70       LD   (HL),B
007FA 40       LD   B,B
007FB 80       ADD  A,B
007FC 50       LD   D,B
007FD 60       LD   H,B
007FE 50       LD   D,B
007FF 70       LD   (HL),B
00800 50       LD   D,B
00801 80       ADD  A,B
00802 78       LD   A,B
00803 60       LD   H,B
00804 78       LD   A,B
00805 70       LD   (HL),B
00806 78       LD   A,B
00807 80       ADD  A,B
00808 88       ADC  A,B
00809 60       LD   H,B
0080A 88       ADC  A,B
0080B 70       LD   (HL),B
0080C 88       ADC  A,B
0080D 80       ADD  A,B
0080E F0AC     IN   A,(AC)
00810 1101C2   LD   DE,C201
00813 21F607   LD   HL,07F6
00816 CD5517   CALL 1755
00819 F0AD     IN   A,(AD)
0081B 1111C2   LD   DE,C211
0081E 210208   LD   HL,0802
00821 CD5517   CALL 1755
00824 C9       RET  
00825 CD2028   CALL 2820
00828 AF       XOR  A
00829 EA10C2   LD   (C210),A
0082C E098     OUT  (98),A
0082E E09C     OUT  (9C),A
00830 E09B     OUT  (9B),A
00832 E0FB     OUT  (FB),A
00834 E09F     OUT  (9F),A
00836 E0CC     OUT  (CC),A
00838 E001     OUT  (01),A
0083A E0CE     OUT  (CE),A
0083C E0D0     OUT  (D0),A
0083E E0CF     OUT  (CF),A
00840 E0D1     OUT  (D1),A
00842 CD5126   CALL 2651
00845 CD9322   CALL 2293
00848 CDF21F   CALL 1FF2
0084B AF       XOR  A
0084C E0E3     OUT  (E3),A
0084E CD8A17   CALL 178A
00851 117C53   LD   DE,537C
00854 D5       PUSH DE
00855 3E01     LD   A,01
00857 E0A9     OUT  (A9),A
00859 E0C5     OUT  (C5),A
0085B CDEB27   CALL 27EB
0085E D1       POP  DE
0085F 21009C   LD   HL,9C00
00862 CDEE27   CALL 27EE
00865 113928   LD   DE,2839
00868 21639C   LD   HL,9C63
0086B 0E0A     LD   C,0A
0086D CD7D1F   CALL 1F7D
00870 2100C2   LD   HL,C200
00873 11BF26   LD   DE,26BF
00876 CDB626   CALL 26B6
00879 2110C2   LD   HL,C210
0087C 11C726   LD   DE,26C7
0087F CDB626   CALL 26B6
00882 215199   LD   HL,9951
00885 3E30     LD   A,30
00887 E09E     OUT  (9E),A
00889 3600     LD   (HL),00
0088B 2D       DEC  L
0088C 3603     LD   (HL),03
0088E CDE81A   CALL 1AE8
00891 AF       XOR  A
00892 E0A0     OUT  (A0),A
00894 F0CB     IN   A,(CB)
00896 FE29     CP   29
00898 11D408   LD   DE,08D4
0089B F0AC     IN   A,(AC)
0089D 2805     JR   Z,08A4
0089F 11C408   LD   DE,08C4
008A2 F0AD     IN   A,(AD)
008A4 21B098   LD   HL,98B0
008A7 77       LD   (HL),A
008A8 269C     LD   H,9C
008AA 77       LD   (HL),A
008AB 2180C0   LD   HL,C080
008AE 0610     LD   B,10
008B0 CD2507   CALL 0725
008B3 3E77     LD   A,77
008B5 E0C0     OUT  (C0),A
008B7 3ED3     LD   A,D3
008B9 E040     OUT  (40),A
008BB 3E19     LD   A,19
008BD E0E1     OUT  (E1),A
008BF 3E01     LD   A,01
008C1 E0CD     OUT  (CD),A
008C3 C9       RET  
008C4 1884     JR   084A
008C6 C0       RET  NZ
008C7 00       NOP  
008C8 188C     JR   0856
008CA C0       RET  NZ
008CB 2020     JR   NZ,08ED
008CD 84       ADD  A,H
008CE C1       POP  BC
008CF 00       NOP  
008D0 208C     JR   NZ,085E
008D2 C1       POP  BC
008D3 2018     JR   NZ,08ED
008D5 84       ADD  A,H
008D6 AE       XOR  (HL)
008D7 00       NOP  
008D8 188C     JR   0866
008DA AE       XOR  (HL)
008DB 2020     JR   NZ,08FD
008DD 84       ADD  A,H
008DE AF       XOR  A
008DF 00       NOP  
008E0 208C     JR   NZ,086E
008E2 AF       XOR  A
008E3 203E     JR   NZ,0923
008E5 08       EX   AF,AF
008E6 E0FF     OUT  (FF),A
008E8 AF       XOR  A
008E9 E00F     OUT  (0F),A
008EB F0CB     IN   A,(CB)
008ED FE29     CP   29
008EF C2F609   JP   NZ,09F6
008F2 CD980A   CALL 0A98
008F5 CD980A   CALL 0A98
008F8 AF       XOR  A
008F9 E0CC     OUT  (CC),A
008FB 3E29     LD   A,29
008FD E001     OUT  (01),A
008FF 3E81     LD   A,81
00901 E002     OUT  (02),A
00903 F0CC     IN   A,(CC)
00905 A7       AND  A
00906 28FB     JR   Z,0903
00908 F001     IN   A,(01)
0090A FE55     CP   55
0090C 20E4     JR   NZ,08F2
0090E 111600   LD   DE,0016
00911 0E0A     LD   C,0A
00913 2102C9   LD   HL,C902
00916 060A     LD   B,0A
00918 AF       XOR  A
00919 E0CC     OUT  (CC),A
0091B CD980A   CALL 0A98
0091E 2A       HL++ A,(HL)
0091F E001     OUT  (01),A
00921 3E81     LD   A,81
00923 E002     OUT  (02),A
00925 F0CC     IN   A,(CC)
00927 A7       AND  A
00928 28FB     JR   Z,0925
0092A 05       DEC  B
0092B 20EB     JR   NZ,0918
0092D 19       ADD  HL,DE
0092E 0D       DEC  C
0092F 20E5     JR   NZ,0916
00931 F0AC     IN   A,(AC)
00933 FE05     CP   05
00935 283D     JR   Z,0974
00937 2122CA   LD   HL,CA22
0093A 114000   LD   DE,0040
0093D 19       ADD  HL,DE
0093E 3C       INC  A
0093F FE05     CP   05
00941 20FA     JR   NZ,093D
00943 1122CA   LD   DE,CA22
00946 0E0A     LD   C,0A
00948 060A     LD   B,0A
0094A 1A       LD   A,(DE)
0094B 22       HL++ (HL),A
0094C 1C       INC  E
0094D 05       DEC  B
0094E 20FA     JR   NZ,094A
00950 D5       PUSH DE
00951 11D6FF   LD   DE,FFD6
00954 19       ADD  HL,DE
00955 D1       POP  DE
00956 E5       PUSH HL
00957 21D6FF   LD   HL,FFD6
0095A 19       ADD  HL,DE
0095B E5       PUSH HL
0095C D1       POP  DE
0095D E1       POP  HL
0095E 0D       DEC  C
0095F 20E7     JR   NZ,0948
00961 11D6FF   LD   DE,FFD6
00964 060A     LD   B,0A
00966 7C       LD   A,H
00967 FEC8     CP   C8
00969 2809     JR   Z,0974
0096B 3E2F     LD   A,2F
0096D 22       HL++ (HL),A
0096E 05       DEC  B
0096F 20FC     JR   NZ,096D
00971 19       ADD  HL,DE
00972 18F0     JR   0964
00974 CD980A   CALL 0A98
00977 CD980A   CALL 0A98
0097A AF       XOR  A
0097B E0CC     OUT  (CC),A
0097D 3E29     LD   A,29
0097F E001     OUT  (01),A
00981 3E81     LD   A,81
00983 E002     OUT  (02),A
00985 F0CC     IN   A,(CC)
00987 A7       AND  A
00988 28FB     JR   Z,0985
0098A F001     IN   A,(01)
0098C FE55     CP   55
0098E 20E4     JR   NZ,0974
00990 2100C3   LD   HL,C300
00993 0600     LD   B,00
00995 AF       XOR  A
00996 E0CC     OUT  (CC),A
00998 2A       HL++ A,(HL)
00999 CD980A   CALL 0A98
0099C E001     OUT  (01),A
0099E 3E81     LD   A,81
009A0 E002     OUT  (02),A
009A2 F0CC     IN   A,(CC)
009A4 A7       AND  A
009A5 28FB     JR   Z,09A2
009A7 04       INC  B
009A8 20EB     JR   NZ,0995
009AA CD980A   CALL 0A98
009AD CD980A   CALL 0A98
009B0 AF       XOR  A
009B1 E0CC     OUT  (CC),A
009B3 3E30     LD   A,30
009B5 E001     OUT  (01),A
009B7 3E81     LD   A,81
009B9 E002     OUT  (02),A
009BB F0CC     IN   A,(CC)
009BD A7       AND  A
009BE 28FB     JR   Z,09BB
009C0 F001     IN   A,(01)
009C2 FE56     CP   56
009C4 20E4     JR   NZ,09AA
009C6 CD8C0A   CALL 0A8C
009C9 3E09     LD   A,09
009CB E0FF     OUT  (FF),A
009CD 3E1C     LD   A,1C
009CF E0E1     OUT  (E1),A
009D1 3E02     LD   A,02
009D3 E0E3     OUT  (E3),A
009D5 3E03     LD   A,03
009D7 E0CD     OUT  (CD),A
009D9 F0CB     IN   A,(CB)
009DB FE29     CP   29
009DD 2805     JR   Z,09E4
009DF 2102FF   LD   HL,FF02
009E2 CBFE     SET  7,(HL)
009E4 2100C3   LD   HL,C300
009E7 2A       HL++ A,(HL)
009E8 EA03C2   LD   (C203),A
009EB 2A       HL++ A,(HL)
009EC EA13C2   LD   (C213),A
009EF 7C       LD   A,H
009F0 E0AF     OUT  (AF),A
009F2 7D       LD   A,L
009F3 E0B0     OUT  (B0),A
009F5 C9       RET  
009F6 F0AD     IN   A,(AD)
009F8 3C       INC  A
009F9 47       LD   B,A
009FA 2142CA   LD   HL,CA42
009FD 11C0FF   LD   DE,FFC0
00A00 05       DEC  B
00A01 2803     JR   Z,0A06
00A03 19       ADD  HL,DE
00A04 18FA     JR   0A00
00A06 CD980A   CALL 0A98
00A09 AF       XOR  A
00A0A E0CC     OUT  (CC),A
00A0C 3E55     LD   A,55
00A0E E001     OUT  (01),A
00A10 3E80     LD   A,80
00A12 E002     OUT  (02),A
00A14 F0CC     IN   A,(CC)
00A16 A7       AND  A
00A17 28FB     JR   Z,0A14
00A19 F001     IN   A,(01)
00A1B FE29     CP   29
00A1D 20E7     JR   NZ,0A06
00A1F 111600   LD   DE,0016
00A22 0E0A     LD   C,0A
00A24 060A     LD   B,0A
00A26 AF       XOR  A
00A27 E0CC     OUT  (CC),A
00A29 E001     OUT  (01),A
00A2B 3E80     LD   A,80
00A2D E002     OUT  (02),A
00A2F F0CC     IN   A,(CC)
00A31 A7       AND  A
00A32 28FB     JR   Z,0A2F
00A34 F001     IN   A,(01)
00A36 22       HL++ (HL),A
00A37 05       DEC  B
00A38 20EC     JR   NZ,0A26
00A3A 19       ADD  HL,DE
00A3B 0D       DEC  C
00A3C 20E6     JR   NZ,0A24
00A3E CD980A   CALL 0A98
00A41 AF       XOR  A
00A42 E0CC     OUT  (CC),A
00A44 3E55     LD   A,55
00A46 E001     OUT  (01),A
00A48 3E80     LD   A,80
00A4A E002     OUT  (02),A
00A4C F0CC     IN   A,(CC)
00A4E A7       AND  A
00A4F 28FB     JR   Z,0A4C
00A51 F001     IN   A,(01)
00A53 FE29     CP   29
00A55 20E7     JR   NZ,0A3E
00A57 0600     LD   B,00
00A59 2100C3   LD   HL,C300
00A5C AF       XOR  A
00A5D E0CC     OUT  (CC),A
00A5F E001     OUT  (01),A
00A61 3E80     LD   A,80
00A63 E002     OUT  (02),A
00A65 F0CC     IN   A,(CC)
00A67 A7       AND  A
00A68 28FB     JR   Z,0A65
00A6A F001     IN   A,(01)
00A6C 22       HL++ (HL),A
00A6D 04       INC  B
00A6E 20EC     JR   NZ,0A5C
00A70 CD980A   CALL 0A98
00A73 AF       XOR  A
00A74 E0CC     OUT  (CC),A
00A76 3E56     LD   A,56
00A78 E001     OUT  (01),A
00A7A 3E80     LD   A,80
00A7C E002     OUT  (02),A
00A7E F0CC     IN   A,(CC)
00A80 A7       AND  A
00A81 28FB     JR   Z,0A7E
00A83 F001     IN   A,(01)
00A85 FE30     CP   30
00A87 20E7     JR   NZ,0A70
00A89 C3C609   JP   09C6
00A8C 2142CA   LD   HL,CA42
00A8F 3E80     LD   A,80
00A91 060A     LD   B,0A
00A93 22       HL++ (HL),A
00A94 05       DEC  B
00A95 20FC     JR   NZ,0A93
00A97 C9       RET  
00A98 C5       PUSH BC
00A99 06FA     LD   B,FA
00A9B 40       LD   B,B
00A9C 05       DEC  B
00A9D 20FC     JR   NZ,0A9B
00A9F C1       POP  BC
00AA0 C9       RET  
00AA1 E5       PUSH HL
00AA2 C5       PUSH BC
00AA3 F0FC     IN   A,(FC)
00AA5 E6FC     AND  FC
00AA7 4F       LD   C,A
00AA8 2603     LD   H,03
00AAA F004     IN   A,(04)
00AAC 47       LD   B,A
00AAD AF       XOR  A
00AAE 05       DEC  B
00AAF 280A     JR   Z,0ABB
00AB1 3C       INC  A
00AB2 3C       INC  A
00AB3 3C       INC  A
00AB4 3C       INC  A
00AB5 FE1C     CP   1C
00AB7 28F4     JR   Z,0AAD
00AB9 18F3     JR   0AAE
00ABB 57       LD   D,A
00ABC F0AE     IN   A,(AE)
00ABE 5F       LD   E,A
00ABF 25       DEC  H
00AC0 2807     JR   Z,0AC9
00AC2 B2       OR   D
00AC3 B1       OR   C
00AC4 E6FC     AND  FC
00AC6 B9       CP   C
00AC7 28E1     JR   Z,0AAA
00AC9 7A       LD   A,D
00ACA E0AE     OUT  (AE),A
00ACC 7B       LD   A,E
00ACD E0FC     OUT  (FC),A
00ACF C1       POP  BC
00AD0 E1       POP  HL
00AD1 C9       RET  
00AD2 3E01     LD   A,01
00AD4 E0FF     OUT  (FF),A
00AD6 F0E3     IN   A,(E3)
00AD8 A7       AND  A
00AD9 2027     JR   NZ,0B02
00ADB 0644     LD   B,44
00ADD 0E20     LD   C,20
00ADF CD3F11   CALL 113F
00AE2 3E02     LD   A,02
00AE4 E0CD     OUT  (CD),A
00AE6 FADEC0   LD   A,(C0DE)
00AE9 A7       AND  A
00AEA 2805     JR   Z,0AF1
00AEC 3E80     LD   A,80
00AEE EA10C2   LD   (C210),A
00AF1 CD8326   CALL 2683
00AF4 CD9626   CALL 2696
00AF7 CD1715   CALL 1517
00AFA AF       XOR  A
00AFB E0D6     OUT  (D6),A
00AFD 3E1A     LD   A,1A
00AFF E0E1     OUT  (E1),A
00B01 C9       RET  
00B02 FE05     CP   05
00B04 C0       RET  NZ
00B05 2130C0   LD   HL,C030
00B08 0612     LD   B,12
00B0A 36F0     LD   (HL),F0
00B0C 23       INC  HL
00B0D 3610     LD   (HL),10
00B0F 23       INC  HL
00B10 36B6     LD   (HL),B6
00B12 23       INC  HL
00B13 3680     LD   (HL),80
00B15 23       INC  HL
00B16 05       DEC  B
00B17 20F1     JR   NZ,0B0A
00B19 FAFFC3   LD   A,(C3FF)
00B1C 060A     LD   B,0A
00B1E 2100C4   LD   HL,C400
00B21 3D       DEC  A
00B22 2806     JR   Z,0B2A
00B24 2C       INC  L
00B25 05       DEC  B
00B26 20F9     JR   NZ,0B21
00B28 18F2     JR   0B1C
00B2A 362F     LD   (HL),2F
00B2C 3E03     LD   A,03
00B2E E0CE     OUT  (CE),A
00B30 C9       RET  
00B31 3E01     LD   A,01
00B33 E0FF     OUT  (FF),A
00B35 219CC0   LD   HL,C09C
00B38 AF       XOR  A
00B39 22       HL++ (HL),A
00B3A 3650     LD   (HL),50
00B3C 2C       INC  L
00B3D 3627     LD   (HL),27
00B3F 2C       INC  L
00B40 3600     LD   (HL),00
00B42 CD0D1C   CALL 1C0D
00B45 CD881C   CALL 1C88
00B48 CDBB24   CALL 24BB
00B4B CD9C20   CALL 209C
00B4E CD3E21   CALL 213E
00B51 CDA125   CALL 25A1
00B54 CD4D22   CALL 224D
00B57 CD9B0B   CALL 0B9B
00B5A F0D5     IN   A,(D5)
00B5C A7       AND  A
00B5D 2814     JR   Z,0B73
00B5F 3E77     LD   A,77
00B61 E0CF     OUT  (CF),A
00B63 E0B1     OUT  (B1),A
00B65 3EAA     LD   A,AA
00B67 E0D1     OUT  (D1),A
00B69 3E1B     LD   A,1B
00B6B E0E1     OUT  (E1),A
00B6D 3E05     LD   A,05
00B6F E0A7     OUT  (A7),A
00B71 1810     JR   0B83
00B73 F0E1     IN   A,(E1)
00B75 FE01     CP   01
00B77 201B     JR   NZ,0B94
00B79 3EAA     LD   A,AA
00B7B E0CF     OUT  (CF),A
00B7D E0B1     OUT  (B1),A
00B7F 3E77     LD   A,77
00B81 E0D1     OUT  (D1),A
00B83 AF       XOR  A
00B84 E0DC     OUT  (DC),A
00B86 E0D2     OUT  (D2),A
00B88 E0D3     OUT  (D3),A
00B8A E0D4     OUT  (D4),A
00B8C F0CB     IN   A,(CB)
00B8E FE29     CP   29
00B90 2002     JR   NZ,0B94
00B92 E0CE     OUT  (CE),A
00B94 CDF00B   CALL 0BF0
00B97 CD8C0C   CALL 0C8C
00B9A C9       RET  
00B9B 112000   LD   DE,0020
00B9E 2102C8   LD   HL,C802
00BA1 3E2F     LD   A,2F
00BA3 0E12     LD   C,12
00BA5 060A     LD   B,0A
00BA7 E5       PUSH HL
00BA8 BE       CP   (HL)
00BA9 200A     JR   NZ,0BB5
00BAB 23       INC  HL
00BAC 05       DEC  B
00BAD 20F9     JR   NZ,0BA8
00BAF E1       POP  HL
00BB0 19       ADD  HL,DE
00BB1 0D       DEC  C
00BB2 20F1     JR   NZ,0BA5
00BB4 E5       PUSH HL
00BB5 E1       POP  HL
00BB6 79       LD   A,C
00BB7 E0B1     OUT  (B1),A
00BB9 FE0C     CP   0C
00BBB FAE9DF   LD   A,(DFE9)
00BBE 3007     JR   NC,0BC7
00BC0 FE08     CP   08
00BC2 C0       RET  NZ
00BC3 CD1715   CALL 1517
00BC6 C9       RET  
00BC7 FE08     CP   08
00BC9 C8       RET  Z
00BCA FAF0DF   LD   A,(DFF0)
00BCD FE02     CP   02
00BCF C8       RET  Z
00BD0 3E08     LD   A,08
00BD2 EAE8DF   LD   (DFE8),A
00BD5 C9       RET  
00BD6 F0CB     IN   A,(CB)
00BD8 FE29     CP   29
00BDA 2852     JR   Z,0C2E
00BDC 3E01     LD   A,01
00BDE EA7FDF   LD   (DF7F),A
00BE1 E0AB     OUT  (AB),A
00BE3 F0CF     IN   A,(CF)
00BE5 E0F1     OUT  (F1),A
00BE7 AF       XOR  A
00BE8 E0F2     OUT  (F2),A
00BEA E0CF     OUT  (CF),A
00BEC CDCB1C   CALL 1CCB
00BEF C9       RET  
00BF0 F0CC     IN   A,(CC)
00BF2 A7       AND  A
00BF3 C8       RET  Z
00BF4 2130C0   LD   HL,C030
00BF7 110400   LD   DE,0004
00BFA AF       XOR  A
00BFB E0CC     OUT  (CC),A
00BFD F0D0     IN   A,(D0)
00BFF FEAA     CP   AA
00C01 2861     JR   Z,0C64
00C03 FE77     CP   77
00C05 2849     JR   Z,0C50
00C07 FE94     CP   94
00C09 28CB     JR   Z,0BD6
00C0B 47       LD   B,A
00C0C A7       AND  A
00C0D 2851     JR   Z,0C60
00C0F CB7F     BIT  7,A
00C11 206F     JR   NZ,0C82
00C13 FE13     CP   13
00C15 3017     JR   NC,0C2E
00C17 3E12     LD   A,12
00C19 90       SUB  B
00C1A 4F       LD   C,A
00C1B 0C       INC  C
00C1C 3E98     LD   A,98
00C1E 77       LD   (HL),A
00C1F 19       ADD  HL,DE
00C20 D608     SUB  08
00C22 05       DEC  B
00C23 20F9     JR   NZ,0C1E
00C25 3EF0     LD   A,F0
00C27 0D       DEC  C
00C28 2804     JR   Z,0C2E
00C2A 77       LD   (HL),A
00C2B 19       ADD  HL,DE
00C2C 18F9     JR   0C27
00C2E F0DC     IN   A,(DC)
00C30 A7       AND  A
00C31 2807     JR   Z,0C3A
00C33 F680     OR   80
00C35 E0B1     OUT  (B1),A
00C37 AF       XOR  A
00C38 E0DC     OUT  (DC),A
00C3A 3EFF     LD   A,FF
00C3C E0D0     OUT  (D0),A
00C3E F0CB     IN   A,(CB)
00C40 FE29     CP   29
00C42 F0B1     IN   A,(B1)
00C44 2007     JR   NZ,0C4D
00C46 E0CF     OUT  (CF),A
00C48 3E01     LD   A,01
00C4A E0CE     OUT  (CE),A
00C4C C9       RET  
00C4D E0CF     OUT  (CF),A
00C4F C9       RET  
00C50 F0D1     IN   A,(D1)
00C52 FEAA     CP   AA
00C54 2826     JR   Z,0C7C
00C56 3E77     LD   A,77
00C58 E0D1     OUT  (D1),A
00C5A 3E01     LD   A,01
00C5C E0E1     OUT  (E1),A
00C5E 18CE     JR   0C2E
00C60 0E13     LD   C,13
00C62 18C1     JR   0C25
00C64 F0D1     IN   A,(D1)
00C66 FE77     CP   77
00C68 2812     JR   Z,0C7C
00C6A 3EAA     LD   A,AA
00C6C E0D1     OUT  (D1),A
00C6E 3E1B     LD   A,1B
00C70 E0E1     OUT  (E1),A
00C72 3E05     LD   A,05
00C74 E0A7     OUT  (A7),A
00C76 0E01     LD   C,01
00C78 0612     LD   B,12
00C7A 18A0     JR   0C1C
00C7C 3E01     LD   A,01
00C7E E0EF     OUT  (EF),A
00C80 18AC     JR   0C2E
00C82 E67F     AND  7F
00C84 FE05     CP   05
00C86 30A6     JR   NC,0C2E
00C88 E0D2     OUT  (D2),A
00C8A 18AE     JR   0C3A
00C8C F0D3     IN   A,(D3)
00C8E A7       AND  A
00C8F 2807     JR   Z,0C98
00C91 CB7F     BIT  7,A
00C93 C8       RET  Z
00C94 E607     AND  07
00C96 180A     JR   0CA2
00C98 F0D2     IN   A,(D2)
00C9A A7       AND  A
00C9B C8       RET  Z
00C9C E0D3     OUT  (D3),A
00C9E AF       XOR  A
00C9F E0D2     OUT  (D2),A
00CA1 C9       RET  
00CA2 4F       LD   C,A
00CA3 C5       PUSH BC
00CA4 2122C8   LD   HL,C822
00CA7 11E0FF   LD   DE,FFE0
00CAA 19       ADD  HL,DE
00CAB 0D       DEC  C
00CAC 20FC     JR   NZ,0CAA
00CAE 1122C8   LD   DE,C822
00CB1 0E11     LD   C,11
00CB3 060A     LD   B,0A
00CB5 1A       LD   A,(DE)
00CB6 22       HL++ (HL),A
00CB7 1C       INC  E
00CB8 05       DEC  B
00CB9 20FA     JR   NZ,0CB5
00CBB D5       PUSH DE
00CBC 111600   LD   DE,0016
00CBF 19       ADD  HL,DE
00CC0 D1       POP  DE
00CC1 E5       PUSH HL
00CC2 211600   LD   HL,0016
00CC5 19       ADD  HL,DE
00CC6 E5       PUSH HL
00CC7 D1       POP  DE
00CC8 E1       POP  HL
00CC9 0D       DEC  C
00CCA 20E7     JR   NZ,0CB3
00CCC C1       POP  BC
00CCD 1100C4   LD   DE,C400
00CD0 060A     LD   B,0A
00CD2 1A       LD   A,(DE)
00CD3 22       HL++ (HL),A
00CD4 13       INC  DE
00CD5 05       DEC  B
00CD6 20FA     JR   NZ,0CD2
00CD8 D5       PUSH DE
00CD9 111600   LD   DE,0016
00CDC 19       ADD  HL,DE
00CDD D1       POP  DE
00CDE 0D       DEC  C
00CDF 20EC     JR   NZ,0CCD
00CE1 3E02     LD   A,02
00CE3 E0E3     OUT  (E3),A
00CE5 E0D4     OUT  (D4),A
00CE7 AF       XOR  A
00CE8 E0D3     OUT  (D3),A
00CEA C9       RET  
00CEB F0A6     IN   A,(A6)
00CED A7       AND  A
00CEE C0       RET  NZ
00CEF 3E01     LD   A,01
00CF1 E0FF     OUT  (FF),A
00CF3 3E03     LD   A,03
00CF5 E0CD     OUT  (CD),A
00CF7 F0D1     IN   A,(D1)
00CF9 FE77     CP   77
00CFB 200C     JR   NZ,0D09
00CFD F0D0     IN   A,(D0)
00CFF FEAA     CP   AA
00D01 2010     JR   NZ,0D13
00D03 3E01     LD   A,01
00D05 E0EF     OUT  (EF),A
00D07 180A     JR   0D13
00D09 FEAA     CP   AA
00D0B 2006     JR   NZ,0D13
00D0D F0D0     IN   A,(D0)
00D0F FE77     CP   77
00D11 28F0     JR   Z,0D03
00D13 0634     LD   B,34
00D15 0E43     LD   C,43
00D17 CD3F11   CALL 113F
00D1A AF       XOR  A
00D1B E0E3     OUT  (E3),A
00D1D F0D1     IN   A,(D1)
00D1F FEAA     CP   AA
00D21 3E1E     LD   A,1E
00D23 2002     JR   NZ,0D27
00D25 3E1D     LD   A,1D
00D27 E0E1     OUT  (E1),A
00D29 3E28     LD   A,28
00D2B E0A6     OUT  (A6),A
00D2D 3E1D     LD   A,1D
00D2F E0C6     OUT  (C6),A
00D31 C9       RET  
00D32 F0A6     IN   A,(A6)
00D34 A7       AND  A
00D35 C0       RET  NZ
00D36 F0EF     IN   A,(EF)
00D38 A7       AND  A
00D39 2005     JR   NZ,0D40
00D3B F0D7     IN   A,(D7)
00D3D 3C       INC  A
00D3E E0D7     OUT  (D7),A
00D40 CD6F0F   CALL 0F6F
00D43 11F926   LD   DE,26F9
00D46 F0CB     IN   A,(CB)
00D48 FE29     CP   29
00D4A 2803     JR   Z,0D4F
00D4C 110B27   LD   DE,270B
00D4F 2100C2   LD   HL,C200
00D52 0E03     LD   C,03
00D54 CD7617   CALL 1776
00D57 3E19     LD   A,19
00D59 E0A6     OUT  (A6),A
00D5B F0EF     IN   A,(EF)
00D5D A7       AND  A
00D5E 2805     JR   Z,0D65
00D60 2120C2   LD   HL,C220
00D63 3680     LD   (HL),80
00D65 3E03     LD   A,03
00D67 CD7326   CALL 2673
00D6A 3E20     LD   A,20
00D6C E0E1     OUT  (E1),A
00D6E 3E09     LD   A,09
00D70 EAE8DF   LD   (DFE8),A
00D73 F0D7     IN   A,(D7)
00D75 FE05     CP   05
00D77 C0       RET  NZ
00D78 3E11     LD   A,11
00D7A EAE8DF   LD   (DFE8),A
00D7D C9       RET  
00D7E F0D7     IN   A,(D7)
00D80 FE05     CP   05
00D82 2007     JR   NZ,0D8B
00D84 F0C6     IN   A,(C6)
00D86 A7       AND  A
00D87 2808     JR   Z,0D91
00D89 1822     JR   0DAD
00D8B F081     IN   A,(81)
00D8D CB5F     BIT  3,A
00D8F 281C     JR   Z,0DAD
00D91 3E60     LD   A,60
00D93 E0CF     OUT  (CF),A
00D95 E0CE     OUT  (CE),A
00D97 181D     JR   0DB6
00D99 3E01     LD   A,01
00D9B E0FF     OUT  (FF),A
00D9D F0CC     IN   A,(CC)
00D9F 280C     JR   Z,0DAD
00DA1 F0CB     IN   A,(CB)
00DA3 FE29     CP   29
00DA5 28D7     JR   Z,0D7E
00DA7 F0D0     IN   A,(D0)
00DA9 FE60     CP   60
00DAB 2809     JR   Z,0DB6
00DAD CDBD0D   CALL 0DBD
00DB0 3E03     LD   A,03
00DB2 CD7326   CALL 2673
00DB5 C9       RET  
00DB6 3E1F     LD   A,1F
00DB8 E0E1     OUT  (E1),A
00DBA E0CC     OUT  (CC),A
00DBC C9       RET  
00DBD F0A6     IN   A,(A6)
00DBF A7       AND  A
00DC0 2023     JR   NZ,0DE5
00DC2 21C6FF   LD   HL,FFC6
00DC5 35       DEC  (HL)
00DC6 3E19     LD   A,19
00DC8 E0A6     OUT  (A6),A
00DCA CD600F   CALL 0F60
00DCD 2101C2   LD   HL,C201
00DD0 7E       LD   A,(HL)
00DD1 EE30     XOR  30
00DD3 22       HL++ (HL),A
00DD4 FE60     CP   60
00DD6 CC170F   CALL Z,0F17
00DD9 2C       INC  L
00DDA F5       PUSH AF
00DDB 7E       LD   A,(HL)
00DDC EE01     XOR  01
00DDE 77       LD   (HL),A
00DDF 2E13     LD   L,13
00DE1 32       HL-- (HL),A
00DE2 F1       POP  AF
00DE3 2D       DEC  L
00DE4 77       LD   (HL),A
00DE5 F0D7     IN   A,(D7)
00DE7 FE05     CP   05
00DE9 2028     JR   NZ,0E13
00DEB F0C6     IN   A,(C6)
00DED 2121C2   LD   HL,C221
00DF0 FE06     CP   06
00DF2 281B     JR   Z,0E0F
00DF4 FE08     CP   08
00DF6 301B     JR   NC,0E13
00DF8 7E       LD   A,(HL)
00DF9 FE72     CP   72
00DFB 3006     JR   NC,0E03
00DFD FE69     CP   69
00DFF C8       RET  Z
00E00 34       INC  (HL)
00E01 34       INC  (HL)
00E02 C9       RET  
00E03 3669     LD   (HL),69
00E05 2C       INC  L
00E06 2C       INC  L
00E07 3657     LD   (HL),57
00E09 3E06     LD   A,06
00E0B EAE0DF   LD   (DFE0),A
00E0E C9       RET  
00E0F 2D       DEC  L
00E10 3680     LD   (HL),80
00E12 C9       RET  
00E13 F0A7     IN   A,(A7)
00E15 A7       AND  A
00E16 C0       RET  NZ
00E17 3E0F     LD   A,0F
00E19 E0A7     OUT  (A7),A
00E1B 2123C2   LD   HL,C223
00E1E 7E       LD   A,(HL)
00E1F EE01     XOR  01
00E21 77       LD   (HL),A
00E22 C9       RET  
00E23 F0A6     IN   A,(A6)
00E25 A7       AND  A
00E26 C0       RET  NZ
00E27 F0EF     IN   A,(EF)
00E29 A7       AND  A
00E2A 2005     JR   NZ,0E31
00E2C F0D8     IN   A,(D8)
00E2E 3C       INC  A
00E2F E0D8     OUT  (D8),A
00E31 CD6F0F   CALL 0F6F
00E34 111D27   LD   DE,271D
00E37 F0CB     IN   A,(CB)
00E39 FE29     CP   29
00E3B 2803     JR   Z,0E40
00E3D 112927   LD   DE,2729
00E40 2100C2   LD   HL,C200
00E43 0E02     LD   C,02
00E45 CD7617   CALL 1776
00E48 3E19     LD   A,19
00E4A E0A6     OUT  (A6),A
00E4C F0EF     IN   A,(EF)
00E4E A7       AND  A
00E4F 2805     JR   Z,0E56
00E51 2110C2   LD   HL,C210
00E54 3680     LD   (HL),80
00E56 3E02     LD   A,02
00E58 CD7326   CALL 2673
00E5B 3E21     LD   A,21
00E5D E0E1     OUT  (E1),A
00E5F 3E09     LD   A,09
00E61 EAE8DF   LD   (DFE8),A
00E64 F0D8     IN   A,(D8)
00E66 FE05     CP   05
00E68 C0       RET  NZ
00E69 3E11     LD   A,11
00E6B EAE8DF   LD   (DFE8),A
00E6E C9       RET  
00E6F F0D8     IN   A,(D8)
00E71 FE05     CP   05
00E73 2007     JR   NZ,0E7C
00E75 F0C6     IN   A,(C6)
00E77 A7       AND  A
00E78 2808     JR   Z,0E82
00E7A 1822     JR   0E9E
00E7C F081     IN   A,(81)
00E7E CB5F     BIT  3,A
00E80 281C     JR   Z,0E9E
00E82 3E60     LD   A,60
00E84 E0CF     OUT  (CF),A
00E86 E0CE     OUT  (CE),A
00E88 181D     JR   0EA7
00E8A 3E01     LD   A,01
00E8C E0FF     OUT  (FF),A
00E8E F0CC     IN   A,(CC)
00E90 280C     JR   Z,0E9E
00E92 F0CB     IN   A,(CB)
00E94 FE29     CP   29
00E96 28D7     JR   Z,0E6F
00E98 F0D0     IN   A,(D0)
00E9A FE60     CP   60
00E9C 2809     JR   Z,0EA7
00E9E CDAE0E   CALL 0EAE
00EA1 3E02     LD   A,02
00EA3 CD7326   CALL 2673
00EA6 C9       RET  
00EA7 3E1F     LD   A,1F
00EA9 E0E1     OUT  (E1),A
00EAB E0CC     OUT  (CC),A
00EAD C9       RET  
00EAE F0A6     IN   A,(A6)
00EB0 A7       AND  A
00EB1 201C     JR   NZ,0ECF
00EB3 21C6FF   LD   HL,FFC6
00EB6 35       DEC  (HL)
00EB7 3E19     LD   A,19
00EB9 E0A6     OUT  (A6),A
00EBB CD600F   CALL 0F60
00EBE 2111C2   LD   HL,C211
00EC1 7E       LD   A,(HL)
00EC2 EE08     XOR  08
00EC4 22       HL++ (HL),A
00EC5 FE68     CP   68
00EC7 CC170F   CALL Z,0F17
00ECA 2C       INC  L
00ECB 7E       LD   A,(HL)
00ECC EE01     XOR  01
00ECE 77       LD   (HL),A
00ECF F0D8     IN   A,(D8)
00ED1 FE05     CP   05
00ED3 2032     JR   NZ,0F07
00ED5 F0C6     IN   A,(C6)
00ED7 2101C2   LD   HL,C201
00EDA FE05     CP   05
00EDC 2825     JR   Z,0F03
00EDE FE06     CP   06
00EE0 2811     JR   Z,0EF3
00EE2 FE08     CP   08
00EE4 3021     JR   NC,0F07
00EE6 7E       LD   A,(HL)
00EE7 FE72     CP   72
00EE9 3018     JR   NC,0F03
00EEB FE61     CP   61
00EED C8       RET  Z
00EEE 34       INC  (HL)
00EEF 34       INC  (HL)
00EF0 34       INC  (HL)
00EF1 34       INC  (HL)
00EF2 C9       RET  
00EF3 2D       DEC  L
00EF4 3600     LD   (HL),00
00EF6 2C       INC  L
00EF7 3661     LD   (HL),61
00EF9 2C       INC  L
00EFA 2C       INC  L
00EFB 3656     LD   (HL),56
00EFD 3E06     LD   A,06
00EFF EAE0DF   LD   (DFE0),A
00F02 C9       RET  
00F03 2D       DEC  L
00F04 3680     LD   (HL),80
00F06 C9       RET  
00F07 F0A7     IN   A,(A7)
00F09 A7       AND  A
00F0A C0       RET  NZ
00F0B 3E0F     LD   A,0F
00F0D E0A7     OUT  (A7),A
00F0F 2103C2   LD   HL,C203
00F12 7E       LD   A,(HL)
00F13 EE01     XOR  01
00F15 77       LD   (HL),A
00F16 C9       RET  
00F17 F5       PUSH AF
00F18 E5       PUSH HL
00F19 F0D7     IN   A,(D7)
00F1B FE05     CP   05
00F1D 281A     JR   Z,0F39
00F1F F0D8     IN   A,(D8)
00F21 FE05     CP   05
00F23 2814     JR   Z,0F39
00F25 F0CB     IN   A,(CB)
00F27 FE29     CP   29
00F29 200E     JR   NZ,0F39
00F2B 2160C0   LD   HL,C060
00F2E 0624     LD   B,24
00F30 113C0F   LD   DE,0F3C
00F33 1A       LD   A,(DE)
00F34 22       HL++ (HL),A
00F35 13       INC  DE
00F36 05       DEC  B
00F37 20FA     JR   NZ,0F33
00F39 E1       POP  HL
00F3A F1       POP  AF
00F3B C9       RET  
00F3C 42       LD   B,D
00F3D 300D     JR   NC,0F4C
00F3F 00       NOP  
00F40 42       LD   B,D
00F41 38B2     JR   C,0EF5
00F43 00       NOP  
00F44 42       LD   B,D
00F45 40       LD   B,B
00F46 0E00     LD   C,00
00F48 42       LD   B,D
00F49 48       LD   C,B
00F4A 1C       INC  E
00F4B 00       NOP  
00F4C 42       LD   B,D
00F4D 58       LD   E,B
00F4E 0E00     LD   C,00
00F50 42       LD   B,D
00F51 60       LD   H,B
00F52 1D       DEC  E
00F53 00       NOP  
00F54 42       LD   B,D
00F55 68       LD   L,B
00F56 B5       OR   L
00F57 00       NOP  
00F58 42       LD   B,D
00F59 70       LD   (HL),B
00F5A BB       CP   E
00F5B 00       NOP  
00F5C 42       LD   B,D
00F5D 78       LD   A,B
00F5E 1D       DEC  E
00F5F 00       NOP  
00F60 2160C0   LD   HL,C060
00F63 110400   LD   DE,0004
00F66 0609     LD   B,09
00F68 AF       XOR  A
00F69 77       LD   (HL),A
00F6A 19       ADD  HL,DE
00F6B 05       DEC  B
00F6C 20FB     JR   NZ,0F69
00F6E C9       RET  
00F6F CD2028   CALL 2820
00F72 21AC55   LD   HL,55AC
00F75 010010   LD   BC,1000
00F78 CDE427   CALL 27E4
00F7B CD9527   CALL 2795
00F7E 210098   LD   HL,9800
00F81 11E454   LD   DE,54E4
00F84 0604     LD   B,04
00F86 CDF027   CALL 27F0
00F89 218099   LD   HL,9980
00F8C 0606     LD   B,06
00F8E CDF027   CALL 27F0
00F91 F0CB     IN   A,(CB)
00F93 FE29     CP   29
00F95 2022     JR   NZ,0FB9
00F97 214198   LD   HL,9841
00F9A 36BD     LD   (HL),BD
00F9C 2C       INC  L
00F9D 36B2     LD   (HL),B2
00F9F 2C       INC  L
00FA0 362E     LD   (HL),2E
00FA2 2C       INC  L
00FA3 36BE     LD   (HL),BE
00FA5 2C       INC  L
00FA6 362E     LD   (HL),2E
00FA8 21019A   LD   HL,9A01
00FAB 36B4     LD   (HL),B4
00FAD 2C       INC  L
00FAE 36B5     LD   (HL),B5
00FB0 2C       INC  L
00FB1 36BB     LD   (HL),BB
00FB3 2C       INC  L
00FB4 362E     LD   (HL),2E
00FB6 2C       INC  L
00FB7 36BC     LD   (HL),BC
00FB9 F0EF     IN   A,(EF)
00FBB A7       AND  A
00FBC 2003     JR   NZ,0FC1
00FBE CD8510   CALL 1085
00FC1 F0D7     IN   A,(D7)
00FC3 A7       AND  A
00FC4 2849     JR   Z,100F
00FC6 FE05     CP   05
00FC8 2016     JR   NZ,0FE0
00FCA 21A598   LD   HL,98A5
00FCD 060B     LD   B,0B
00FCF F0CB     IN   A,(CB)
00FD1 FE29     CP   29
00FD3 11F310   LD   DE,10F3
00FD6 2803     JR   Z,0FDB
00FD8 11FE10   LD   DE,10FE
00FDB CDD810   CALL 10D8
00FDE 3E04     LD   A,04
00FE0 4F       LD   C,A
00FE1 F0CB     IN   A,(CB)
00FE3 FE29     CP   29
00FE5 3E93     LD   A,93
00FE7 2002     JR   NZ,0FEB
00FE9 3E8F     LD   A,8F
00FEB E0A0     OUT  (A0),A
00FED 21E799   LD   HL,99E7
00FF0 CD6A10   CALL 106A
00FF3 F0D9     IN   A,(D9)
00FF5 A7       AND  A
00FF6 2817     JR   Z,100F
00FF8 3EAC     LD   A,AC
00FFA E0A0     OUT  (A0),A
00FFC 21F099   LD   HL,99F0
00FFF 0E01     LD   C,01
01001 CD6A10   CALL 106A
01004 21A698   LD   HL,98A6
01007 110911   LD   DE,1109
0100A 0609     LD   B,09
0100C CDD810   CALL 10D8
0100F F0D8     IN   A,(D8)
01011 A7       AND  A
01012 283E     JR   Z,1052
01014 FE05     CP   05
01016 2016     JR   NZ,102E
01018 21A598   LD   HL,98A5
0101B 060B     LD   B,0B
0101D F0CB     IN   A,(CB)
0101F FE29     CP   29
01021 11FE10   LD   DE,10FE
01024 2803     JR   Z,1029
01026 11F310   LD   DE,10F3
01029 CDD810   CALL 10D8
0102C 3E04     LD   A,04
0102E 4F       LD   C,A
0102F F0CB     IN   A,(CB)
01031 FE29     CP   29
01033 3E8F     LD   A,8F
01035 2002     JR   NZ,1039
01037 3E93     LD   A,93
01039 E0A0     OUT  (A0),A
0103B 212798   LD   HL,9827
0103E CD6A10   CALL 106A
01041 F0DA     IN   A,(DA)
01043 A7       AND  A
01044 280C     JR   Z,1052
01046 3EAC     LD   A,AC
01048 E0A0     OUT  (A0),A
0104A 213098   LD   HL,9830
0104D 0E01     LD   C,01
0104F CD6A10   CALL 106A
01052 F0DB     IN   A,(DB)
01054 A7       AND  A
01055 280B     JR   Z,1062
01057 21A798   LD   HL,98A7
0105A 11ED10   LD   DE,10ED
0105D 0606     LD   B,06
0105F CDD810   CALL 10D8
01062 3ED3     LD   A,D3
01064 E040     OUT  (40),A
01066 CD8A17   CALL 178A
01069 C9       RET  
0106A F0A0     IN   A,(A0)
0106C E5       PUSH HL
0106D 112000   LD   DE,0020
01070 0602     LD   B,02
01072 E5       PUSH HL
01073 22       HL++ (HL),A
01074 3C       INC  A
01075 77       LD   (HL),A
01076 3C       INC  A
01077 E1       POP  HL
01078 19       ADD  HL,DE
01079 05       DEC  B
0107A 20F6     JR   NZ,1072
0107C E1       POP  HL
0107D 110300   LD   DE,0003
01080 19       ADD  HL,DE
01081 0D       DEC  C
01082 20E6     JR   NZ,106A
01084 C9       RET  
01085 21D7FF   LD   HL,FFD7
01088 11D8FF   LD   DE,FFD8
0108B F0D9     IN   A,(D9)
0108D A7       AND  A
0108E 203A     JR   NZ,10CA
01090 F0DA     IN   A,(DA)
01092 A7       AND  A
01093 203C     JR   NZ,10D1
01095 F0DB     IN   A,(DB)
01097 A7       AND  A
01098 2021     JR   NZ,10BB
0109A 7E       LD   A,(HL)
0109B FE04     CP   04
0109D 2811     JR   Z,10B0
0109F 1A       LD   A,(DE)
010A0 FE04     CP   04
010A2 C0       RET  NZ
010A3 3E05     LD   A,05
010A5 12       LD   (DE),A
010A6 180A     JR   10B2
010A8 1A       LD   A,(DE)
010A9 FE03     CP   03
010AB C0       RET  NZ
010AC 3E03     LD   A,03
010AE 1805     JR   10B5
010B0 3605     LD   (HL),05
010B2 AF       XOR  A
010B3 E0DB     OUT  (DB),A
010B5 AF       XOR  A
010B6 E0D9     OUT  (D9),A
010B8 E0DA     OUT  (DA),A
010BA C9       RET  
010BB 7E       LD   A,(HL)
010BC FE04     CP   04
010BE 2006     JR   NZ,10C6
010C0 E0D9     OUT  (D9),A
010C2 AF       XOR  A
010C3 E0DB     OUT  (DB),A
010C5 C9       RET  
010C6 E0DA     OUT  (DA),A
010C8 18F8     JR   10C2
010CA 7E       LD   A,(HL)
010CB FE05     CP   05
010CD 28E1     JR   Z,10B0
010CF 18DB     JR   10AC
010D1 1A       LD   A,(DE)
010D2 FE05     CP   05
010D4 28CD     JR   Z,10A3
010D6 18D4     JR   10AC
010D8 C5       PUSH BC
010D9 E5       PUSH HL
010DA 1A       LD   A,(DE)
010DB 22       HL++ (HL),A
010DC 13       INC  DE
010DD 05       DEC  B
010DE 20FA     JR   NZ,10DA
010E0 E1       POP  HL
010E1 112000   LD   DE,0020
010E4 19       ADD  HL,DE
010E5 C1       POP  BC
010E6 3EB6     LD   A,B6
010E8 22       HL++ (HL),A
010E9 05       DEC  B
010EA 20FC     JR   NZ,10E8
010EC C9       RET  
010ED B0       OR   B
010EE B1       OR   C
010EF B2       OR   D
010F0 B3       OR   E
010F1 B1       OR   C
010F2 3EB4     LD   A,B4
010F4 B5       OR   L
010F5 BB       CP   E
010F6 2EBC     LD   L,BC
010F8 2F       CPL  
010F9 2D       DEC  L
010FA 2E3D     LD   L,3D
010FC 0E3E     LD   C,3E
010FE BD       CP   L
010FF B2       OR   D
01100 2EBE     LD   L,BE
01102 2E2F     LD   L,2F
01104 2D       DEC  L
01105 2E3D     LD   L,3D
01107 0E3E     LD   C,3E
01109 B5       OR   L
0110A B0       OR   B
0110B 41       LD   B,C
0110C B5       OR   L
0110D 3D       DEC  A
0110E 1D       DEC  E
0110F B5       OR   L
01110 BE       CP   (HL)
01111 B1       OR   C
01112 3E01     LD   A,01
01114 E0FF     OUT  (FF),A
01116 F0A6     IN   A,(A6)
01118 A7       AND  A
01119 C0       RET  NZ
0111A CD8A17   CALL 178A
0111D AF       XOR  A
0111E E0EF     OUT  (EF),A
01120 0627     LD   B,27
01122 0E79     LD   C,79
01124 CD3F11   CALL 113F
01127 CDF37F   CALL 7FF3
0112A F0D7     IN   A,(D7)
0112C FE05     CP   05
0112E 280A     JR   Z,113A
01130 F0D8     IN   A,(D8)
01132 FE05     CP   05
01134 2804     JR   Z,113A
01136 3E01     LD   A,01
01138 E0D6     OUT  (D6),A
0113A 3E16     LD   A,16
0113C E0E1     OUT  (E1),A
0113E C9       RET  
0113F F0CC     IN   A,(CC)
01141 A7       AND  A
01142 2814     JR   Z,1158
01144 AF       XOR  A
01145 E0CC     OUT  (CC),A
01147 F0CB     IN   A,(CB)
01149 FE29     CP   29
0114B F0D0     IN   A,(D0)
0114D 2011     JR   NZ,1160
0114F B8       CP   B
01150 2808     JR   Z,115A
01152 3E02     LD   A,02
01154 E0CF     OUT  (CF),A
01156 E0CE     OUT  (CE),A
01158 E1       POP  HL
01159 C9       RET  
0115A 79       LD   A,C
0115B E0CF     OUT  (CF),A
0115D E0CE     OUT  (CE),A
0115F C9       RET  
01160 B9       CP   C
01161 C8       RET  Z
01162 78       LD   A,B
01163 E0CF     OUT  (CF),A
01165 E1       POP  HL
01166 C9       RET  
01167 CDB211   CALL 11B2
0116A 21E69C   LD   HL,9CE6
0116D 111B14   LD   DE,141B
01170 0607     LD   B,07
01172 CD3714   CALL 1437
01175 21E79C   LD   HL,9CE7
01178 112214   LD   DE,1422
0117B 0607     LD   B,07
0117D CD3714   CALL 1437
01180 21089D   LD   HL,9D08
01183 3672     LD   (HL),72
01185 2C       INC  L
01186 36C4     LD   (HL),C4
01188 21289D   LD   HL,9D28
0118B 36B7     LD   (HL),B7
0118D 2C       INC  L
0118E 36B8     LD   (HL),B8
01190 117127   LD   DE,2771
01193 2100C2   LD   HL,C200
01196 0E03     LD   C,03
01198 CD7617   CALL 1776
0119B 3E03     LD   A,03
0119D CD7326   CALL 2673
011A0 3EDB     LD   A,DB
011A2 E040     OUT  (40),A
011A4 3EBB     LD   A,BB
011A6 E0A6     OUT  (A6),A
011A8 3E27     LD   A,27
011AA E0E1     OUT  (E1),A
011AC 3E10     LD   A,10
011AE EAE8DF   LD   (DFE8),A
011B1 C9       RET  
011B2 CD2028   CALL 2820
011B5 21AC55   LD   HL,55AC
011B8 010010   LD   BC,1000
011BB CDE427   CALL 27E4
011BE 21FF9F   LD   HL,9FFF
011C1 CD9827   CALL 2798
011C4 21C09D   LD   HL,9DC0
011C7 11C451   LD   DE,51C4
011CA 0604     LD   B,04
011CC CDF027   CALL 27F0
011CF 21EC9C   LD   HL,9CEC
011D2 112914   LD   DE,1429
011D5 0607     LD   B,07
011D7 CD3714   CALL 1437
011DA 21ED9C   LD   HL,9CED
011DD 113014   LD   DE,1430
011E0 0607     LD   B,07
011E2 CD3714   CALL 1437
011E5 C9       RET  
011E6 F0A6     IN   A,(A6)
011E8 A7       AND  A
011E9 C0       RET  NZ
011EA 2110C2   LD   HL,C210
011ED 3600     LD   (HL),00
011EF 2E20     LD   L,20
011F1 3600     LD   (HL),00
011F3 3EFF     LD   A,FF
011F5 E0A6     OUT  (A6),A
011F7 3E28     LD   A,28
011F9 E0E1     OUT  (E1),A
011FB C9       RET  
011FC F0A6     IN   A,(A6)
011FE A7       AND  A
011FF 2804     JR   Z,1205
01201 CDFA13   CALL 13FA
01204 C9       RET  
01205 3E29     LD   A,29
01207 E0E1     OUT  (E1),A
01209 2113C2   LD   HL,C213
0120C 3635     LD   (HL),35
0120E 2E23     LD   L,23
01210 3635     LD   (HL),35
01212 3EFF     LD   A,FF
01214 E0A6     OUT  (A6),A
01216 3E2F     LD   A,2F
01218 CDD71F   CALL 1FD7
0121B C9       RET  
0121C F0A6     IN   A,(A6)
0121E A7       AND  A
0121F 2804     JR   Z,1225
01221 CDFA13   CALL 13FA
01224 C9       RET  
01225 3E02     LD   A,02
01227 E0E1     OUT  (E1),A
01229 21089D   LD   HL,9D08
0122C 062F     LD   B,2F
0122E CDFF19   CALL 19FF
01231 21099D   LD   HL,9D09
01234 CDFF19   CALL 19FF
01237 21289D   LD   HL,9D28
0123A CDFF19   CALL 19FF
0123D 21299D   LD   HL,9D29
01240 CDFF19   CALL 19FF
01243 C9       RET  
01244 F0A6     IN   A,(A6)
01246 A7       AND  A
01247 202E     JR   NZ,1277
01249 3E0A     LD   A,0A
0124B E0A6     OUT  (A6),A
0124D 2101C2   LD   HL,C201
01250 35       DEC  (HL)
01251 7E       LD   A,(HL)
01252 FE58     CP   58
01254 2021     JR   NZ,1277
01256 2110C2   LD   HL,C210
01259 3600     LD   (HL),00
0125B 2C       INC  L
0125C C620     ADD  A,20
0125E 22       HL++ (HL),A
0125F 364C     LD   (HL),4C
01261 2C       INC  L
01262 3640     LD   (HL),40
01264 2E20     LD   L,20
01266 3680     LD   (HL),80
01268 3E03     LD   A,03
0126A CD7326   CALL 2673
0126D 3E03     LD   A,03
0126F E0E1     OUT  (E1),A
01271 3E04     LD   A,04
01273 EAF8DF   LD   (DFF8),A
01276 C9       RET  
01277 CDFA13   CALL 13FA
0127A C9       RET  
0127B F0A6     IN   A,(A6)
0127D A7       AND  A
0127E 201D     JR   NZ,129D
01280 3E0A     LD   A,0A
01282 E0A6     OUT  (A6),A
01284 2111C2   LD   HL,C211
01287 35       DEC  (HL)
01288 2E01     LD   L,01
0128A 35       DEC  (HL)
0128B 7E       LD   A,(HL)
0128C FED0     CP   D0
0128E 200D     JR   NZ,129D
01290 3E9C     LD   A,9C
01292 E0C9     OUT  (C9),A
01294 3E82     LD   A,82
01296 E0CA     OUT  (CA),A
01298 3E2C     LD   A,2C
0129A E0E1     OUT  (E1),A
0129C C9       RET  
0129D F0A7     IN   A,(A7)
0129F A7       AND  A
012A0 200B     JR   NZ,12AD
012A2 3E06     LD   A,06
012A4 E0A7     OUT  (A7),A
012A6 2113C2   LD   HL,C213
012A9 7E       LD   A,(HL)
012AA EE01     XOR  01
012AC 77       LD   (HL),A
012AD 3E03     LD   A,03
012AF CD7326   CALL 2673
012B2 C9       RET  
012B3 F0A6     IN   A,(A6)
012B5 A7       AND  A
012B6 C0       RET  NZ
012B7 3E06     LD   A,06
012B9 E0A6     OUT  (A6),A
012BB F0CA     IN   A,(CA)
012BD D682     SUB  82
012BF 5F       LD   E,A
012C0 1600     LD   D,00
012C2 21F512   LD   HL,12F5
012C5 19       ADD  HL,DE
012C6 E5       PUSH HL
012C7 D1       POP  DE
012C8 F0C9     IN   A,(C9)
012CA 67       LD   H,A
012CB F0CA     IN   A,(CA)
012CD 6F       LD   L,A
012CE 1A       LD   A,(DE)
012CF CDFE19   CALL 19FE
012D2 E5       PUSH HL
012D3 112000   LD   DE,0020
012D6 19       ADD  HL,DE
012D7 06B6     LD   B,B6
012D9 CDFF19   CALL 19FF
012DC E1       POP  HL
012DD 23       INC  HL
012DE 3E02     LD   A,02
012E0 EAE0DF   LD   (DFE0),A
012E3 7C       LD   A,H
012E4 E0C9     OUT  (C9),A
012E6 7D       LD   A,L
012E7 E0CA     OUT  (CA),A
012E9 FE92     CP   92
012EB C0       RET  NZ
012EC 3EFF     LD   A,FF
012EE E0A6     OUT  (A6),A
012F0 3E2D     LD   A,2D
012F2 E0E1     OUT  (E1),A
012F4 C9       RET  
012F5 B3       OR   E
012F6 BC       CP   H
012F7 3D       DEC  A
012F8 BE       CP   (HL)
012F9 BB       CP   E
012FA B5       OR   L
012FB 1D       DEC  E
012FC B2       OR   D
012FD BD       CP   L
012FE B5       OR   L
012FF 1D       DEC  E
01300 2EBC     LD   L,BC
01302 3D       DEC  A
01303 0E3E     LD   C,3E
01305 F0A6     IN   A,(A6)
01307 A7       AND  A
01308 C0       RET  NZ
01309 CD2028   CALL 2820
0130C CDAD27   CALL 27AD
0130F CD9322   CALL 2293
01312 3E93     LD   A,93
01314 E040     OUT  (40),A
01316 3E05     LD   A,05
01318 E0E1     OUT  (E1),A
0131A C9       RET  
0131B F0A6     IN   A,(A6)
0131D A7       AND  A
0131E C0       RET  NZ
0131F 3E2E     LD   A,2E
01321 E0E1     OUT  (E1),A
01323 C9       RET  
01324 CDB211   CALL 11B2
01327 118327   LD   DE,2783
0132A 2100C2   LD   HL,C200
0132D 0E03     LD   C,03
0132F CD7617   CALL 1776
01332 F0F3     IN   A,(F3)
01334 EA03C2   LD   (C203),A
01337 3E03     LD   A,03
01339 CD7326   CALL 2673
0133C AF       XOR  A
0133D E0F3     OUT  (F3),A
0133F 3EDB     LD   A,DB
01341 E040     OUT  (40),A
01343 3EBB     LD   A,BB
01345 E0A6     OUT  (A6),A
01347 3E2F     LD   A,2F
01349 E0E1     OUT  (E1),A
0134B 3E10     LD   A,10
0134D EAE8DF   LD   (DFE8),A
01350 C9       RET  
01351 F0A6     IN   A,(A6)
01353 A7       AND  A
01354 C0       RET  NZ
01355 2110C2   LD   HL,C210
01358 3600     LD   (HL),00
0135A 2E20     LD   L,20
0135C 3600     LD   (HL),00
0135E 3EA0     LD   A,A0
01360 E0A6     OUT  (A6),A
01362 3E30     LD   A,30
01364 E0E1     OUT  (E1),A
01366 C9       RET  
01367 F0A6     IN   A,(A6)
01369 A7       AND  A
0136A 2804     JR   Z,1370
0136C CDFA13   CALL 13FA
0136F C9       RET  
01370 3E31     LD   A,31
01372 E0E1     OUT  (E1),A
01374 3E80     LD   A,80
01376 E0A6     OUT  (A6),A
01378 3E2F     LD   A,2F
0137A CDD71F   CALL 1FD7
0137D C9       RET  
0137E F0A6     IN   A,(A6)
01380 A7       AND  A
01381 202E     JR   NZ,13B1
01383 3E0A     LD   A,0A
01385 E0A6     OUT  (A6),A
01387 2101C2   LD   HL,C201
0138A 35       DEC  (HL)
0138B 7E       LD   A,(HL)
0138C FE6A     CP   6A
0138E 2021     JR   NZ,13B1
01390 2110C2   LD   HL,C210
01393 3600     LD   (HL),00
01395 2C       INC  L
01396 C610     ADD  A,10
01398 22       HL++ (HL),A
01399 3654     LD   (HL),54
0139B 2C       INC  L
0139C 365C     LD   (HL),5C
0139E 2E20     LD   L,20
013A0 3680     LD   (HL),80
013A2 3E03     LD   A,03
013A4 CD7326   CALL 2673
013A7 3E32     LD   A,32
013A9 E0E1     OUT  (E1),A
013AB 3E04     LD   A,04
013AD EAF8DF   LD   (DFF8),A
013B0 C9       RET  
013B1 CDFA13   CALL 13FA
013B4 C9       RET  
013B5 F0A6     IN   A,(A6)
013B7 A7       AND  A
013B8 2015     JR   NZ,13CF
013BA 3E0A     LD   A,0A
013BC E0A6     OUT  (A6),A
013BE 2111C2   LD   HL,C211
013C1 35       DEC  (HL)
013C2 2E01     LD   L,01
013C4 35       DEC  (HL)
013C5 7E       LD   A,(HL)
013C6 FEE0     CP   E0
013C8 2005     JR   NZ,13CF
013CA 3E33     LD   A,33
013CC E0E1     OUT  (E1),A
013CE C9       RET  
013CF F0A7     IN   A,(A7)
013D1 A7       AND  A
013D2 200B     JR   NZ,13DF
013D4 3E06     LD   A,06
013D6 E0A7     OUT  (A7),A
013D8 2113C2   LD   HL,C213
013DB 7E       LD   A,(HL)
013DC EE01     XOR  01
013DE 77       LD   (HL),A
013DF 3E03     LD   A,03
013E1 CD7326   CALL 2673
013E4 C9       RET  
013E5 CD2028   CALL 2820
013E8 CDAD27   CALL 27AD
013EB CDF37F   CALL 7FF3
013EE CD9322   CALL 2293
013F1 3E93     LD   A,93
013F3 E040     OUT  (40),A
013F5 3E10     LD   A,10
013F7 E0E1     OUT  (E1),A
013F9 C9       RET  
013FA F0A7     IN   A,(A7)
013FC A7       AND  A
013FD C0       RET  NZ
013FE 3E0A     LD   A,0A
01400 E0A7     OUT  (A7),A
01402 3E03     LD   A,03
01404 EAF8DF   LD   (DFF8),A
01407 0602     LD   B,02
01409 2110C2   LD   HL,C210
0140C 7E       LD   A,(HL)
0140D EE80     XOR  80
0140F 77       LD   (HL),A
01410 2E20     LD   L,20
01412 05       DEC  B
01413 20F7     JR   NZ,140C
01415 3E03     LD   A,03
01417 CD7326   CALL 2673
0141A C9       RET  
0141B C2CACA   JP   NZ,CACA
0141E CACACA   JP   Z,CACA
01421 CAC3CB   JP   Z,CBC3
01424 58       LD   E,B
01425 48       LD   C,B
01426 48       LD   C,B
01427 48       LD   C,B
01428 48       LD   C,B
01429 C8       RET  Z
0142A 73       LD   (HL),E
0142B 73       LD   (HL),E
0142C 73       LD   (HL),E
0142D 73       LD   (HL),E
0142E 73       LD   (HL),E
0142F 73       LD   (HL),E
01430 C9       RET  
01431 74       LD   (HL),H
01432 74       LD   (HL),H
01433 74       LD   (HL),H
01434 74       LD   (HL),H
01435 74       LD   (HL),H
01436 74       LD   (HL),H
01437 1A       LD   A,(DE)
01438 77       LD   (HL),A
01439 13       INC  DE
0143A D5       PUSH DE
0143B 112000   LD   DE,0020
0143E 19       ADD  HL,DE
0143F D1       POP  DE
01440 05       DEC  B
01441 20F4     JR   NZ,1437
01443 C9       RET  
01444 3E01     LD   A,01
01446 E0FF     OUT  (FF),A
01448 AF       XOR  A
01449 E001     OUT  (01),A
0144B E002     OUT  (02),A
0144D E00F     OUT  (0F),A
0144F CD2028   CALL 2820
01452 CDAD27   CALL 27AD
01455 11D74C   LD   DE,4CD7
01458 CDEB27   CALL 27EB
0145B CD8A17   CALL 178A
0145E 2100C2   LD   HL,C200
01461 11CF26   LD   DE,26CF
01464 0E02     LD   C,02
01466 CD7617   CALL 1776
01469 1101C2   LD   DE,C201
0146C CD8D14   CALL 148D
0146F F0C0     IN   A,(C0)
01471 1E12     LD   E,12
01473 12       LD   (DE),A
01474 13       INC  DE
01475 FE37     CP   37
01477 3E1C     LD   A,1C
01479 2802     JR   Z,147D
0147B 3E1D     LD   A,1D
0147D 12       LD   (DE),A
0147E CD7126   CALL 2671
01481 CD1715   CALL 1517
01484 3ED3     LD   A,D3
01486 E040     OUT  (40),A
01488 3E0E     LD   A,0E
0148A E0E1     OUT  (E1),A
0148C C9       RET  
0148D 3E01     LD   A,01
0148F EAE0DF   LD   (DFE0),A
01492 F0C1     IN   A,(C1)
01494 F5       PUSH AF
01495 D61C     SUB  1C
01497 87       ADD  A,A
01498 4F       LD   C,A
01499 0600     LD   B,00
0149B 21A814   LD   HL,14A8
0149E 09       ADD  HL,BC
0149F 2A       HL++ A,(HL)
014A0 12       LD   (DE),A
014A1 13       INC  DE
014A2 7E       LD   A,(HL)
014A3 12       LD   (DE),A
014A4 13       INC  DE
014A5 F1       POP  AF
014A6 12       LD   (DE),A
014A7 C9       RET  
014A8 70       LD   (HL),B
014A9 37       SCF  
014AA 70       LD   (HL),B
014AB 77       LD   (HL),A
014AC 80       ADD  A,B
014AD 37       SCF  
014AE 80       ADD  A,B
014AF 77       LD   (HL),A
014B0 1100C2   LD   DE,C200
014B3 CD6617   CALL 1766
014B6 21C1FF   LD   HL,FFC1
014B9 7E       LD   A,(HL)
014BA CB58     BIT  3,B
014BC C26315   JP   NZ,1563
014BF CB40     BIT  0,B
014C1 C26315   JP   NZ,1563
014C4 CB48     BIT  1,B
014C6 2041     JR   NZ,1509
014C8 1C       INC  E
014C9 CB60     BIT  4,B
014CB 2026     JR   NZ,14F3
014CD CB68     BIT  5,B
014CF 202D     JR   NZ,14FE
014D1 CB70     BIT  6,B
014D3 2016     JR   NZ,14EB
014D5 CB78     BIT  7,B
014D7 CA5F15   JP   Z,155F
014DA FE1E     CP   1E
014DC 3009     JR   NC,14E7
014DE C602     ADD  A,02
014E0 77       LD   (HL),A
014E1 CD8D14   CALL 148D
014E4 CD1715   CALL 1517
014E7 CD7126   CALL 2671
014EA C9       RET  
014EB FE1E     CP   1E
014ED 38F8     JR   C,14E7
014EF D602     SUB  02
014F1 18ED     JR   14E0
014F3 FE1D     CP   1D
014F5 28F0     JR   Z,14E7
014F7 FE1F     CP   1F
014F9 28EC     JR   Z,14E7
014FB 3C       INC  A
014FC 18E2     JR   14E0
014FE FE1C     CP   1C
01500 28E5     JR   Z,14E7
01502 FE1E     CP   1E
01504 28E1     JR   Z,14E7
01506 3D       DEC  A
01507 18D7     JR   14E0
01509 F5       PUSH AF
0150A F0C5     IN   A,(C5)
0150C A7       AND  A
0150D 2803     JR   Z,1512
0150F F1       POP  AF
01510 18B6     JR   14C8
01512 F1       POP  AF
01513 3E0E     LD   A,0E
01515 185B     JR   1572
01517 F0C1     IN   A,(C1)
01519 D617     SUB  17
0151B FE08     CP   08
0151D 2002     JR   NZ,1521
0151F 3EFF     LD   A,FF
01521 EAE8DF   LD   (DFE8),A
01524 C9       RET  
01525 1110C2   LD   DE,C210
01528 CD6617   CALL 1766
0152B 21C0FF   LD   HL,FFC0
0152E 7E       LD   A,(HL)
0152F CB58     BIT  3,B
01531 2030     JR   NZ,1563
01533 CB40     BIT  0,B
01535 2040     JR   NZ,1577
01537 1C       INC  E
01538 1C       INC  E
01539 CB60     BIT  4,B
0153B 200E     JR   NZ,154B
0153D CB68     BIT  5,B
0153F 281E     JR   Z,155F
01541 FE37     CP   37
01543 281A     JR   Z,155F
01545 3E37     LD   A,37
01547 061C     LD   B,1C
01549 1808     JR   1553
0154B FE77     CP   77
0154D 2810     JR   Z,155F
0154F 3E77     LD   A,77
01551 061D     LD   B,1D
01553 77       LD   (HL),A
01554 F5       PUSH AF
01555 3E01     LD   A,01
01557 EAE0DF   LD   (DFE0),A
0155A F1       POP  AF
0155B 12       LD   (DE),A
0155C 13       INC  DE
0155D 78       LD   A,B
0155E 12       LD   (DE),A
0155F CD7126   CALL 2671
01562 C9       RET  
01563 3E02     LD   A,02
01565 EAE0DF   LD   (DFE0),A
01568 F0C0     IN   A,(C0)
0156A FE37     CP   37
0156C 3E10     LD   A,10
0156E 2802     JR   Z,1572
01570 3E12     LD   A,12
01572 E0E1     OUT  (E1),A
01574 AF       XOR  A
01575 18E7     JR   155E
01577 3E0F     LD   A,0F
01579 18F7     JR   1572
0157B CD2028   CALL 2820
0157E 113F4E   LD   DE,4E3F
01581 CDEB27   CALL 27EB
01584 CDFC18   CALL 18FC
01587 CD8A17   CALL 178A
0158A 2100C2   LD   HL,C200
0158D 11DB26   LD   DE,26DB
01590 0E01     LD   C,01
01592 CD7617   CALL 1776
01595 1101C2   LD   DE,C201
01598 F0C2     IN   A,(C2)
0159A 211516   LD   HL,1615
0159D CD4E17   CALL 174E
015A0 CD7126   CALL 2671
015A3 CD9517   CALL 1795
015A6 CDCA18   CALL 18CA
015A9 3ED3     LD   A,D3
015AB E040     OUT  (40),A
015AD 3E11     LD   A,11
015AF E0E1     OUT  (E1),A
015B1 F0C7     IN   A,(C7)
015B3 A7       AND  A
015B4 2004     JR   NZ,15BA
015B6 CD1715   CALL 1517
015B9 C9       RET  
015BA 3E15     LD   A,15
015BC E0E1     OUT  (E1),A
015BE C9       RET  
015BF 1100C2   LD   DE,C200
015C2 CD6617   CALL 1766
015C5 21C2FF   LD   HL,FFC2
015C8 3E0A     LD   A,0A
015CA CB58     BIT  3,B
015CC 20EE     JR   NZ,15BC
015CE CB40     BIT  0,B
015D0 20EA     JR   NZ,15BC
015D2 3E08     LD   A,08
015D4 CB48     BIT  1,B
015D6 20E4     JR   NZ,15BC
015D8 7E       LD   A,(HL)
015D9 CB60     BIT  4,B
015DB 2014     JR   NZ,15F1
015DD CB68     BIT  5,B
015DF 2026     JR   NZ,1607
015E1 CB70     BIT  6,B
015E3 2028     JR   NZ,160D
015E5 CB78     BIT  7,B
015E7 281A     JR   Z,1603
015E9 FE05     CP   05
015EB 3016     JR   NC,1603
015ED C605     ADD  A,05
015EF 1805     JR   15F6
015F1 FE09     CP   09
015F3 280E     JR   Z,1603
015F5 3C       INC  A
015F6 77       LD   (HL),A
015F7 1101C2   LD   DE,C201
015FA 211516   LD   HL,1615
015FD CD4E17   CALL 174E
01600 CD9517   CALL 1795
01603 CD7126   CALL 2671
01606 C9       RET  
01607 A7       AND  A
01608 28F9     JR   Z,1603
0160A 3D       DEC  A
0160B 18E9     JR   15F6
0160D FE05     CP   05
0160F 38F2     JR   C,1603
01611 D605     SUB  05
01613 18E1     JR   15F6
01615 40       LD   B,B
01616 3040     JR   NC,1658
01618 40       LD   B,B
01619 40       LD   B,B
0161A 50       LD   D,B
0161B 40       LD   B,B
0161C 60       LD   H,B
0161D 40       LD   B,B
0161E 70       LD   (HL),B
0161F 50       LD   D,B
01620 3050     JR   NC,1672
01622 40       LD   B,B
01623 50       LD   D,B
01624 50       LD   D,B
01625 50       LD   D,B
01626 60       LD   H,B
01627 50       LD   D,B
01628 70       LD   (HL),B
01629 CD2028   CALL 2820
0162C 11A74F   LD   DE,4FA7
0162F CDEB27   CALL 27EB
01632 CD8A17   CALL 178A
01635 2100C2   LD   HL,C200
01638 11E126   LD   DE,26E1
0163B 0E02     LD   C,02
0163D CD7617   CALL 1776
01640 1101C2   LD   DE,C201
01643 F0C3     IN   A,(C3)
01645 21D216   LD   HL,16D2
01648 CD4E17   CALL 174E
0164B 1111C2   LD   DE,C211
0164E F0C4     IN   A,(C4)
01650 214117   LD   HL,1741
01653 CD4E17   CALL 174E
01656 CD7126   CALL 2671
01659 CDAF17   CALL 17AF
0165C CDCA18   CALL 18CA
0165F 3ED3     LD   A,D3
01661 E040     OUT  (40),A
01663 3E13     LD   A,13
01665 E0E1     OUT  (E1),A
01667 F0C7     IN   A,(C7)
01669 A7       AND  A
0166A 2004     JR   NZ,1670
0166C CD1715   CALL 1517
0166F C9       RET  
01670 3E15     LD   A,15
01672 E0E1     OUT  (E1),A
01674 C9       RET  
01675 E0E1     OUT  (E1),A
01677 AF       XOR  A
01678 12       LD   (DE),A
01679 C9       RET  
0167A 1100C2   LD   DE,C200
0167D CD6617   CALL 1766
01680 21C3FF   LD   HL,FFC3
01683 3E0A     LD   A,0A
01685 CB58     BIT  3,B
01687 20EC     JR   NZ,1675
01689 3E14     LD   A,14
0168B CB40     BIT  0,B
0168D 20E6     JR   NZ,1675
0168F 3E08     LD   A,08
01691 CB48     BIT  1,B
01693 20E0     JR   NZ,1675
01695 7E       LD   A,(HL)
01696 CB60     BIT  4,B
01698 2014     JR   NZ,16AE
0169A CB68     BIT  5,B
0169C 2026     JR   NZ,16C4
0169E CB70     BIT  6,B
016A0 2028     JR   NZ,16CA
016A2 CB78     BIT  7,B
016A4 281A     JR   Z,16C0
016A6 FE05     CP   05
016A8 3016     JR   NC,16C0
016AA C605     ADD  A,05
016AC 1805     JR   16B3
016AE FE09     CP   09
016B0 280E     JR   Z,16C0
016B2 3C       INC  A
016B3 77       LD   (HL),A
016B4 1101C2   LD   DE,C201
016B7 21D216   LD   HL,16D2
016BA CD4E17   CALL 174E
016BD CDAF17   CALL 17AF
016C0 CD7126   CALL 2671
016C3 C9       RET  
016C4 A7       AND  A
016C5 28F9     JR   Z,16C0
016C7 3D       DEC  A
016C8 18E9     JR   16B3
016CA FE05     CP   05
016CC 38F2     JR   C,16C0
016CE D605     SUB  05
016D0 18E1     JR   16B3
016D2 40       LD   B,B
016D3 1840     JR   1715
016D5 2840     JR   Z,1717
016D7 3840     JR   C,1719
016D9 48       LD   C,B
016DA 40       LD   B,B
016DB 58       LD   E,B
016DC 50       LD   D,B
016DD 1850     JR   172F
016DF 2850     JR   Z,1731
016E1 3850     JR   C,1733
016E3 48       LD   C,B
016E4 50       LD   D,B
016E5 58       LD   E,B
016E6 E0E1     OUT  (E1),A
016E8 AF       XOR  A
016E9 12       LD   (DE),A
016EA C9       RET  
016EB 1110C2   LD   DE,C210
016EE CD6617   CALL 1766
016F1 21C4FF   LD   HL,FFC4
016F4 3E0A     LD   A,0A
016F6 CB58     BIT  3,B
016F8 20EC     JR   NZ,16E6
016FA CB40     BIT  0,B
016FC 20E8     JR   NZ,16E6
016FE 3E13     LD   A,13
01700 CB48     BIT  1,B
01702 20E2     JR   NZ,16E6
01704 7E       LD   A,(HL)
01705 CB60     BIT  4,B
01707 2014     JR   NZ,171D
01709 CB68     BIT  5,B
0170B 2026     JR   NZ,1733
0170D CB70     BIT  6,B
0170F 2028     JR   NZ,1739
01711 CB78     BIT  7,B
01713 281A     JR   Z,172F
01715 FE03     CP   03
01717 3016     JR   NC,172F
01719 C603     ADD  A,03
0171B 1805     JR   1722
0171D FE05     CP   05
0171F 280E     JR   Z,172F
01721 3C       INC  A
01722 77       LD   (HL),A
01723 1111C2   LD   DE,C211
01726 214117   LD   HL,1741
01729 CD4E17   CALL 174E
0172C CDAF17   CALL 17AF
0172F CD7126   CALL 2671
01732 C9       RET  
01733 A7       AND  A
01734 28F9     JR   Z,172F
01736 3D       DEC  A
01737 18E9     JR   1722
01739 FE03     CP   03
0173B 38F2     JR   C,172F
0173D D603     SUB  03
0173F 18E1     JR   1722
01741 40       LD   B,B
01742 70       LD   (HL),B
01743 40       LD   B,B
01744 80       ADD  A,B
01745 40       LD   B,B
01746 90       SUB  B
01747 50       LD   D,B
01748 70       LD   (HL),B
01749 50       LD   D,B
0174A 80       ADD  A,B
0174B 50       LD   D,B
0174C 90       SUB  B
0174D 00       NOP  
0174E F5       PUSH AF
0174F 3E01     LD   A,01
01751 EAE0DF   LD   (DFE0),A
01754 F1       POP  AF
01755 F5       PUSH AF
01756 87       ADD  A,A
01757 4F       LD   C,A
01758 0600     LD   B,00
0175A 09       ADD  HL,BC
0175B 2A       HL++ A,(HL)
0175C 12       LD   (DE),A
0175D 13       INC  DE
0175E 7E       LD   A,(HL)
0175F 12       LD   (DE),A
01760 13       INC  DE
01761 F1       POP  AF
01762 C620     ADD  A,20
01764 12       LD   (DE),A
01765 C9       RET  
01766 F081     IN   A,(81)
01768 47       LD   B,A
01769 F0A6     IN   A,(A6)
0176B A7       AND  A
0176C C0       RET  NZ
0176D 3E10     LD   A,10
0176F E0A6     OUT  (A6),A
01771 1A       LD   A,(DE)
01772 EE80     XOR  80
01774 12       LD   (DE),A
01775 C9       RET  
01776 E5       PUSH HL
01777 0606     LD   B,06
01779 1A       LD   A,(DE)
0177A 22       HL++ (HL),A
0177B 13       INC  DE
0177C 05       DEC  B
0177D 20FA     JR   NZ,1779
0177F E1       POP  HL
01780 3E10     LD   A,10
01782 85       ADD  A,L
01783 6F       LD   L,A
01784 0D       DEC  C
01785 20EF     JR   NZ,1776
01787 3680     LD   (HL),80
01789 C9       RET  
0178A AF       XOR  A
0178B 2100C0   LD   HL,C000
0178E 06A0     LD   B,A0
01790 22       HL++ (HL),A
01791 05       DEC  B
01792 20FC     JR   NZ,1790
01794 C9       RET  
01795 CDFC18   CALL 18FC
01798 F0C2     IN   A,(C2)
0179A 2154D6   LD   HL,D654
0179D 111B00   LD   DE,001B
017A0 A7       AND  A
017A1 2804     JR   Z,17A7
017A3 3D       DEC  A
017A4 19       ADD  HL,DE
017A5 18F9     JR   17A0
017A7 23       INC  HL
017A8 23       INC  HL
017A9 E5       PUSH HL
017AA D1       POP  DE
017AB CD0018   CALL 1800
017AE C9       RET  
017AF CDFC18   CALL 18FC
017B2 F0C3     IN   A,(C3)
017B4 2100D0   LD   HL,D000
017B7 11A200   LD   DE,00A2
017BA A7       AND  A
017BB 2804     JR   Z,17C1
017BD 3D       DEC  A
017BE 19       ADD  HL,DE
017BF 18F9     JR   17BA
017C1 F0C4     IN   A,(C4)
017C3 111B00   LD   DE,001B
017C6 A7       AND  A
017C7 2804     JR   Z,17CD
017C9 3D       DEC  A
017CA 19       ADD  HL,DE
017CB 18F9     JR   17C6
017CD 23       INC  HL
017CE 23       INC  HL
017CF E5       PUSH HL
017D0 D1       POP  DE
017D1 CD0018   CALL 1800
017D4 C9       RET  
017D5 0603     LD   B,03
017D7 7E       LD   A,(HL)
017D8 E6F0     AND  F0
017DA 200B     JR   NZ,17E7
017DC 1C       INC  E
017DD 3A       HL-- A,(HL)
017DE E60F     AND  0F
017E0 200F     JR   NZ,17F1
017E2 1C       INC  E
017E3 05       DEC  B
017E4 20F1     JR   NZ,17D7
017E6 C9       RET  
017E7 7E       LD   A,(HL)
017E8 E6F0     AND  F0
017EA CB37     RDX  A
017EC 12       LD   (DE),A
017ED 1C       INC  E
017EE 3A       HL-- A,(HL)
017EF E60F     AND  0F
017F1 12       LD   (DE),A
017F2 1C       INC  E
017F3 05       DEC  B
017F4 20F1     JR   NZ,17E7
017F6 C9       RET  
017F7 0603     LD   B,03
017F9 3A       HL-- A,(HL)
017FA 12       LD   (DE),A
017FB 1B       DEC  DE
017FC 05       DEC  B
017FD 20FA     JR   NZ,17F9
017FF C9       RET  
01800 7A       LD   A,D
01801 E0FB     OUT  (FB),A
01803 7B       LD   A,E
01804 E0FC     OUT  (FC),A
01806 0E03     LD   C,03
01808 21A2C0   LD   HL,C0A2
0180B D5       PUSH DE
0180C 0603     LD   B,03
0180E 1A       LD   A,(DE)
0180F 96       SUB  (HL)
01810 3810     JR   C,1822
01812 2005     JR   NZ,1819
01814 2D       DEC  L
01815 1B       DEC  DE
01816 05       DEC  B
01817 20F5     JR   NZ,180E
01819 D1       POP  DE
0181A 13       INC  DE
0181B 13       INC  DE
0181C 13       INC  DE
0181D 0D       DEC  C
0181E 20E8     JR   NZ,1808
01820 185E     JR   1880
01822 D1       POP  DE
01823 F0FB     IN   A,(FB)
01825 57       LD   D,A
01826 F0FC     IN   A,(FC)
01828 5F       LD   E,A
01829 D5       PUSH DE
0182A C5       PUSH BC
0182B 210600   LD   HL,0006
0182E 19       ADD  HL,DE
0182F E5       PUSH HL
01830 D1       POP  DE
01831 2B       DEC  HL
01832 2B       DEC  HL
01833 2B       DEC  HL
01834 0D       DEC  C
01835 2805     JR   Z,183C
01837 CDF717   CALL 17F7
0183A 18F8     JR   1834
0183C 21A2C0   LD   HL,C0A2
0183F 0603     LD   B,03
01841 3A       HL-- A,(HL)
01842 12       LD   (DE),A
01843 1D       DEC  E
01844 05       DEC  B
01845 20FA     JR   NZ,1841
01847 C1       POP  BC
01848 D1       POP  DE
01849 79       LD   A,C
0184A E0C8     OUT  (C8),A
0184C 211200   LD   HL,0012
0184F 19       ADD  HL,DE
01850 E5       PUSH HL
01851 110600   LD   DE,0006
01854 19       ADD  HL,DE
01855 E5       PUSH HL
01856 D1       POP  DE
01857 E1       POP  HL
01858 0D       DEC  C
01859 2807     JR   Z,1862
0185B 0606     LD   B,06
0185D CDF917   CALL 17F9
01860 18F6     JR   1858
01862 3E60     LD   A,60
01864 0605     LD   B,05
01866 12       LD   (DE),A
01867 1B       DEC  DE
01868 05       DEC  B
01869 20FB     JR   NZ,1866
0186B 3E0A     LD   A,0A
0186D 12       LD   (DE),A
0186E 7A       LD   A,D
0186F E0C9     OUT  (C9),A
01871 7B       LD   A,E
01872 E0CA     OUT  (CA),A
01874 AF       XOR  A
01875 E09C     OUT  (9C),A
01877 E0C6     OUT  (C6),A
01879 3E01     LD   A,01
0187B EAE8DF   LD   (DFE8),A
0187E E0C7     OUT  (C7),A
01880 11ACC9   LD   DE,C9AC
01883 F0FB     IN   A,(FB)
01885 67       LD   H,A
01886 F0FC     IN   A,(FC)
01888 6F       LD   L,A
01889 0603     LD   B,03
0188B E5       PUSH HL
0188C D5       PUSH DE
0188D C5       PUSH BC
0188E CDD517   CALL 17D5
01891 C1       POP  BC
01892 D1       POP  DE
01893 212000   LD   HL,0020
01896 19       ADD  HL,DE
01897 E5       PUSH HL
01898 D1       POP  DE
01899 E1       POP  HL
0189A D5       PUSH DE
0189B 110300   LD   DE,0003
0189E 19       ADD  HL,DE
0189F D1       POP  DE
018A0 05       DEC  B
018A1 20E8     JR   NZ,188B
018A3 2B       DEC  HL
018A4 2B       DEC  HL
018A5 0603     LD   B,03
018A7 11A4C9   LD   DE,C9A4
018AA D5       PUSH DE
018AB 0E06     LD   C,06
018AD 2A       HL++ A,(HL)
018AE A7       AND  A
018AF 2805     JR   Z,18B6
018B1 12       LD   (DE),A
018B2 13       INC  DE
018B3 0D       DEC  C
018B4 20F7     JR   NZ,18AD
018B6 D1       POP  DE
018B7 E5       PUSH HL
018B8 212000   LD   HL,0020
018BB 19       ADD  HL,DE
018BC E5       PUSH HL
018BD D1       POP  DE
018BE E1       POP  HL
018BF 05       DEC  B
018C0 20E8     JR   NZ,18AA
018C2 CD5126   CALL 2651
018C5 3E01     LD   A,01
018C7 E0E8     OUT  (E8),A
018C9 C9       RET  
018CA F0E8     IN   A,(E8)
018CC A7       AND  A
018CD C8       RET  Z
018CE 21A499   LD   HL,99A4
018D1 11A4C9   LD   DE,C9A4
018D4 0E06     LD   C,06
018D6 E5       PUSH HL
018D7 0606     LD   B,06
018D9 1A       LD   A,(DE)
018DA 22       HL++ (HL),A
018DB 1C       INC  E
018DC 05       DEC  B
018DD 20FA     JR   NZ,18D9
018DF 1C       INC  E
018E0 2C       INC  L
018E1 1C       INC  E
018E2 2C       INC  L
018E3 0D       DEC  C
018E4 2811     JR   Z,18F7
018E6 CB41     BIT  0,C
018E8 20ED     JR   NZ,18D7
018EA E1       POP  HL
018EB 112000   LD   DE,0020
018EE 19       ADD  HL,DE
018EF E5       PUSH HL
018F0 D1       POP  DE
018F1 3E30     LD   A,30
018F3 82       ADD  A,D
018F4 57       LD   D,A
018F5 18DF     JR   18D6
018F7 E1       POP  HL
018F8 AF       XOR  A
018F9 E0E8     OUT  (E8),A
018FB C9       RET  
018FC 21A4C9   LD   HL,C9A4
018FF 112000   LD   DE,0020
01902 3E60     LD   A,60
01904 0E03     LD   C,03
01906 060E     LD   B,0E
01908 E5       PUSH HL
01909 22       HL++ (HL),A
0190A 05       DEC  B
0190B 20FC     JR   NZ,1909
0190D E1       POP  HL
0190E 19       ADD  HL,DE
0190F 0D       DEC  C
01910 20F4     JR   NZ,1906
01912 C9       RET  
01913 F0C8     IN   A,(C8)
01915 21E499   LD   HL,99E4
01918 11E0FF   LD   DE,FFE0
0191B 3D       DEC  A
0191C 2803     JR   Z,1921
0191E 19       ADD  HL,DE
0191F 18FA     JR   191B
01921 F0C6     IN   A,(C6)
01923 5F       LD   E,A
01924 1600     LD   D,00
01926 19       ADD  HL,DE
01927 F0C9     IN   A,(C9)
01929 57       LD   D,A
0192A F0CA     IN   A,(CA)
0192C 5F       LD   E,A
0192D F0A6     IN   A,(A6)
0192F A7       AND  A
01930 2012     JR   NZ,1944
01932 3E07     LD   A,07
01934 E0A6     OUT  (A6),A
01936 F09C     IN   A,(9C)
01938 EE01     XOR  01
0193A E09C     OUT  (9C),A
0193C 1A       LD   A,(DE)
0193D 2802     JR   Z,1941
0193F 3E2F     LD   A,2F
01941 CDFE19   CALL 19FE
01944 F081     IN   A,(81)
01946 47       LD   B,A
01947 F080     IN   A,(80)
01949 4F       LD   C,A
0194A 3E17     LD   A,17
0194C CB70     BIT  6,B
0194E 2037     JR   NZ,1987
01950 CB71     BIT  6,C
01952 202B     JR   NZ,197F
01954 CB78     BIT  7,B
01956 2058     JR   NZ,19B0
01958 CB79     BIT  7,C
0195A 204C     JR   NZ,19A8
0195C CB40     BIT  0,B
0195E 206C     JR   NZ,19CC
01960 CB48     BIT  1,B
01962 C2EE19   JP   NZ,19EE
01965 CB58     BIT  3,B
01967 C8       RET  Z
01968 1A       LD   A,(DE)
01969 CDFE19   CALL 19FE
0196C CD1715   CALL 1517
0196F AF       XOR  A
01970 E0C7     OUT  (C7),A
01972 F0C0     IN   A,(C0)
01974 FE37     CP   37
01976 3E11     LD   A,11
01978 2802     JR   Z,197C
0197A 3E13     LD   A,13
0197C E0E1     OUT  (E1),A
0197E C9       RET  
0197F F0AA     IN   A,(AA)
01981 3D       DEC  A
01982 E0AA     OUT  (AA),A
01984 C0       RET  NZ
01985 3E09     LD   A,09
01987 E0AA     OUT  (AA),A
01989 0626     LD   B,26
0198B F0F4     IN   A,(F4)
0198D A7       AND  A
0198E 2802     JR   Z,1992
01990 0627     LD   B,27
01992 1A       LD   A,(DE)
01993 B8       CP   B
01994 200A     JR   NZ,19A0
01996 3E2E     LD   A,2E
01998 3C       INC  A
01999 12       LD   (DE),A
0199A 3E01     LD   A,01
0199C EAE0DF   LD   (DFE0),A
0199F C9       RET  
019A0 FE2F     CP   2F
019A2 20F4     JR   NZ,1998
019A4 3E0A     LD   A,0A
019A6 18F1     JR   1999
019A8 F0AA     IN   A,(AA)
019AA 3D       DEC  A
019AB E0AA     OUT  (AA),A
019AD C0       RET  NZ
019AE 3E09     LD   A,09
019B0 E0AA     OUT  (AA),A
019B2 0626     LD   B,26
019B4 F0F4     IN   A,(F4)
019B6 A7       AND  A
019B7 2802     JR   Z,19BB
019B9 0627     LD   B,27
019BB 1A       LD   A,(DE)
019BC FE0A     CP   0A
019BE 2005     JR   NZ,19C5
019C0 3E30     LD   A,30
019C2 3D       DEC  A
019C3 18D4     JR   1999
019C5 FE2F     CP   2F
019C7 20F9     JR   NZ,19C2
019C9 78       LD   A,B
019CA 18CD     JR   1999
019CC 1A       LD   A,(DE)
019CD CDFE19   CALL 19FE
019D0 3E02     LD   A,02
019D2 EAE0DF   LD   (DFE0),A
019D5 F0C6     IN   A,(C6)
019D7 3C       INC  A
019D8 FE06     CP   06
019DA 288C     JR   Z,1968
019DC E0C6     OUT  (C6),A
019DE 13       INC  DE
019DF 1A       LD   A,(DE)
019E0 FE60     CP   60
019E2 2003     JR   NZ,19E7
019E4 3E0A     LD   A,0A
019E6 12       LD   (DE),A
019E7 7A       LD   A,D
019E8 E0C9     OUT  (C9),A
019EA 7B       LD   A,E
019EB E0CA     OUT  (CA),A
019ED C9       RET  
019EE F0C6     IN   A,(C6)
019F0 A7       AND  A
019F1 C8       RET  Z
019F2 1A       LD   A,(DE)
019F3 CDFE19   CALL 19FE
019F6 F0C6     IN   A,(C6)
019F8 3D       DEC  A
019F9 E0C6     OUT  (C6),A
019FB 1B       DEC  DE
019FC 18E9     JR   19E7
019FE 47       LD   B,A
019FF F041     IN   A,(41)
01A01 E603     AND  03
01A03 20FA     JR   NZ,19FF
01A05 70       LD   (HL),B
01A06 C9       RET  
01A07 CD2028   CALL 2820
01A0A AF       XOR  A
01A0B EA10C2   LD   (C210),A
01A0E E098     OUT  (98),A
01A10 E09C     OUT  (9C),A
01A12 E09B     OUT  (9B),A
01A14 E0FB     OUT  (FB),A
01A16 E09F     OUT  (9F),A
01A18 3E2F     LD   A,2F
01A1A CDD71F   CALL 1FD7
01A1D CDF21F   CALL 1FF2
01A20 CD5126   CALL 2651
01A23 AF       XOR  A
01A24 E0E3     OUT  (E3),A
01A26 CD8A17   CALL 178A
01A29 F0C0     IN   A,(C0)
01A2B 11F73F   LD   DE,3FF7
01A2E 21C3FF   LD   HL,FFC3
01A31 FE77     CP   77
01A33 3E50     LD   A,50
01A35 2808     JR   Z,1A3F
01A37 3EF1     LD   A,F1
01A39 21C2FF   LD   HL,FFC2
01A3C 118F3E   LD   DE,3E8F
01A3F D5       PUSH DE
01A40 E0E6     OUT  (E6),A
01A42 7E       LD   A,(HL)
01A43 E0A9     OUT  (A9),A
01A45 CDEB27   CALL 27EB
01A48 D1       POP  DE
01A49 21009C   LD   HL,9C00
01A4C CDEE27   CALL 27EE
01A4F 113928   LD   DE,2839
01A52 21639C   LD   HL,9C63
01A55 0E0A     LD   C,0A
01A57 CD7D1F   CALL 1F7D
01A5A 2698     LD   H,98
01A5C F0E6     IN   A,(E6)
01A5E 6F       LD   L,A
01A5F F0A9     IN   A,(A9)
01A61 77       LD   (HL),A
01A62 269C     LD   H,9C
01A64 77       LD   (HL),A
01A65 F0F4     IN   A,(F4)
01A67 A7       AND  A
01A68 2807     JR   Z,1A71
01A6A 23       INC  HL
01A6B 3627     LD   (HL),27
01A6D 2698     LD   H,98
01A6F 3627     LD   (HL),27
01A71 2100C2   LD   HL,C200
01A74 11BF26   LD   DE,26BF
01A77 CDB626   CALL 26B6
01A7A 2110C2   LD   HL,C210
01A7D 11C726   LD   DE,26C7
01A80 CDB626   CALL 26B6
01A83 215199   LD   HL,9951
01A86 F0C0     IN   A,(C0)
01A88 FE77     CP   77
01A8A 3E25     LD   A,25
01A8C 2801     JR   Z,1A8F
01A8E AF       XOR  A
01A8F E09E     OUT  (9E),A
01A91 E60F     AND  0F
01A93 32       HL-- (HL),A
01A94 2802     JR   Z,1A98
01A96 3602     LD   (HL),02
01A98 CDE81A   CALL 1AE8
01A9B FADEC0   LD   A,(C0DE)
01A9E A7       AND  A
01A9F 2805     JR   Z,1AA6
01AA1 3E80     LD   A,80
01AA3 EA10C2   LD   (C210),A
01AA6 CD0720   CALL 2007
01AA9 CD0720   CALL 2007
01AAC CD0720   CALL 2007
01AAF CD8326   CALL 2683
01AB2 AF       XOR  A
01AB3 E0A0     OUT  (A0),A
01AB5 F0C0     IN   A,(C0)
01AB7 FE77     CP   77
01AB9 2025     JR   NZ,1AE0
01ABB 3E34     LD   A,34
01ABD E099     OUT  (99),A
01ABF F0C4     IN   A,(C4)
01AC1 21B098   LD   HL,98B0
01AC4 77       LD   (HL),A
01AC5 269C     LD   H,9C
01AC7 77       LD   (HL),A
01AC8 A7       AND  A
01AC9 2815     JR   Z,1AE0
01ACB 47       LD   B,A
01ACC F0E4     IN   A,(E4)
01ACE A7       AND  A
01ACF 2805     JR   Z,1AD6
01AD1 CD1B1B   CALL 1B1B
01AD4 180A     JR   1AE0
01AD6 78       LD   A,B
01AD7 11C0FF   LD   DE,FFC0
01ADA 21029A   LD   HL,9A02
01ADD CD681B   CALL 1B68
01AE0 3ED3     LD   A,D3
01AE2 E040     OUT  (40),A
01AE4 AF       XOR  A
01AE5 E0E1     OUT  (E1),A
01AE7 C9       RET  
01AE8 F0A9     IN   A,(A9)
01AEA 5F       LD   E,A
01AEB F0F4     IN   A,(F4)
01AED A7       AND  A
01AEE 280A     JR   Z,1AFA
01AF0 3E0A     LD   A,0A
01AF2 83       ADD  A,E
01AF3 FE15     CP   15
01AF5 3802     JR   C,1AF9
01AF7 3E14     LD   A,14
01AF9 5F       LD   E,A
01AFA 21061B   LD   HL,1B06
01AFD 1600     LD   D,00
01AFF 19       ADD  HL,DE
01B00 7E       LD   A,(HL)
01B01 E099     OUT  (99),A
01B03 E09A     OUT  (9A),A
01B05 C9       RET  
01B06 34       INC  (HL)
01B07 302C     JR   NC,1B35
01B09 2824     JR   Z,1B2F
01B0B 201B     JR   NZ,1B28
01B0D 15       DEC  D
01B0E 100A     DJNZ 1B1A
01B10 09       ADD  HL,BC
01B11 08       EX   AF,AF
01B12 07       RLCA 
01B13 0605     LD   B,05
01B15 05       DEC  B
01B16 04       INC  B
01B17 04       INC  B
01B18 03       INC  BC
01B19 03       INC  BC
01B1A 02       LD   (BC),A
01B1B 21C299   LD   HL,99C2
01B1E 11401B   LD   DE,1B40
01B21 0E04     LD   C,04
01B23 060A     LD   B,0A
01B25 E5       PUSH HL
01B26 1A       LD   A,(DE)
01B27 77       LD   (HL),A
01B28 E5       PUSH HL
01B29 7C       LD   A,H
01B2A C630     ADD  A,30
01B2C 67       LD   H,A
01B2D 1A       LD   A,(DE)
01B2E 77       LD   (HL),A
01B2F E1       POP  HL
01B30 2C       INC  L
01B31 13       INC  DE
01B32 05       DEC  B
01B33 20F1     JR   NZ,1B26
01B35 E1       POP  HL
01B36 D5       PUSH DE
01B37 112000   LD   DE,0020
01B3A 19       ADD  HL,DE
01B3B D1       POP  DE
01B3C 0D       DEC  C
01B3D 20E4     JR   NZ,1B23
01B3F C9       RET  
01B40 85       ADD  A,L
01B41 2F       CPL  
01B42 82       ADD  A,D
01B43 86       ADD  A,(HL)
01B44 83       ADD  A,E
01B45 2F       CPL  
01B46 2F       CPL  
01B47 80       ADD  A,B
01B48 82       ADD  A,D
01B49 85       ADD  A,L
01B4A 2F       CPL  
01B4B 82       ADD  A,D
01B4C 84       ADD  A,H
01B4D 82       ADD  A,D
01B4E 83       ADD  A,E
01B4F 2F       CPL  
01B50 83       ADD  A,E
01B51 2F       CPL  
01B52 87       ADD  A,A
01B53 2F       CPL  
01B54 2F       CPL  
01B55 85       ADD  A,L
01B56 2F       CPL  
01B57 83       ADD  A,E
01B58 2F       CPL  
01B59 86       ADD  A,(HL)
01B5A 82       ADD  A,D
01B5B 80       ADD  A,B
01B5C 81       ADD  A,C
01B5D 2F       CPL  
01B5E 83       ADD  A,E
01B5F 2F       CPL  
01B60 86       ADD  A,(HL)
01B61 83       ADD  A,E
01B62 2F       CPL  
01B63 85       ADD  A,L
01B64 2F       CPL  
01B65 85       ADD  A,L
01B66 2F       CPL  
01B67 2F       CPL  
01B68 47       LD   B,A
01B69 05       DEC  B
01B6A 2803     JR   Z,1B6F
01B6C 19       ADD  HL,DE
01B6D 18FA     JR   1B69
01B6F F004     IN   A,(04)
01B71 47       LD   B,A
01B72 3E80     LD   A,80
01B74 05       DEC  B
01B75 2808     JR   Z,1B7F
01B77 FE80     CP   80
01B79 20F7     JR   NZ,1B72
01B7B 3E2F     LD   A,2F
01B7D 18F5     JR   1B74
01B7F FE2F     CP   2F
01B81 2808     JR   Z,1B8B
01B83 F004     IN   A,(04)
01B85 E607     AND  07
01B87 F680     OR   80
01B89 1802     JR   1B8D
01B8B E0A0     OUT  (A0),A
01B8D F5       PUSH AF
01B8E 7D       LD   A,L
01B8F E60F     AND  0F
01B91 FE0B     CP   0B
01B93 200B     JR   NZ,1BA0
01B95 F0A0     IN   A,(A0)
01B97 FE2F     CP   2F
01B99 2805     JR   Z,1BA0
01B9B F1       POP  AF
01B9C 3E2F     LD   A,2F
01B9E 1801     JR   1BA1
01BA0 F1       POP  AF
01BA1 77       LD   (HL),A
01BA2 E5       PUSH HL
01BA3 F5       PUSH AF
01BA4 F0C5     IN   A,(C5)
01BA6 A7       AND  A
01BA7 2004     JR   NZ,1BAD
01BA9 110030   LD   DE,3000
01BAC 19       ADD  HL,DE
01BAD F1       POP  AF
01BAE 77       LD   (HL),A
01BAF E1       POP  HL
01BB0 23       INC  HL
01BB1 7D       LD   A,L
01BB2 E60F     AND  0F
01BB4 FE0C     CP   0C
01BB6 20B7     JR   NZ,1B6F
01BB8 AF       XOR  A
01BB9 E0A0     OUT  (A0),A
01BBB 7C       LD   A,H
01BBC E60F     AND  0F
01BBE FE0A     CP   0A
01BC0 2806     JR   Z,1BC8
01BC2 111600   LD   DE,0016
01BC5 19       ADD  HL,DE
01BC6 18A7     JR   1B6F
01BC8 7D       LD   A,L
01BC9 FE2C     CP   2C
01BCB 20F5     JR   NZ,1BC2
01BCD C9       RET  
01BCE CD0D1C   CALL 1C0D
01BD1 F0AB     IN   A,(AB)
01BD3 A7       AND  A
01BD4 C0       RET  NZ
01BD5 CD0C05   CALL 050C
01BD8 CD4205   CALL 0542
01BDB CD8305   CALL 0583
01BDE CDBB24   CALL 24BB
01BE1 CD9C20   CALL 209C
01BE4 CD3E21   CALL 213E
01BE7 CDA125   CALL 25A1
01BEA CD4D22   CALL 224D
01BED CD911F   CALL 1F91
01BF0 CDB305   CALL 05B3
01BF3 C9       RET  
01BF4 CB57     BIT  2,A
01BF6 C8       RET  Z
01BF7 FADEC0   LD   A,(C0DE)
01BFA EE01     XOR  01
01BFC EADEC0   LD   (C0DE),A
01BFF 2809     JR   Z,1C0A
01C01 3E80     LD   A,80
01C03 EA10C2   LD   (C210),A
01C06 CD9626   CALL 2696
01C09 C9       RET  
01C0A AF       XOR  A
01C0B 18F6     JR   1C03
01C0D F080     IN   A,(80)
01C0F E60F     AND  0F
01C11 FE0F     CP   0F
01C13 CA1B02   JP   Z,021B
01C16 F0E4     IN   A,(E4)
01C18 A7       AND  A
01C19 C0       RET  NZ
01C1A F081     IN   A,(81)
01C1C CB5F     BIT  3,A
01C1E 28D4     JR   Z,1BF4
01C20 F0C5     IN   A,(C5)
01C22 A7       AND  A
01C23 2045     JR   NZ,1C6A
01C25 2140FF   LD   HL,FF40
01C28 F0AB     IN   A,(AB)
01C2A EE01     XOR  01
01C2C E0AB     OUT  (AB),A
01C2E 282A     JR   Z,1C5A
01C30 CBDE     SET  3,(HL)
01C32 3E01     LD   A,01
01C34 EA7FDF   LD   (DF7F),A
01C37 214E99   LD   HL,994E
01C3A 114E9D   LD   DE,9D4E
01C3D 0604     LD   B,04
01C3F F041     IN   A,(41)
01C41 E603     AND  03
01C43 20FA     JR   NZ,1C3F
01C45 2A       HL++ A,(HL)
01C46 12       LD   (DE),A
01C47 13       INC  DE
01C48 05       DEC  B
01C49 20F4     JR   NZ,1C3F
01C4B 3E80     LD   A,80
01C4D EA10C2   LD   (C210),A
01C50 EA00C2   LD   (C200),A
01C53 CD8326   CALL 2683
01C56 CD9626   CALL 2696
01C59 C9       RET  
01C5A CB9E     RES  3,(HL)
01C5C 3E02     LD   A,02
01C5E EA7FDF   LD   (DF7F),A
01C61 FADEC0   LD   A,(C0DE)
01C64 A7       AND  A
01C65 28E6     JR   Z,1C4D
01C67 AF       XOR  A
01C68 18E6     JR   1C50
01C6A F0CB     IN   A,(CB)
01C6C FE29     CP   29
01C6E C0       RET  NZ
01C6F F0AB     IN   A,(AB)
01C71 EE01     XOR  01
01C73 E0AB     OUT  (AB),A
01C75 2833     JR   Z,1CAA
01C77 3E01     LD   A,01
01C79 EA7FDF   LD   (DF7F),A
01C7C F0D0     IN   A,(D0)
01C7E E0F2     OUT  (F2),A
01C80 F0CF     IN   A,(CF)
01C82 E0F1     OUT  (F1),A
01C84 CDCB1C   CALL 1CCB
01C87 C9       RET  
01C88 F0AB     IN   A,(AB)
01C8A A7       AND  A
01C8B C8       RET  Z
01C8C F0CC     IN   A,(CC)
01C8E 2839     JR   Z,1CC9
01C90 AF       XOR  A
01C91 E0CC     OUT  (CC),A
01C93 F0CB     IN   A,(CB)
01C95 FE29     CP   29
01C97 2008     JR   NZ,1CA1
01C99 3E94     LD   A,94
01C9B E0CF     OUT  (CF),A
01C9D E0CE     OUT  (CE),A
01C9F E1       POP  HL
01CA0 C9       RET  
01CA1 AF       XOR  A
01CA2 E0CF     OUT  (CF),A
01CA4 F0D0     IN   A,(D0)
01CA6 FE94     CP   94
01CA8 281F     JR   Z,1CC9
01CAA F0F2     IN   A,(F2)
01CAC E0D0     OUT  (D0),A
01CAE F0F1     IN   A,(F1)
01CB0 E0CF     OUT  (CF),A
01CB2 3E02     LD   A,02
01CB4 EA7FDF   LD   (DF7F),A
01CB7 AF       XOR  A
01CB8 E0AB     OUT  (AB),A
01CBA 21EE98   LD   HL,98EE
01CBD 068E     LD   B,8E
01CBF 0E05     LD   C,05
01CC1 CDFF19   CALL 19FF
01CC4 2C       INC  L
01CC5 0D       DEC  C
01CC6 20F9     JR   NZ,1CC1
01CC8 C9       RET  
01CC9 E1       POP  HL
01CCA C9       RET  
01CCB 21EE98   LD   HL,98EE
01CCE 0E05     LD   C,05
01CD0 11DD1C   LD   DE,1CDD
01CD3 1A       LD   A,(DE)
01CD4 CDFE19   CALL 19FE
01CD7 13       INC  DE
01CD8 2C       INC  L
01CD9 0D       DEC  C
01CDA 20F7     JR   NZ,1CD3
01CDC C9       RET  
01CDD 19       ADD  HL,DE
01CDE 0A       LD   A,(BC)
01CDF 1E1C     LD   E,1C
01CE1 0E3E     LD   C,3E
01CE3 80       ADD  A,B
01CE4 EA00C2   LD   (C200),A
01CE7 EA10C2   LD   (C210),A
01CEA CD8326   CALL 2683
01CED CD9626   CALL 2696
01CF0 AF       XOR  A
01CF1 E098     OUT  (98),A
01CF3 E09C     OUT  (9C),A
01CF5 CD9322   CALL 2293
01CF8 3E87     LD   A,87
01CFA CDD71F   CALL 1FD7
01CFD 3E46     LD   A,46
01CFF E0A6     OUT  (A6),A
01D01 3E0D     LD   A,0D
01D03 E0E1     OUT  (E1),A
01D05 C9       RET  
01D06 F081     IN   A,(81)
01D08 CB47     BIT  0,A
01D0A 2003     JR   NZ,1D0F
01D0C CB5F     BIT  3,A
01D0E C8       RET  Z
01D0F AF       XOR  A
01D10 E0E3     OUT  (E3),A
01D12 F0C5     IN   A,(C5)
01D14 A7       AND  A
01D15 3E16     LD   A,16
01D17 200A     JR   NZ,1D23
01D19 F0C0     IN   A,(C0)
01D1B FE37     CP   37
01D1D 3E10     LD   A,10
01D1F 2802     JR   Z,1D23
01D21 3E12     LD   A,12
01D23 E0E1     OUT  (E1),A
01D25 C9       RET  
01D26 F0A6     IN   A,(A6)
01D28 A7       AND  A
01D29 C0       RET  NZ
01D2A 2102C8   LD   HL,C802
01D2D 118928   LD   DE,2889
01D30 CD0428   CALL 2804
01D33 F0C3     IN   A,(C3)
01D35 A7       AND  A
01D36 282E     JR   Z,1D66
01D38 114000   LD   DE,0040
01D3B 2127C8   LD   HL,C827
01D3E CD841D   CALL 1D84
01D41 110001   LD   DE,0100
01D44 2187C8   LD   HL,C887
01D47 CD841D   CALL 1D84
01D4A 110003   LD   DE,0300
01D4D 21E7C8   LD   HL,C8E7
01D50 CD841D   CALL 1D84
01D53 110012   LD   DE,1200
01D56 2147C9   LD   HL,C947
01D59 CD841D   CALL 1D84
01D5C 21A0C0   LD   HL,C0A0
01D5F 0603     LD   B,03
01D61 AF       XOR  A
01D62 22       HL++ (HL),A
01D63 05       DEC  B
01D64 20FC     JR   NZ,1D62
01D66 3E80     LD   A,80
01D68 E0A6     OUT  (A6),A
01D6A 3E80     LD   A,80
01D6C EA00C2   LD   (C200),A
01D6F EA10C2   LD   (C210),A
01D72 CD8326   CALL 2683
01D75 CD9626   CALL 2696
01D78 CDF37F   CALL 7FF3
01D7B 3E25     LD   A,25
01D7D E09E     OUT  (9E),A
01D7F 3E0B     LD   A,0B
01D81 E0E1     OUT  (E1),A
01D83 C9       RET  
01D84 E5       PUSH HL
01D85 21A0C0   LD   HL,C0A0
01D88 0603     LD   B,03
01D8A AF       XOR  A
01D8B 22       HL++ (HL),A
01D8C 05       DEC  B
01D8D 20FC     JR   NZ,1D8B
01D8F F0C3     IN   A,(C3)
01D91 47       LD   B,A
01D92 04       INC  B
01D93 21A0C0   LD   HL,C0A0
01D96 CD6601   CALL 0166
01D99 05       DEC  B
01D9A 20F7     JR   NZ,1D93
01D9C E1       POP  HL
01D9D 0603     LD   B,03
01D9F 11A2C0   LD   DE,C0A2
01DA2 1A       LD   A,(DE)
01DA3 E6F0     AND  F0
01DA5 200A     JR   NZ,1DB1
01DA7 1A       LD   A,(DE)
01DA8 E60F     AND  0F
01DAA 200B     JR   NZ,1DB7
01DAC 1D       DEC  E
01DAD 05       DEC  B
01DAE 20F2     JR   NZ,1DA2
01DB0 C9       RET  
01DB1 1A       LD   A,(DE)
01DB2 E6F0     AND  F0
01DB4 CB37     RDX  A
01DB6 22       HL++ (HL),A
01DB7 1A       LD   A,(DE)
01DB8 E60F     AND  0F
01DBA 22       HL++ (HL),A
01DBB 1D       DEC  E
01DBC 05       DEC  B
01DBD 20F2     JR   NZ,1DB1
01DBF C9       RET  
01DC0 F0A6     IN   A,(A6)
01DC2 A7       AND  A
01DC3 C0       RET  NZ
01DC4 3E01     LD   A,01
01DC6 EAC6C0   LD   (C0C6),A
01DC9 3E05     LD   A,05
01DCB E0A6     OUT  (A6),A
01DCD C9       RET  
01DCE F0A6     IN   A,(A6)
01DD0 A7       AND  A
01DD1 C0       RET  NZ
01DD2 2102C8   LD   HL,C802
01DD5 110F51   LD   DE,510F
01DD8 CD0428   CALL 2804
01DDB CD8A17   CALL 178A
01DDE 2100C2   LD   HL,C200
01DE1 113527   LD   DE,2735
01DE4 0E0A     LD   C,0A
01DE6 CD7617   CALL 1776
01DE9 3E10     LD   A,10
01DEB 2166C2   LD   HL,C266
01DEE 77       LD   (HL),A
01DEF 2E76     LD   L,76
01DF1 77       LD   (HL),A
01DF2 210EC2   LD   HL,C20E
01DF5 11311E   LD   DE,1E31
01DF8 060A     LD   B,0A
01DFA 1A       LD   A,(DE)
01DFB 22       HL++ (HL),A
01DFC 22       HL++ (HL),A
01DFD 13       INC  DE
01DFE D5       PUSH DE
01DFF 110E00   LD   DE,000E
01E02 19       ADD  HL,DE
01E03 D1       POP  DE
01E04 05       DEC  B
01E05 20F3     JR   NZ,1DFA
01E07 F0C4     IN   A,(C4)
01E09 FE05     CP   05
01E0B 2002     JR   NZ,1E0F
01E0D 3E09     LD   A,09
01E0F 3C       INC  A
01E10 47       LD   B,A
01E11 2100C2   LD   HL,C200
01E14 111000   LD   DE,0010
01E17 AF       XOR  A
01E18 77       LD   (HL),A
01E19 19       ADD  HL,DE
01E1A 05       DEC  B
01E1B 20FB     JR   NZ,1E18
01E1D F0C4     IN   A,(C4)
01E1F C60A     ADD  A,0A
01E21 EAE8DF   LD   (DFE8),A
01E24 3E25     LD   A,25
01E26 E09E     OUT  (9E),A
01E28 3E1B     LD   A,1B
01E2A E0A6     OUT  (A6),A
01E2C 3E23     LD   A,23
01E2E E0E1     OUT  (E1),A
01E30 C9       RET  
01E31 1C       INC  E
01E32 0F       RRCA 
01E33 1E32     LD   E,32
01E35 2018     JR   NZ,1E4F
01E37 261D     LD   H,1D
01E39 282B     JR   Z,1E66
01E3B 3E0A     LD   A,0A
01E3D CD7326   CALL 2673
01E40 C9       RET  
01E41 F0A6     IN   A,(A6)
01E43 FE14     CP   14
01E45 28F4     JR   Z,1E3B
01E47 A7       AND  A
01E48 C0       RET  NZ
01E49 210EC2   LD   HL,C20E
01E4C 111000   LD   DE,0010
01E4F 060A     LD   B,0A
01E51 E5       PUSH HL
01E52 35       DEC  (HL)
01E53 2015     JR   NZ,1E6A
01E55 2C       INC  L
01E56 3A       HL-- A,(HL)
01E57 77       LD   (HL),A
01E58 7D       LD   A,L
01E59 E6F0     AND  F0
01E5B F603     OR   03
01E5D 6F       LD   L,A
01E5E 7E       LD   A,(HL)
01E5F EE01     XOR  01
01E61 77       LD   (HL),A
01E62 FE50     CP   50
01E64 2823     JR   Z,1E89
01E66 FE51     CP   51
01E68 2825     JR   Z,1E8F
01E6A E1       POP  HL
01E6B 19       ADD  HL,DE
01E6C 05       DEC  B
01E6D 20E2     JR   NZ,1E51
01E6F 3E0A     LD   A,0A
01E71 CD7326   CALL 2673
01E74 FAE9DF   LD   A,(DFE9)
01E77 A7       AND  A
01E78 C0       RET  NZ
01E79 CD8A17   CALL 178A
01E7C F0C4     IN   A,(C4)
01E7E FE05     CP   05
01E80 3E26     LD   A,26
01E82 2802     JR   Z,1E86
01E84 3E05     LD   A,05
01E86 E0E1     OUT  (E1),A
01E88 C9       RET  
01E89 2D       DEC  L
01E8A 2D       DEC  L
01E8B 3667     LD   (HL),67
01E8D 18DB     JR   1E6A
01E8F 2D       DEC  L
01E90 2D       DEC  L
01E91 365D     LD   (HL),5D
01E93 18D5     JR   1E6A
01E95 AF       XOR  A
01E96 EAC6C0   LD   (C0C6),A
01E99 11C0C0   LD   DE,C0C0
01E9C 1A       LD   A,(DE)
01E9D 6F       LD   L,A
01E9E 13       INC  DE
01E9F 1A       LD   A,(DE)
01EA0 67       LD   H,A
01EA1 B5       OR   L
01EA2 CA3A26   JP   Z,263A
01EA5 2B       DEC  HL
01EA6 7C       LD   A,H
01EA7 12       LD   (DE),A
01EA8 1B       DEC  DE
01EA9 7D       LD   A,L
01EAA 12       LD   (DE),A
01EAB 110100   LD   DE,0001
01EAE 21C2C0   LD   HL,C0C2
01EB1 D5       PUSH DE
01EB2 CD6601   CALL 0166
01EB5 11C4C0   LD   DE,C0C4
01EB8 21A599   LD   HL,99A5
01EBB CD362A   CALL 2A36
01EBE AF       XOR  A
01EBF E0A6     OUT  (A6),A
01EC1 D1       POP  DE
01EC2 21A0C0   LD   HL,C0A0
01EC5 CD6601   CALL 0166
01EC8 11A2C0   LD   DE,C0A2
01ECB 21259A   LD   HL,9A25
01ECE CD3A2A   CALL 2A3A
01ED1 3E02     LD   A,02
01ED3 EAE0DF   LD   (DFE0),A
01ED6 C9       RET  
01ED7 FAC6C0   LD   A,(C0C6)
01EDA A7       AND  A
01EDB C8       RET  Z
01EDC FAC5C0   LD   A,(C0C5)
01EDF FE04     CP   04
01EE1 28B2     JR   Z,1E95
01EE3 114000   LD   DE,0040
01EE6 012398   LD   BC,9823
01EE9 21ACC0   LD   HL,C0AC
01EEC A7       AND  A
01EED 2823     JR   Z,1F12
01EEF 110001   LD   DE,0100
01EF2 018398   LD   BC,9883
01EF5 21B1C0   LD   HL,C0B1
01EF8 FE01     CP   01
01EFA 2816     JR   Z,1F12
01EFC 110003   LD   DE,0300
01EFF 01E398   LD   BC,98E3
01F02 21B6C0   LD   HL,C0B6
01F05 FE02     CP   02
01F07 2809     JR   Z,1F12
01F09 110012   LD   DE,1200
01F0C 014399   LD   BC,9943
01F0F 21BBC0   LD   HL,C0BB
01F12 CDD925   CALL 25D9
01F15 C9       RET  
01F16 F081     IN   A,(81)
01F18 A7       AND  A
01F19 C8       RET  Z
01F1A 3E02     LD   A,02
01F1C E0E1     OUT  (E1),A
01F1E C9       RET  
01F1F F0A6     IN   A,(A6)
01F21 A7       AND  A
01F22 C0       RET  NZ
01F23 3E04     LD   A,04
01F25 EAE8DF   LD   (DFE8),A
01F28 F0C5     IN   A,(C5)
01F2A A7       AND  A
01F2B 280A     JR   Z,1F37
01F2D 3E3F     LD   A,3F
01F2F E0A6     OUT  (A6),A
01F31 3E1B     LD   A,1B
01F33 E0CC     OUT  (CC),A
01F35 1837     JR   1F6E
01F37 3E2F     LD   A,2F
01F39 CDD71F   CALL 1FD7
01F3C 2143C8   LD   HL,C843
01F3F 113E29   LD   DE,293E
01F42 0E07     LD   C,07
01F44 CD7D1F   CALL 1F7D
01F47 2183C9   LD   HL,C983
01F4A 117629   LD   DE,2976
01F4D 0E06     LD   C,06
01F4F CD7D1F   CALL 1F7D
01F52 F0C0     IN   A,(C0)
01F54 FE37     CP   37
01F56 2014     JR   NZ,1F6C
01F58 21A2C0   LD   HL,C0A2
01F5B 7E       LD   A,(HL)
01F5C 0658     LD   B,58
01F5E FE20     CP   20
01F60 300F     JR   NC,1F71
01F62 04       INC  B
01F63 FE15     CP   15
01F65 300A     JR   NC,1F71
01F67 04       INC  B
01F68 FE10     CP   10
01F6A 3005     JR   NC,1F71
01F6C 3E04     LD   A,04
01F6E E0E1     OUT  (E1),A
01F70 C9       RET  
01F71 78       LD   A,B
01F72 E0F3     OUT  (F3),A
01F74 3E90     LD   A,90
01F76 E0A6     OUT  (A6),A
01F78 3E34     LD   A,34
01F7A E0E1     OUT  (E1),A
01F7C C9       RET  
01F7D 0608     LD   B,08
01F7F E5       PUSH HL
01F80 1A       LD   A,(DE)
01F81 22       HL++ (HL),A
01F82 13       INC  DE
01F83 05       DEC  B
01F84 20FA     JR   NZ,1F80
01F86 E1       POP  HL
01F87 D5       PUSH DE
01F88 112000   LD   DE,0020
01F8B 19       ADD  HL,DE
01F8C D1       POP  DE
01F8D 0D       DEC  C
01F8E 20ED     JR   NZ,1F7D
01F90 C9       RET  
01F91 F0C0     IN   A,(C0)
01F93 FE37     CP   37
01F95 C0       RET  NZ
01F96 F0E1     IN   A,(E1)
01F98 A7       AND  A
01F99 C0       RET  NZ
01F9A F0E3     IN   A,(E3)
01F9C FE05     CP   05
01F9E C0       RET  NZ
01F9F 21ACC0   LD   HL,C0AC
01FA2 010500   LD   BC,0005
01FA5 7E       LD   A,(HL)
01FA6 114000   LD   DE,0040
01FA9 A7       AND  A
01FAA 2017     JR   NZ,1FC3
01FAC 09       ADD  HL,BC
01FAD 7E       LD   A,(HL)
01FAE 110001   LD   DE,0100
01FB1 A7       AND  A
01FB2 200F     JR   NZ,1FC3
01FB4 09       ADD  HL,BC
01FB5 7E       LD   A,(HL)
01FB6 110003   LD   DE,0300
01FB9 A7       AND  A
01FBA 2007     JR   NZ,1FC3
01FBC 09       ADD  HL,BC
01FBD 110012   LD   DE,1200
01FC0 7E       LD   A,(HL)
01FC1 A7       AND  A
01FC2 C8       RET  Z
01FC3 3600     LD   (HL),00
01FC5 F0A9     IN   A,(A9)
01FC7 47       LD   B,A
01FC8 04       INC  B
01FC9 C5       PUSH BC
01FCA D5       PUSH DE
01FCB 21A0C0   LD   HL,C0A0
01FCE CD6601   CALL 0166
01FD1 D1       POP  DE
01FD2 C1       POP  BC
01FD3 05       DEC  B
01FD4 20F3     JR   NZ,1FC9
01FD6 C9       RET  
01FD7 F5       PUSH AF
01FD8 3E02     LD   A,02
01FDA E0E3     OUT  (E3),A
01FDC F1       POP  AF
01FDD 2102C8   LD   HL,C802
01FE0 0E12     LD   C,12
01FE2 112000   LD   DE,0020
01FE5 E5       PUSH HL
01FE6 060A     LD   B,0A
01FE8 22       HL++ (HL),A
01FE9 05       DEC  B
01FEA 20FC     JR   NZ,1FE8
01FEC E1       POP  HL
01FED 19       ADD  HL,DE
01FEE 0D       DEC  C
01FEF 20F4     JR   NZ,1FE5
01FF1 C9       RET  
01FF2 21C2CB   LD   HL,CBC2
01FF5 111600   LD   DE,0016
01FF8 0E02     LD   C,02
01FFA 3E2F     LD   A,2F
01FFC 060A     LD   B,0A
01FFE 22       HL++ (HL),A
01FFF 05       DEC  B
02000 20FC     JR   NZ,1FFE
02002 19       ADD  HL,DE
02003 0D       DEC  C
02004 20F6     JR   NZ,1FFC
02006 C9       RET  
02007 2100C2   LD   HL,C200
0200A 3600     LD   (HL),00
0200C 2C       INC  L
0200D 3618     LD   (HL),18
0200F 2C       INC  L
02010 363F     LD   (HL),3F
02012 2C       INC  L
02013 FA13C2   LD   A,(C213)
02016 77       LD   (HL),A
02017 E6FC     AND  FC
02019 4F       LD   C,A
0201A F0E4     IN   A,(E4)
0201C A7       AND  A
0201D 2005     JR   NZ,2024
0201F F0C5     IN   A,(C5)
02021 A7       AND  A
02022 281D     JR   Z,2041
02024 26C3     LD   H,C3
02026 F0B0     IN   A,(B0)
02028 6F       LD   L,A
02029 5E       LD   E,(HL)
0202A 23       INC  HL
0202B 7C       LD   A,H
0202C FEC4     CP   C4
0202E 2003     JR   NZ,2033
02030 2100C3   LD   HL,C300
02033 7D       LD   A,L
02034 E0B0     OUT  (B0),A
02036 F0D3     IN   A,(D3)
02038 A7       AND  A
02039 282A     JR   Z,2065
0203B F680     OR   80
0203D E0D3     OUT  (D3),A
0203F 1824     JR   2065
02041 2603     LD   H,03
02043 F004     IN   A,(04)
02045 47       LD   B,A
02046 AF       XOR  A
02047 05       DEC  B
02048 280A     JR   Z,2054
0204A 3C       INC  A
0204B 3C       INC  A
0204C 3C       INC  A
0204D 3C       INC  A
0204E FE1C     CP   1C
02050 28F4     JR   Z,2046
02052 18F3     JR   2047
02054 57       LD   D,A
02055 F0AE     IN   A,(AE)
02057 5F       LD   E,A
02058 25       DEC  H
02059 2807     JR   Z,2062
0205B B2       OR   D
0205C B1       OR   C
0205D E6FC     AND  FC
0205F B9       CP   C
02060 28E1     JR   Z,2043
02062 7A       LD   A,D
02063 E0AE     OUT  (AE),A
02065 7B       LD   A,E
02066 EA13C2   LD   (C213),A
02069 CD9626   CALL 2696
0206C F09A     IN   A,(9A)
0206E E099     OUT  (99),A
02070 C9       RET  
02071 FAC7C0   LD   A,(C0C7)
02074 A7       AND  A
02075 280C     JR   Z,2083
02077 F081     IN   A,(81)
02079 E6B0     AND  B0
0207B FE80     CP   80
0207D 2025     JR   NZ,20A4
0207F AF       XOR  A
02080 EAC7C0   LD   (C0C7),A
02083 F0A7     IN   A,(A7)
02085 A7       AND  A
02086 2029     JR   NZ,20B1
02088 F098     IN   A,(98)
0208A A7       AND  A
0208B 2024     JR   NZ,20B1
0208D F0E3     IN   A,(E3)
0208F A7       AND  A
02090 201F     JR   NZ,20B1
02092 3E03     LD   A,03
02094 E0A7     OUT  (A7),A
02096 21E5FF   LD   HL,FFE5
02099 34       INC  (HL)
0209A 1826     JR   20C2
0209C F080     IN   A,(80)
0209E E6B0     AND  B0
020A0 FE80     CP   80
020A2 28CD     JR   Z,2071
020A4 21E5FF   LD   HL,FFE5
020A7 3600     LD   (HL),00
020A9 F099     IN   A,(99)
020AB A7       AND  A
020AC 2807     JR   Z,20B5
020AE 3D       DEC  A
020AF E099     OUT  (99),A
020B1 CD8326   CALL 2683
020B4 C9       RET  
020B5 F098     IN   A,(98)
020B7 FE03     CP   03
020B9 C8       RET  Z
020BA F0E3     IN   A,(E3)
020BC A7       AND  A
020BD C0       RET  NZ
020BE F09A     IN   A,(9A)
020C0 E099     OUT  (99),A
020C2 2101C2   LD   HL,C201
020C5 7E       LD   A,(HL)
020C6 E0A0     OUT  (A0),A
020C8 C608     ADD  A,08
020CA 77       LD   (HL),A
020CB CD8326   CALL 2683
020CE CD7325   CALL 2573
020D1 A7       AND  A
020D2 C8       RET  Z
020D3 F0A0     IN   A,(A0)
020D5 2101C2   LD   HL,C201
020D8 77       LD   (HL),A
020D9 CD8326   CALL 2683
020DC 3E01     LD   A,01
020DE E098     OUT  (98),A
020E0 EAC7C0   LD   (C0C7),A
020E3 F0E5     IN   A,(E5)
020E5 A7       AND  A
020E6 281B     JR   Z,2103
020E8 4F       LD   C,A
020E9 F0C0     IN   A,(C0)
020EB FE37     CP   37
020ED 2837     JR   Z,2126
020EF 11C0C0   LD   DE,C0C0
020F2 1A       LD   A,(DE)
020F3 6F       LD   L,A
020F4 13       INC  DE
020F5 1A       LD   A,(DE)
020F6 67       LD   H,A
020F7 0600     LD   B,00
020F9 0D       DEC  C
020FA 09       ADD  HL,BC
020FB 7C       LD   A,H
020FC 12       LD   (DE),A
020FD 7D       LD   A,L
020FE 1B       DEC  DE
020FF 12       LD   (DE),A
02100 AF       XOR  A
02101 E0E5     OUT  (E5),A
02103 FA01C2   LD   A,(C201)
02106 FE18     CP   18
02108 C0       RET  NZ
02109 FA02C2   LD   A,(C202)
0210C FE3F     CP   3F
0210E C0       RET  NZ
0210F 21FBFF   LD   HL,FFFB
02112 7E       LD   A,(HL)
02113 FE01     CP   01
02115 200D     JR   NZ,2124
02117 CDF37F   CALL 7FF3
0211A 3E01     LD   A,01
0211C E0E1     OUT  (E1),A
0211E 3E02     LD   A,02
02120 EAF0DF   LD   (DFF0),A
02123 C9       RET  
02124 34       INC  (HL)
02125 C9       RET  
02126 AF       XOR  A
02127 0D       DEC  C
02128 2804     JR   Z,212E
0212A 3C       INC  A
0212B 27       DAA  
0212C 18F9     JR   2127
0212E 5F       LD   E,A
0212F 1600     LD   D,00
02131 21A0C0   LD   HL,C0A0
02134 CD6601   CALL 0166
02137 3E01     LD   A,01
02139 EACEC0   LD   (C0CE),A
0213C 18C2     JR   2100
0213E F098     IN   A,(98)
02140 FE02     CP   02
02142 C0       RET  NZ
02143 3E02     LD   A,02
02145 EAF8DF   LD   (DFF8),A
02148 AF       XOR  A
02149 E0A0     OUT  (A0),A
0214B 11A3C0   LD   DE,C0A3
0214E 2142C8   LD   HL,C842
02151 0610     LD   B,10
02153 0E0A     LD   C,0A
02155 E5       PUSH HL
02156 2A       HL++ A,(HL)
02157 FE2F     CP   2F
02159 CAD821   JP   Z,21D8
0215C 0D       DEC  C
0215D 20F7     JR   NZ,2156
0215F E1       POP  HL
02160 7C       LD   A,H
02161 12       LD   (DE),A
02162 13       INC  DE
02163 7D       LD   A,L
02164 12       LD   (DE),A
02165 13       INC  DE
02166 F0A0     IN   A,(A0)
02168 3C       INC  A
02169 E0A0     OUT  (A0),A
0216B D5       PUSH DE
0216C 112000   LD   DE,0020
0216F 19       ADD  HL,DE
02170 D1       POP  DE
02171 05       DEC  B
02172 20DF     JR   NZ,2153
02174 3E03     LD   A,03
02176 E098     OUT  (98),A
02178 3D       DEC  A
02179 E0A6     OUT  (A6),A
0217B F0A0     IN   A,(A0)
0217D A7       AND  A
0217E C8       RET  Z
0217F 47       LD   B,A
02180 219EFF   LD   HL,FF9E
02183 F0C0     IN   A,(C0)
02185 FE77     CP   77
02187 2812     JR   Z,219B
02189 78       LD   A,B
0218A 86       ADD  A,(HL)
0218B 27       DAA  
0218C 22       HL++ (HL),A
0218D 3E00     LD   A,00
0218F 8E       ADC  A,(HL)
02190 27       DAA  
02191 77       LD   (HL),A
02192 3016     JR   NC,21AA
02194 3699     LD   (HL),99
02196 2B       DEC  HL
02197 3699     LD   (HL),99
02199 180F     JR   21AA
0219B 7E       LD   A,(HL)
0219C B7       OR   A
0219D 90       SUB  B
0219E 283B     JR   Z,21DB
021A0 3839     JR   C,21DB
021A2 27       DAA  
021A3 77       LD   (HL),A
021A4 E6F0     AND  F0
021A6 FE90     CP   90
021A8 2831     JR   Z,21DB
021AA 78       LD   A,B
021AB 0E06     LD   C,06
021AD 21ACC0   LD   HL,C0AC
021B0 0600     LD   B,00
021B2 FE01     CP   01
021B4 2819     JR   Z,21CF
021B6 21B1C0   LD   HL,C0B1
021B9 0601     LD   B,01
021BB FE02     CP   02
021BD 2810     JR   Z,21CF
021BF 21B6C0   LD   HL,C0B6
021C2 0602     LD   B,02
021C4 FE03     CP   03
021C6 2807     JR   Z,21CF
021C8 21BBC0   LD   HL,C0BB
021CB 0604     LD   B,04
021CD 0E07     LD   C,07
021CF 34       INC  (HL)
021D0 78       LD   A,B
021D1 E0DC     OUT  (DC),A
021D3 79       LD   A,C
021D4 EAE0DF   LD   (DFE0),A
021D7 C9       RET  
021D8 E1       POP  HL
021D9 1890     JR   216B
021DB AF       XOR  A
021DC E09E     OUT  (9E),A
021DE 18CA     JR   21AA
021E0 F098     IN   A,(98)
021E2 FE03     CP   03
021E4 C0       RET  NZ
021E5 F0A6     IN   A,(A6)
021E7 A7       AND  A
021E8 C0       RET  NZ
021E9 11A3C0   LD   DE,C0A3
021EC F09C     IN   A,(9C)
021EE CB47     BIT  0,A
021F0 203C     JR   NZ,222E
021F2 1A       LD   A,(DE)
021F3 A7       AND  A
021F4 2852     JR   Z,2248
021F6 D630     SUB  30
021F8 67       LD   H,A
021F9 13       INC  DE
021FA 1A       LD   A,(DE)
021FB 6F       LD   L,A
021FC F09C     IN   A,(9C)
021FE FE06     CP   06
02200 3E8C     LD   A,8C
02202 2002     JR   NZ,2206
02204 3E2F     LD   A,2F
02206 0E0A     LD   C,0A
02208 22       HL++ (HL),A
02209 0D       DEC  C
0220A 20FC     JR   NZ,2208
0220C 13       INC  DE
0220D 1A       LD   A,(DE)
0220E A7       AND  A
0220F 20E5     JR   NZ,21F6
02211 F09C     IN   A,(9C)
02213 3C       INC  A
02214 E09C     OUT  (9C),A
02216 FE07     CP   07
02218 2805     JR   Z,221F
0221A 3E0A     LD   A,0A
0221C E0A6     OUT  (A6),A
0221E C9       RET  
0221F AF       XOR  A
02220 E09C     OUT  (9C),A
02222 3E0D     LD   A,0D
02224 E0A6     OUT  (A6),A
02226 3E01     LD   A,01
02228 E0E3     OUT  (E3),A
0222A AF       XOR  A
0222B E098     OUT  (98),A
0222D C9       RET  
0222E 1A       LD   A,(DE)
0222F 67       LD   H,A
02230 D630     SUB  30
02232 4F       LD   C,A
02233 13       INC  DE
02234 1A       LD   A,(DE)
02235 6F       LD   L,A
02236 060A     LD   B,0A
02238 7E       LD   A,(HL)
02239 E5       PUSH HL
0223A 61       LD   H,C
0223B 77       LD   (HL),A
0223C E1       POP  HL
0223D 23       INC  HL
0223E 05       DEC  B
0223F 20F7     JR   NZ,2238
02241 13       INC  DE
02242 1A       LD   A,(DE)
02243 A7       AND  A
02244 20E8     JR   NZ,222E
02246 18C9     JR   2211
02248 CD0720   CALL 2007
0224B 18DD     JR   222A
0224D F0A6     IN   A,(A6)
0224F A7       AND  A
02250 C0       RET  NZ
02251 F0E3     IN   A,(E3)
02253 FE01     CP   01
02255 C0       RET  NZ
02256 11A3C0   LD   DE,C0A3
02259 1A       LD   A,(DE)
0225A 67       LD   H,A
0225B 13       INC  DE
0225C 1A       LD   A,(DE)
0225D 6F       LD   L,A
0225E D5       PUSH DE
0225F E5       PUSH HL
02260 01E0FF   LD   BC,FFE0
02263 09       ADD  HL,BC
02264 D1       POP  DE
02265 E5       PUSH HL
02266 060A     LD   B,0A
02268 2A       HL++ A,(HL)
02269 12       LD   (DE),A
0226A 13       INC  DE
0226B 05       DEC  B
0226C 20FA     JR   NZ,2268
0226E E1       POP  HL
0226F E5       PUSH HL
02270 D1       POP  DE
02271 01E0FF   LD   BC,FFE0
02274 09       ADD  HL,BC
02275 7C       LD   A,H
02276 FEC7     CP   C7
02278 20EB     JR   NZ,2265
0227A D1       POP  DE
0227B 13       INC  DE
0227C 1A       LD   A,(DE)
0227D A7       AND  A
0227E 20DA     JR   NZ,225A
02280 2102C8   LD   HL,C802
02283 3E2F     LD   A,2F
02285 060A     LD   B,0A
02287 22       HL++ (HL),A
02288 05       DEC  B
02289 20FC     JR   NZ,2287
0228B CD9322   CALL 2293
0228E 3E02     LD   A,02
02290 E0E3     OUT  (E3),A
02292 C9       RET  
02293 21A3C0   LD   HL,C0A3
02296 AF       XOR  A
02297 0609     LD   B,09
02299 22       HL++ (HL),A
0229A 05       DEC  B
0229B 20FC     JR   NZ,2299
0229D C9       RET  
0229E F0E3     IN   A,(E3)
022A0 FE02     CP   02
022A2 C0       RET  NZ
022A3 21229A   LD   HL,9A22
022A6 1122CA   LD   DE,CA22
022A9 CDAC24   CALL 24AC
022AC C9       RET  
022AD F0E3     IN   A,(E3)
022AF FE03     CP   03
022B1 C0       RET  NZ
022B2 21029A   LD   HL,9A02
022B5 1102CA   LD   DE,CA02
022B8 CDAC24   CALL 24AC
022BB C9       RET  
022BC F0E3     IN   A,(E3)
022BE FE04     CP   04
022C0 C0       RET  NZ
022C1 21E299   LD   HL,99E2
022C4 11E2C9   LD   DE,C9E2
022C7 CDAC24   CALL 24AC
022CA C9       RET  
022CB F0E3     IN   A,(E3)
022CD FE05     CP   05
022CF C0       RET  NZ
022D0 21C299   LD   HL,99C2
022D3 11C2C9   LD   DE,C9C2
022D6 CDAC24   CALL 24AC
022D9 C9       RET  
022DA F0E3     IN   A,(E3)
022DC FE06     CP   06
022DE C0       RET  NZ
022DF 21A299   LD   HL,99A2
022E2 11A2C9   LD   DE,C9A2
022E5 CDAC24   CALL 24AC
022E8 C9       RET  
022E9 F0E3     IN   A,(E3)
022EB FE07     CP   07
022ED C0       RET  NZ
022EE 218299   LD   HL,9982
022F1 1182C9   LD   DE,C982
022F4 CDAC24   CALL 24AC
022F7 C9       RET  
022F8 F0E3     IN   A,(E3)
022FA FE08     CP   08
022FC C0       RET  NZ
022FD 216299   LD   HL,9962
02300 1162C9   LD   DE,C962
02303 CDAC24   CALL 24AC
02306 F0C5     IN   A,(C5)
02308 A7       AND  A
02309 F0E1     IN   A,(E1)
0230B 2008     JR   NZ,2315
0230D A7       AND  A
0230E C0       RET  NZ
0230F 3E01     LD   A,01
02311 EAF8DF   LD   (DFF8),A
02314 C9       RET  
02315 FE1A     CP   1A
02317 C0       RET  NZ
02318 F0D4     IN   A,(D4)
0231A A7       AND  A
0231B 28F2     JR   Z,230F
0231D 3E05     LD   A,05
0231F EAE0DF   LD   (DFE0),A
02322 C9       RET  
02323 F0E3     IN   A,(E3)
02325 FE09     CP   09
02327 C0       RET  NZ
02328 214299   LD   HL,9942
0232B 1142C9   LD   DE,C942
0232E CDAC24   CALL 24AC
02331 C9       RET  
02332 F0E3     IN   A,(E3)
02334 FE0A     CP   0A
02336 C0       RET  NZ
02337 212299   LD   HL,9922
0233A 1122C9   LD   DE,C922
0233D CDAC24   CALL 24AC
02340 C9       RET  
02341 F0E3     IN   A,(E3)
02343 FE0B     CP   0B
02345 C0       RET  NZ
02346 210299   LD   HL,9902
02349 1102C9   LD   DE,C902
0234C CDAC24   CALL 24AC
0234F C9       RET  
02350 F0E3     IN   A,(E3)
02352 FE0C     CP   0C
02354 C0       RET  NZ
02355 21E298   LD   HL,98E2
02358 11E2C8   LD   DE,C8E2
0235B CDAC24   CALL 24AC
0235E C9       RET  
0235F F0E3     IN   A,(E3)
02361 FE0D     CP   0D
02363 C0       RET  NZ
02364 21C298   LD   HL,98C2
02367 11C2C8   LD   DE,C8C2
0236A CDAC24   CALL 24AC
0236D C9       RET  
0236E F0E3     IN   A,(E3)
02370 FE0E     CP   0E
02372 C0       RET  NZ
02373 21A298   LD   HL,98A2
02376 11A2C8   LD   DE,C8A2
02379 CDAC24   CALL 24AC
0237C C9       RET  
0237D F0E3     IN   A,(E3)
0237F FE0F     CP   0F
02381 C0       RET  NZ
02382 218298   LD   HL,9882
02385 1182C8   LD   DE,C882
02388 CDAC24   CALL 24AC
0238B C9       RET  
0238C F0E3     IN   A,(E3)
0238E FE10     CP   10
02390 C0       RET  NZ
02391 216298   LD   HL,9862
02394 1162C8   LD   DE,C862
02397 CDAC24   CALL 24AC
0239A CD4B24   CALL 244B
0239D C9       RET  
0239E F0E3     IN   A,(E3)
023A0 FE11     CP   11
023A2 C0       RET  NZ
023A3 214298   LD   HL,9842
023A6 1142C8   LD   DE,C842
023A9 CDAC24   CALL 24AC
023AC 216D9C   LD   HL,9C6D
023AF CD3B24   CALL 243B
023B2 3E01     LD   A,01
023B4 E0E0     OUT  (E0),A
023B6 C9       RET  
023B7 F0E3     IN   A,(E3)
023B9 FE12     CP   12
023BB C0       RET  NZ
023BC 212298   LD   HL,9822
023BF 1122C8   LD   DE,C822
023C2 CDAC24   CALL 24AC
023C5 216D98   LD   HL,986D
023C8 CD3B24   CALL 243B
023CB C9       RET  
023CC F0E3     IN   A,(E3)
023CE FE13     CP   13
023D0 C0       RET  NZ
023D1 EAC7C0   LD   (C0C7),A
023D4 210298   LD   HL,9802
023D7 1102C8   LD   DE,C802
023DA CDAC24   CALL 24AC
023DD AF       XOR  A
023DE E0E3     OUT  (E3),A
023E0 F0C5     IN   A,(C5)
023E2 A7       AND  A
023E3 F0E1     IN   A,(E1)
023E5 2048     JR   NZ,242F
023E7 A7       AND  A
023E8 C0       RET  NZ
023E9 214E99   LD   HL,994E
023EC 119FFF   LD   DE,FF9F
023EF 0E02     LD   C,02
023F1 F0C0     IN   A,(C0)
023F3 FE37     CP   37
023F5 2808     JR   Z,23FF
023F7 215099   LD   HL,9950
023FA 119EFF   LD   DE,FF9E
023FD 0E01     LD   C,01
023FF CD3C2A   CALL 2A3C
02402 F0C0     IN   A,(C0)
02404 FE37     CP   37
02406 2823     JR   Z,242B
02408 F09E     IN   A,(9E)
0240A A7       AND  A
0240B 201E     JR   NZ,242B
0240D 3E64     LD   A,64
0240F E0A6     OUT  (A6),A
02411 3E02     LD   A,02
02413 EAE8DF   LD   (DFE8),A
02416 F0C5     IN   A,(C5)
02418 A7       AND  A
02419 2803     JR   Z,241E
0241B E0D5     OUT  (D5),A
0241D C9       RET  
0241E F0C3     IN   A,(C3)
02420 FE09     CP   09
02422 3E05     LD   A,05
02424 2002     JR   NZ,2428
02426 3E22     LD   A,22
02428 E0E1     OUT  (E1),A
0242A C9       RET  
0242B CD0720   CALL 2007
0242E C9       RET  
0242F FE1A     CP   1A
02431 C0       RET  NZ
02432 F0D4     IN   A,(D4)
02434 A7       AND  A
02435 28B2     JR   Z,23E9
02437 AF       XOR  A
02438 E0D4     OUT  (D4),A
0243A C9       RET  
0243B F0E1     IN   A,(E1)
0243D A7       AND  A
0243E C0       RET  NZ
0243F F0C0     IN   A,(C0)
02441 FE37     CP   37
02443 C0       RET  NZ
02444 11A2C0   LD   DE,C0A2
02447 CD362A   CALL 2A36
0244A C9       RET  
0244B F0E1     IN   A,(E1)
0244D A7       AND  A
0244E C0       RET  NZ
0244F F0C0     IN   A,(C0)
02451 FE37     CP   37
02453 C0       RET  NZ
02454 21A9FF   LD   HL,FFA9
02457 7E       LD   A,(HL)
02458 FE14     CP   14
0245A C8       RET  Z
0245B CD9D24   CALL 249D
0245E F09F     IN   A,(9F)
02460 57       LD   D,A
02461 E6F0     AND  F0
02463 C0       RET  NZ
02464 7A       LD   A,D
02465 E60F     AND  0F
02467 CB37     RDX  A
02469 57       LD   D,A
0246A F09E     IN   A,(9E)
0246C E6F0     AND  F0
0246E CB37     RDX  A
02470 B2       OR   D
02471 B8       CP   B
02472 D8       RET  C
02473 C8       RET  Z
02474 34       INC  (HL)
02475 CD9D24   CALL 249D
02478 E60F     AND  0F
0247A 4F       LD   C,A
0247B 21F198   LD   HL,98F1
0247E 71       LD   (HL),C
0247F 269C     LD   H,9C
02481 71       LD   (HL),C
02482 78       LD   A,B
02483 E6F0     AND  F0
02485 280D     JR   Z,2494
02487 CB37     RDX  A
02489 4F       LD   C,A
0248A 7D       LD   A,L
0248B FEF0     CP   F0
0248D 2805     JR   Z,2494
0248F 21F098   LD   HL,98F0
02492 18EA     JR   247E
02494 3E08     LD   A,08
02496 EAE0DF   LD   (DFE0),A
02499 CDE81A   CALL 1AE8
0249C C9       RET  
0249D 7E       LD   A,(HL)
0249E 47       LD   B,A
0249F A7       AND  A
024A0 C8       RET  Z
024A1 AF       XOR  A
024A2 B7       OR   A
024A3 3C       INC  A
024A4 27       DAA  
024A5 05       DEC  B
024A6 2802     JR   Z,24AA
024A8 18F8     JR   24A2
024AA 47       LD   B,A
024AB C9       RET  
024AC 060A     LD   B,0A
024AE 1A       LD   A,(DE)
024AF 77       LD   (HL),A
024B0 2C       INC  L
024B1 1C       INC  E
024B2 05       DEC  B
024B3 20F9     JR   NZ,24AE
024B5 F0E3     IN   A,(E3)
024B7 3C       INC  A
024B8 E0E3     OUT  (E3),A
024BA C9       RET  
024BB 2100C2   LD   HL,C200
024BE 7E       LD   A,(HL)
024BF FE80     CP   80
024C1 C8       RET  Z
024C2 2E03     LD   L,03
024C4 7E       LD   A,(HL)
024C5 E0A0     OUT  (A0),A
024C7 F081     IN   A,(81)
024C9 47       LD   B,A
024CA CB48     BIT  1,B
024CC 2012     JR   NZ,24E0
024CE CB40     BIT  0,B
024D0 2837     JR   Z,2509
024D2 7E       LD   A,(HL)
024D3 E603     AND  03
024D5 2803     JR   Z,24DA
024D7 35       DEC  (HL)
024D8 1814     JR   24EE
024DA 7E       LD   A,(HL)
024DB F603     OR   03
024DD 77       LD   (HL),A
024DE 180E     JR   24EE
024E0 7E       LD   A,(HL)
024E1 E603     AND  03
024E3 FE03     CP   03
024E5 2803     JR   Z,24EA
024E7 34       INC  (HL)
024E8 1804     JR   24EE
024EA 7E       LD   A,(HL)
024EB E6FC     AND  FC
024ED 77       LD   (HL),A
024EE 3E03     LD   A,03
024F0 EAE0DF   LD   (DFE0),A
024F3 CD8326   CALL 2683
024F6 CD7325   CALL 2573
024F9 A7       AND  A
024FA 280D     JR   Z,2509
024FC AF       XOR  A
024FD EAE0DF   LD   (DFE0),A
02500 2103C2   LD   HL,C203
02503 F0A0     IN   A,(A0)
02505 77       LD   (HL),A
02506 CD8326   CALL 2683
02509 2102C2   LD   HL,C202
0250C F081     IN   A,(81)
0250E 47       LD   B,A
0250F F080     IN   A,(80)
02511 4F       LD   C,A
02512 7E       LD   A,(HL)
02513 E0A0     OUT  (A0),A
02515 CB60     BIT  4,B
02517 3E17     LD   A,17
02519 200C     JR   NZ,2527
0251B CB61     BIT  4,C
0251D 282D     JR   Z,254C
0251F F0AA     IN   A,(AA)
02521 3D       DEC  A
02522 E0AA     OUT  (AA),A
02524 C0       RET  NZ
02525 3E09     LD   A,09
02527 E0AA     OUT  (AA),A
02529 7E       LD   A,(HL)
0252A C608     ADD  A,08
0252C 77       LD   (HL),A
0252D CD8326   CALL 2683
02530 3E04     LD   A,04
02532 EAE0DF   LD   (DFE0),A
02535 CD7325   CALL 2573
02538 A7       AND  A
02539 C8       RET  Z
0253A 2102C2   LD   HL,C202
0253D AF       XOR  A
0253E EAE0DF   LD   (DFE0),A
02541 F0A0     IN   A,(A0)
02543 77       LD   (HL),A
02544 CD8326   CALL 2683
02547 3E01     LD   A,01
02549 E0AA     OUT  (AA),A
0254B C9       RET  
0254C CB68     BIT  5,B
0254E 3E17     LD   A,17
02550 200C     JR   NZ,255E
02552 CB69     BIT  5,C
02554 28F3     JR   Z,2549
02556 F0AA     IN   A,(AA)
02558 3D       DEC  A
02559 E0AA     OUT  (AA),A
0255B C0       RET  NZ
0255C 3E09     LD   A,09
0255E E0AA     OUT  (AA),A
02560 7E       LD   A,(HL)
02561 D608     SUB  08
02563 77       LD   (HL),A
02564 3E04     LD   A,04
02566 EAE0DF   LD   (DFE0),A
02569 CD8326   CALL 2683
0256C CD7325   CALL 2573
0256F A7       AND  A
02570 C8       RET  Z
02571 18C7     JR   253A
02573 2110C0   LD   HL,C010
02576 0604     LD   B,04
02578 2A       HL++ A,(HL)
02579 E0B2     OUT  (B2),A
0257B 2A       HL++ A,(HL)
0257C A7       AND  A
0257D 2817     JR   Z,2596
0257F E0B3     OUT  (B3),A
02581 E5       PUSH HL
02582 C5       PUSH BC
02583 CDE329   CALL 29E3
02586 7C       LD   A,H
02587 C630     ADD  A,30
02589 67       LD   H,A
0258A 7E       LD   A,(HL)
0258B FE2F     CP   2F
0258D 200B     JR   NZ,259A
0258F C1       POP  BC
02590 E1       POP  HL
02591 2C       INC  L
02592 2C       INC  L
02593 05       DEC  B
02594 20E2     JR   NZ,2578
02596 AF       XOR  A
02597 E09B     OUT  (9B),A
02599 C9       RET  
0259A C1       POP  BC
0259B E1       POP  HL
0259C 3E01     LD   A,01
0259E E09B     OUT  (9B),A
025A0 C9       RET  
025A1 F098     IN   A,(98)
025A3 FE01     CP   01
025A5 C0       RET  NZ
025A6 2110C0   LD   HL,C010
025A9 0604     LD   B,04
025AB 2A       HL++ A,(HL)
025AC E0B2     OUT  (B2),A
025AE 2A       HL++ A,(HL)
025AF A7       AND  A
025B0 281D     JR   Z,25CF
025B2 E0B3     OUT  (B3),A
025B4 E5       PUSH HL
025B5 C5       PUSH BC
025B6 CDE329   CALL 29E3
025B9 E5       PUSH HL
025BA D1       POP  DE
025BB C1       POP  BC
025BC E1       POP  HL
025BD F041     IN   A,(41)
025BF E603     AND  03
025C1 20FA     JR   NZ,25BD
025C3 7E       LD   A,(HL)
025C4 12       LD   (DE),A
025C5 7A       LD   A,D
025C6 C630     ADD  A,30
025C8 57       LD   D,A
025C9 2A       HL++ A,(HL)
025CA 12       LD   (DE),A
025CB 2C       INC  L
025CC 05       DEC  B
025CD 20DC     JR   NZ,25AB
025CF 3E02     LD   A,02
025D1 E098     OUT  (98),A
025D3 2100C2   LD   HL,C200
025D6 3680     LD   (HL),80
025D8 C9       RET  
025D9 FAC6C0   LD   A,(C0C6)
025DC FE02     CP   02
025DE 2846     JR   Z,2626
025E0 D5       PUSH DE
025E1 7E       LD   A,(HL)
025E2 B7       OR   A
025E3 2854     JR   Z,2639
025E5 3D       DEC  A
025E6 22       HL++ (HL),A
025E7 7E       LD   A,(HL)
025E8 3C       INC  A
025E9 27       DAA  
025EA 77       LD   (HL),A
025EB E60F     AND  0F
025ED 02       LD   (BC),A
025EE 0D       DEC  C
025EF 2A       HL++ A,(HL)
025F0 CB37     RDX  A
025F2 E60F     AND  0F
025F4 2801     JR   Z,25F7
025F6 02       LD   (BC),A
025F7 C5       PUSH BC
025F8 F0C3     IN   A,(C3)
025FA 47       LD   B,A
025FB 04       INC  B
025FC E5       PUSH HL
025FD CD6601   CALL 0166
02600 E1       POP  HL
02601 05       DEC  B
02602 20F8     JR   NZ,25FC
02604 C1       POP  BC
02605 23       INC  HL
02606 23       INC  HL
02607 E5       PUSH HL
02608 212300   LD   HL,0023
0260B 09       ADD  HL,BC
0260C D1       POP  DE
0260D CD3A2A   CALL 2A3A
02610 D1       POP  DE
02611 F0C3     IN   A,(C3)
02613 47       LD   B,A
02614 04       INC  B
02615 21A0C0   LD   HL,C0A0
02618 E5       PUSH HL
02619 CD6601   CALL 0166
0261C E1       POP  HL
0261D 05       DEC  B
0261E 20F8     JR   NZ,2618
02620 3E02     LD   A,02
02622 EAC6C0   LD   (C0C6),A
02625 C9       RET  
02626 11A2C0   LD   DE,C0A2
02629 21259A   LD   HL,9A25
0262C CD3A2A   CALL 2A3A
0262F 3E02     LD   A,02
02631 EAE0DF   LD   (DFE0),A
02634 AF       XOR  A
02635 EAC6C0   LD   (C0C6),A
02638 C9       RET  
02639 D1       POP  DE
0263A 3E21     LD   A,21
0263C E0A6     OUT  (A6),A
0263E AF       XOR  A
0263F EAC6C0   LD   (C0C6),A
02642 FAC5C0   LD   A,(C0C5)
02645 3C       INC  A
02646 EAC5C0   LD   (C0C5),A
02649 FE05     CP   05
0264B C0       RET  NZ
0264C 3E04     LD   A,04
0264E E0E1     OUT  (E1),A
02650 C9       RET  
02651 21ACC0   LD   HL,C0AC
02654 061B     LD   B,1B
02656 AF       XOR  A
02657 22       HL++ (HL),A
02658 05       DEC  B
02659 20FC     JR   NZ,2657
0265B 21A0C0   LD   HL,C0A0
0265E 0603     LD   B,03
02660 22       HL++ (HL),A
02661 05       DEC  B
02662 20FC     JR   NZ,2660
02664 C9       RET  
02665 7E       LD   A,(HL)
02666 E6F0     AND  F0
02668 CB37     RDX  A
0266A 12       LD   (DE),A
0266B 7E       LD   A,(HL)
0266C E60F     AND  0F
0266E 1C       INC  E
0266F 12       LD   (DE),A
02670 C9       RET  
02671 3E02     LD   A,02
02673 E08F     OUT  (8F),A
02675 AF       XOR  A
02676 E08E     OUT  (8E),A
02678 3EC0     LD   A,C0
0267A E08D     OUT  (8D),A
0267C 2100C2   LD   HL,C200
0267F CD892A   CALL 2A89
02682 C9       RET  
02683 3E01     LD   A,01
02685 E08F     OUT  (8F),A
02687 3E10     LD   A,10
02689 E08E     OUT  (8E),A
0268B 3EC0     LD   A,C0
0268D E08D     OUT  (8D),A
0268F 2100C2   LD   HL,C200
02692 CD892A   CALL 2A89
02695 C9       RET  
02696 3E01     LD   A,01
02698 E08F     OUT  (8F),A
0269A 3E20     LD   A,20
0269C E08E     OUT  (8E),A
0269E 3EC0     LD   A,C0
026A0 E08D     OUT  (8D),A
026A2 2110C2   LD   HL,C210
026A5 CD892A   CALL 2A89
026A8 C9       RET  
026A9 0620     LD   B,20
026AB 3E8E     LD   A,8E
026AD 112000   LD   DE,0020
026B0 77       LD   (HL),A
026B1 19       ADD  HL,DE
026B2 05       DEC  B
026B3 20FB     JR   NZ,26B0
026B5 C9       RET  
026B6 1A       LD   A,(DE)
026B7 FEFF     CP   FF
026B9 C8       RET  Z
026BA 22       HL++ (HL),A
026BB 13       INC  DE
026BC 18F8     JR   26B6
026BE D9       RETI 
026BF 00       NOP  
026C0 183F     JR   2701
026C2 00       NOP  
026C3 80       ADD  A,B
026C4 00       NOP  
026C5 00       NOP  
026C6 FF       RST  38
026C7 00       NOP  
026C8 80       ADD  A,B
026C9 8F       ADC  A,A
026CA 00       NOP  
026CB 80       ADD  A,B
026CC 00       NOP  
026CD 00       NOP  
026CE FF       RST  38
026CF 00       NOP  
026D0 70       LD   (HL),B
026D1 37       SCF  
026D2 1C       INC  E
026D3 00       NOP  
026D4 00       NOP  
026D5 00       NOP  
026D6 3837     JR   C,270F
026D8 1C       INC  E
026D9 00       NOP  
026DA 00       NOP  
026DB 00       NOP  
026DC 40       LD   B,B
026DD 34       INC  (HL)
026DE 2000     JR   NZ,26E0
026E0 00       NOP  
026E1 00       NOP  
026E2 40       LD   B,B
026E3 1C       INC  E
026E4 2000     JR   NZ,26E6
026E6 00       NOP  
026E7 00       NOP  
026E8 40       LD   B,B
026E9 74       LD   (HL),H
026EA 2000     JR   NZ,26EC
026EC 00       NOP  
026ED 00       NOP  
026EE 40       LD   B,B
026EF 68       LD   L,B
026F0 210000   LD   HL,0000
026F3 00       NOP  
026F4 78       LD   A,B
026F5 68       LD   L,B
026F6 210000   LD   HL,0000
026F9 00       NOP  
026FA 60       LD   H,B
026FB 60       LD   H,B
026FC 2A       HL++ A,(HL)
026FD 80       ADD  A,B
026FE 00       NOP  
026FF 00       NOP  
02700 60       LD   H,B
02701 72       LD   (HL),D
02702 2A       HL++ A,(HL)
02703 80       ADD  A,B
02704 2000     JR   NZ,2706
02706 68       LD   L,B
02707 383E     JR   C,2747
02709 80       ADD  A,B
0270A 00       NOP  
0270B 00       NOP  
0270C 60       LD   H,B
0270D 60       LD   H,B
0270E 3680     LD   (HL),80
02710 00       NOP  
02711 00       NOP  
02712 60       LD   H,B
02713 72       LD   (HL),D
02714 3680     LD   (HL),80
02716 2000     JR   NZ,2718
02718 68       LD   L,B
02719 3832     JR   C,274D
0271B 80       ADD  A,B
0271C 00       NOP  
0271D 00       NOP  
0271E 60       LD   H,B
0271F 60       LD   H,B
02720 2E80     LD   L,80
02722 00       NOP  
02723 00       NOP  
02724 68       LD   L,B
02725 383C     JR   C,2763
02727 80       ADD  A,B
02728 00       NOP  
02729 00       NOP  
0272A 60       LD   H,B
0272B 60       LD   H,B
0272C 3A       HL-- A,(HL)
0272D 80       ADD  A,B
0272E 00       NOP  
0272F 00       NOP  
02730 68       LD   L,B
02731 3830     JR   C,2763
02733 80       ADD  A,B
02734 00       NOP  
02735 80       ADD  A,B
02736 3F       CCF  
02737 40       LD   B,B
02738 44       LD   B,H
02739 00       NOP  
0273A 00       NOP  
0273B 80       ADD  A,B
0273C 3F       CCF  
0273D 204A     JR   NZ,2789
0273F 00       NOP  
02740 00       NOP  
02741 80       ADD  A,B
02742 3F       CCF  
02743 3046     JR   NC,278B
02745 00       NOP  
02746 00       NOP  
02747 80       ADD  A,B
02748 77       LD   (HL),A
02749 2048     JR   NZ,2793
0274B 00       NOP  
0274C 00       NOP  
0274D 80       ADD  A,B
0274E 87       ADD  A,A
0274F 48       LD   C,B
02750 4C       LD   C,H
02751 00       NOP  
02752 00       NOP  
02753 80       ADD  A,B
02754 87       ADD  A,A
02755 58       LD   E,B
02756 4E       LD   C,(HL)
02757 00       NOP  
02758 00       NOP  
02759 80       ADD  A,B
0275A 67       LD   H,A
0275B 4D       LD   C,L
0275C 50       LD   D,B
0275D 00       NOP  
0275E 00       NOP  
0275F 80       ADD  A,B
02760 67       LD   H,A
02761 5D       LD   E,L
02762 52       LD   D,D
02763 00       NOP  
02764 00       NOP  
02765 80       ADD  A,B
02766 8F       ADC  A,A
02767 88       ADC  A,B
02768 54       LD   D,H
02769 00       NOP  
0276A 00       NOP  
0276B 80       ADD  A,B
0276C 8F       ADC  A,A
0276D 98       SBC  A,B
0276E 55       LD   D,L
0276F 00       NOP  
02770 00       NOP  
02771 00       NOP  
02772 5F       LD   E,A
02773 57       LD   D,A
02774 2C       INC  L
02775 00       NOP  
02776 00       NOP  
02777 80       ADD  A,B
02778 80       ADD  A,B
02779 50       LD   D,B
0277A 34       INC  (HL)
0277B 00       NOP  
0277C 00       NOP  
0277D 80       ADD  A,B
0277E 80       ADD  A,B
0277F 60       LD   H,B
02780 34       INC  (HL)
02781 00       NOP  
02782 2000     JR   NZ,2784
02784 6F       LD   L,A
02785 57       LD   D,A
02786 58       LD   E,B
02787 00       NOP  
02788 00       NOP  
02789 80       ADD  A,B
0278A 80       ADD  A,B
0278B 55       LD   D,L
0278C 34       INC  (HL)
0278D 00       NOP  
0278E 00       NOP  
0278F 80       ADD  A,B
02790 80       ADD  A,B
02791 5B       LD   E,E
02792 34       INC  (HL)
02793 00       NOP  
02794 2021     JR   NZ,27B7
02796 FF       RST  38
02797 9B       SBC  A,E
02798 010004   LD   BC,0400
0279B 3E2F     LD   A,2F
0279D 32       HL-- (HL),A
0279E 0B       DEC  BC
0279F 78       LD   A,B
027A0 B1       OR   C
027A1 20F8     JR   NZ,279B
027A3 C9       RET  
027A4 2A       HL++ A,(HL)
027A5 12       LD   (DE),A
027A6 13       INC  DE
027A7 0B       DEC  BC
027A8 78       LD   A,B
027A9 B1       OR   C
027AA 20F8     JR   NZ,27A4
027AC C9       RET  
027AD CDC327   CALL 27C3
027B0 01A000   LD   BC,00A0
027B3 CDA427   CALL 27A4
027B6 213F32   LD   HL,323F
027B9 110083   LD   DE,8300
027BC 01000D   LD   BC,0D00
027BF CDA427   CALL 27A4
027C2 C9       RET  
027C3 215F41   LD   HL,415F
027C6 013801   LD   BC,0138
027C9 110080   LD   DE,8000
027CC 2A       HL++ A,(HL)
027CD 12       LD   (DE),A
027CE 13       INC  DE
027CF 12       LD   (DE),A
027D0 13       INC  DE
027D1 0B       DEC  BC
027D2 78       LD   A,B
027D3 B1       OR   C
027D4 20F6     JR   NZ,27CC
027D6 C9       RET  
027D7 CDC327   CALL 27C3
027DA 01A00D   LD   BC,0DA0
027DD CDA427   CALL 27A4
027E0 C9       RET  
027E1 010010   LD   BC,1000
027E4 110080   LD   DE,8000
027E7 CDA427   CALL 27A4
027EA C9       RET  
027EB 210098   LD   HL,9800
027EE 0612     LD   B,12
027F0 E5       PUSH HL
027F1 0E14     LD   C,14
027F3 1A       LD   A,(DE)
027F4 22       HL++ (HL),A
027F5 13       INC  DE
027F6 0D       DEC  C
027F7 20FA     JR   NZ,27F3
027F9 E1       POP  HL
027FA D5       PUSH DE
027FB 112000   LD   DE,0020
027FE 19       ADD  HL,DE
027FF D1       POP  DE
02800 05       DEC  B
02801 20ED     JR   NZ,27F0
02803 C9       RET  
02804 060A     LD   B,0A
02806 E5       PUSH HL
02807 1A       LD   A,(DE)
02808 FEFF     CP   FF
0280A 280E     JR   Z,281A
0280C 22       HL++ (HL),A
0280D 13       INC  DE
0280E 05       DEC  B
0280F 20F6     JR   NZ,2807
02811 E1       POP  HL
02812 D5       PUSH DE
02813 112000   LD   DE,0020
02816 19       ADD  HL,DE
02817 D1       POP  DE
02818 18EA     JR   2804
0281A E1       POP  HL
0281B 3E02     LD   A,02
0281D E0E3     OUT  (E3),A
0281F C9       RET  
02820 F0FF     IN   A,(FF)
02822 E0A1     OUT  (A1),A
02824 CB87     RES  0,A
02826 E0FF     OUT  (FF),A
02828 F044     IN   A,(44)
0282A FE91     CP   91
0282C 20FA     JR   NZ,2828
0282E F040     IN   A,(40)
02830 E67F     AND  7F
02832 E040     OUT  (40),A
02834 F0A1     IN   A,(A1)
02836 E0FF     OUT  (FF),A
02838 C9       RET  
02839 2F       CPL  
0283A 2F       CPL  
0283B 11121D   LD   DE,1D12
0283E 2F       CPL  
0283F 2F       CPL  
02840 2F       CPL  
02841 2F       CPL  
02842 2F       CPL  
02843 29       ADD  HL,HL
02844 29       ADD  HL,HL
02845 29       ADD  HL,HL
02846 2F       CPL  
02847 2F       CPL  
02848 2F       CPL  
02849 2F       CPL  
0284A 1C       INC  E
0284B 1D       DEC  E
0284C 0A       LD   A,(BC)
0284D 1B       DEC  DE
0284E 1D       DEC  E
0284F 2F       CPL  
02850 2F       CPL  
02851 2F       CPL  
02852 29       ADD  HL,HL
02853 29       ADD  HL,HL
02854 29       ADD  HL,HL
02855 29       ADD  HL,HL
02856 29       ADD  HL,HL
02857 2F       CPL  
02858 2F       CPL  
02859 2F       CPL  
0285A 2F       CPL  
0285B 2F       CPL  
0285C 1D       DEC  E
0285D 182F     JR   288E
0285F 2F       CPL  
02860 2F       CPL  
02861 2F       CPL  
02862 2F       CPL  
02863 2F       CPL  
02864 29       ADD  HL,HL
02865 29       ADD  HL,HL
02866 2F       CPL  
02867 2F       CPL  
02868 2F       CPL  
02869 0C       INC  C
0286A 1817     JR   2883
0286C 1D       DEC  E
0286D 12       LD   (DE),A
0286E 17       RLA  
0286F 1E0E     LD   E,0E
02871 29       ADD  HL,HL
02872 29       ADD  HL,HL
02873 29       ADD  HL,HL
02874 29       ADD  HL,HL
02875 29       ADD  HL,HL
02876 29       ADD  HL,HL
02877 29       ADD  HL,HL
02878 29       ADD  HL,HL
02879 2F       CPL  
0287A 2F       CPL  
0287B 100A     DJNZ 2887
0287D 160E     LD   D,0E
0287F 2F       CPL  
02880 2F       CPL  
02881 2F       CPL  
02882 2F       CPL  
02883 29       ADD  HL,HL
02884 29       ADD  HL,HL
02885 29       ADD  HL,HL
02886 29       ADD  HL,HL
02887 2F       CPL  
02888 2F       CPL  
02889 1C       INC  E
0288A 12       LD   (DE),A
0288B 17       RLA  
0288C 1015     DJNZ 28A3
0288E 0E2F     LD   C,2F
02890 2F       CPL  
02891 2F       CPL  
02892 2F       CPL  
02893 2F       CPL  
02894 00       NOP  
02895 2F       CPL  
02896 262F     LD   H,2F
02898 04       INC  B
02899 00       NOP  
0289A 2F       CPL  
0289B 2F       CPL  
0289C 2F       CPL  
0289D 2F       CPL  
0289E 2F       CPL  
0289F 2F       CPL  
028A0 2F       CPL  
028A1 2F       CPL  
028A2 2F       CPL  
028A3 2F       CPL  
028A4 2F       CPL  
028A5 00       NOP  
028A6 2F       CPL  
028A7 0D       DEC  C
028A8 181E     JR   28C8
028AA 0B       DEC  BC
028AB 15       DEC  D
028AC 0E2F     LD   C,2F
028AE 2F       CPL  
028AF 2F       CPL  
028B0 2F       CPL  
028B1 2F       CPL  
028B2 00       NOP  
028B3 2F       CPL  
028B4 262F     LD   H,2F
028B6 010000   LD   BC,0000
028B9 2F       CPL  
028BA 2F       CPL  
028BB 2F       CPL  
028BC 2F       CPL  
028BD 2F       CPL  
028BE 2F       CPL  
028BF 2F       CPL  
028C0 2F       CPL  
028C1 2F       CPL  
028C2 2F       CPL  
028C3 00       NOP  
028C4 2F       CPL  
028C5 1D       DEC  E
028C6 1B       DEC  DE
028C7 12       LD   (DE),A
028C8 19       ADD  HL,DE
028C9 15       DEC  D
028CA 0E2F     LD   C,2F
028CC 2F       CPL  
028CD 2F       CPL  
028CE 2F       CPL  
028CF 2F       CPL  
028D0 00       NOP  
028D1 2F       CPL  
028D2 262F     LD   H,2F
028D4 03       INC  BC
028D5 00       NOP  
028D6 00       NOP  
028D7 2F       CPL  
028D8 2F       CPL  
028D9 2F       CPL  
028DA 2F       CPL  
028DB 2F       CPL  
028DC 2F       CPL  
028DD 2F       CPL  
028DE 2F       CPL  
028DF 2F       CPL  
028E0 2F       CPL  
028E1 00       NOP  
028E2 2F       CPL  
028E3 1D       DEC  E
028E4 0E1D     LD   C,1D
028E6 1B       DEC  DE
028E7 12       LD   (DE),A
028E8 1C       INC  E
028E9 2F       CPL  
028EA 2F       CPL  
028EB 2F       CPL  
028EC 2F       CPL  
028ED 2F       CPL  
028EE 00       NOP  
028EF 2F       CPL  
028F0 262F     LD   H,2F
028F2 010200   LD   BC,0002
028F5 00       NOP  
028F6 2F       CPL  
028F7 2F       CPL  
028F8 2F       CPL  
028F9 2F       CPL  
028FA 2F       CPL  
028FB 2F       CPL  
028FC 2F       CPL  
028FD 2F       CPL  
028FE 2F       CPL  
028FF 00       NOP  
02900 2F       CPL  
02901 0D       DEC  C
02902 1B       DEC  DE
02903 1819     JR   291E
02905 1C       INC  E
02906 2F       CPL  
02907 2F       CPL  
02908 2F       CPL  
02909 2F       CPL  
0290A 2F       CPL  
0290B 2F       CPL  
0290C 2F       CPL  
0290D 2F       CPL  
0290E 2F       CPL  
0290F 2F       CPL  
02910 2F       CPL  
02911 2F       CPL  
02912 2F       CPL  
02913 00       NOP  
02914 2F       CPL  
02915 2F       CPL  
02916 2F       CPL  
02917 2F       CPL  
02918 2F       CPL  
02919 2F       CPL  
0291A 2F       CPL  
0291B 2F       CPL  
0291C 2F       CPL  
0291D 2F       CPL  
0291E 2F       CPL  
0291F 29       ADD  HL,HL
02920 29       ADD  HL,HL
02921 29       ADD  HL,HL
02922 29       ADD  HL,HL
02923 29       ADD  HL,HL
02924 29       ADD  HL,HL
02925 29       ADD  HL,HL
02926 29       ADD  HL,HL
02927 29       ADD  HL,HL
02928 29       ADD  HL,HL
02929 1D       DEC  E
0292A 11121C   LD   DE,1C12
0292D 2F       CPL  
0292E 1C       INC  E
0292F 1D       DEC  E
02930 0A       LD   A,(BC)
02931 100E     DJNZ 2941
02933 2F       CPL  
02934 2F       CPL  
02935 2F       CPL  
02936 2F       CPL  
02937 2F       CPL  
02938 2F       CPL  
02939 2F       CPL  
0293A 2F       CPL  
0293B 00       NOP  
0293C 2F       CPL  
0293D FF       RST  38
0293E 61       LD   H,C
0293F 62       LD   H,D
02940 62       LD   H,D
02941 62       LD   H,D
02942 62       LD   H,D
02943 62       LD   H,D
02944 62       LD   H,D
02945 63       LD   H,E
02946 64       LD   H,H
02947 2F       CPL  
02948 2F       CPL  
02949 2F       CPL  
0294A 2F       CPL  
0294B 2F       CPL  
0294C 2F       CPL  
0294D 65       LD   H,L
0294E 64       LD   H,H
0294F 2F       CPL  
02950 100A     DJNZ 295C
02952 160E     LD   D,0E
02954 2F       CPL  
02955 65       LD   H,L
02956 64       LD   H,H
02957 2F       CPL  
02958 AD       XOR  L
02959 AD       XOR  L
0295A AD       XOR  L
0295B AD       XOR  L
0295C 2F       CPL  
0295D 65       LD   H,L
0295E 64       LD   H,H
0295F 2F       CPL  
02960 181F     JR   2981
02962 0E1B     LD   C,1B
02964 2F       CPL  
02965 65       LD   H,L
02966 64       LD   H,H
02967 2F       CPL  
02968 AD       XOR  L
02969 AD       XOR  L
0296A AD       XOR  L
0296B AD       XOR  L
0296C 2F       CPL  
0296D 65       LD   H,L
0296E 66       LD   H,(HL)
0296F 69       LD   L,C
02970 69       LD   L,C
02971 69       LD   L,C
02972 69       LD   L,C
02973 69       LD   L,C
02974 69       LD   L,C
02975 6A       LD   L,D
02976 19       ADD  HL,DE
02977 15       DEC  D
02978 0E0A     LD   C,0A
0297A 1C       INC  E
0297B 0E2F     LD   C,2F
0297D 2F       CPL  
0297E 29       ADD  HL,HL
0297F 29       ADD  HL,HL
02980 29       ADD  HL,HL
02981 29       ADD  HL,HL
02982 29       ADD  HL,HL
02983 29       ADD  HL,HL
02984 2F       CPL  
02985 2F       CPL  
02986 2F       CPL  
02987 1D       DEC  E
02988 1B       DEC  DE
02989 22       HL++ (HL),A
0298A 2F       CPL  
0298B 2F       CPL  
0298C 2F       CPL  
0298D 2F       CPL  
0298E 2F       CPL  
0298F 29       ADD  HL,HL
02990 29       ADD  HL,HL
02991 29       ADD  HL,HL
02992 2F       CPL  
02993 2F       CPL  
02994 2F       CPL  
02995 2F       CPL  
02996 2F       CPL  
02997 2F       CPL  
02998 0A       LD   A,(BC)
02999 100A     DJNZ 29A5
0299B 12       LD   (DE),A
0299C 17       RLA  
0299D 27       DAA  
0299E 2F       CPL  
0299F 2F       CPL  
029A0 29       ADD  HL,HL
029A1 29       ADD  HL,HL
029A2 29       ADD  HL,HL
029A3 29       ADD  HL,HL
029A4 29       ADD  HL,HL
029A5 2F       CPL  
029A6 3E20     LD   A,20
029A8 E000     OUT  (00),A
029AA F000     IN   A,(00)
029AC F000     IN   A,(00)
029AE F000     IN   A,(00)
029B0 F000     IN   A,(00)
029B2 2F       CPL  
029B3 E60F     AND  0F
029B5 CB37     RDX  A
029B7 47       LD   B,A
029B8 3E10     LD   A,10
029BA E000     OUT  (00),A
029BC F000     IN   A,(00)
029BE F000     IN   A,(00)
029C0 F000     IN   A,(00)
029C2 F000     IN   A,(00)
029C4 F000     IN   A,(00)
029C6 F000     IN   A,(00)
029C8 F000     IN   A,(00)
029CA F000     IN   A,(00)
029CC F000     IN   A,(00)
029CE F000     IN   A,(00)
029D0 2F       CPL  
029D1 E60F     AND  0F
029D3 B0       OR   B
029D4 4F       LD   C,A
029D5 F080     IN   A,(80)
029D7 A9       XOR  C
029D8 A1       AND  C
029D9 E081     OUT  (81),A
029DB 79       LD   A,C
029DC E080     OUT  (80),A
029DE 3E30     LD   A,30
029E0 E000     OUT  (00),A
029E2 C9       RET  
029E3 F0B2     IN   A,(B2)
029E5 D610     SUB  10
029E7 CB3F     SRL  A
029E9 CB3F     SRL  A
029EB CB3F     SRL  A
029ED 110000   LD   DE,0000
029F0 5F       LD   E,A
029F1 210098   LD   HL,9800
029F4 0620     LD   B,20
029F6 19       ADD  HL,DE
029F7 05       DEC  B
029F8 20FC     JR   NZ,29F6
029FA F0B3     IN   A,(B3)
029FC D608     SUB  08
029FE CB3F     SRL  A
02A00 CB3F     SRL  A
02A02 CB3F     SRL  A
02A04 110000   LD   DE,0000
02A07 5F       LD   E,A
02A08 19       ADD  HL,DE
02A09 7C       LD   A,H
02A0A E0B5     OUT  (B5),A
02A0C 7D       LD   A,L
02A0D E0B4     OUT  (B4),A
02A0F C9       RET  
02A10 F0B5     IN   A,(B5)
02A12 57       LD   D,A
02A13 F0B4     IN   A,(B4)
02A15 5F       LD   E,A
02A16 0604     LD   B,04
02A18 CB1A     RR   D
02A1A CB1B     RR   E
02A1C 05       DEC  B
02A1D 20F9     JR   NZ,2A18
02A1F 7B       LD   A,E
02A20 D684     SUB  84
02A22 E6FE     AND  FE
02A24 07       RLCA 
02A25 07       RLCA 
02A26 C608     ADD  A,08
02A28 E0B2     OUT  (B2),A
02A2A F0B4     IN   A,(B4)
02A2C E61F     AND  1F
02A2E 17       RLA  
02A2F 17       RLA  
02A30 17       RLA  
02A31 C608     ADD  A,08
02A33 E0B3     OUT  (B3),A
02A35 C9       RET  
02A36 F0E0     IN   A,(E0)
02A38 A7       AND  A
02A39 C8       RET  Z
02A3A 0E03     LD   C,03
02A3C AF       XOR  A
02A3D E0E0     OUT  (E0),A
02A3F 1A       LD   A,(DE)
02A40 47       LD   B,A
02A41 CB37     RDX  A
02A43 E60F     AND  0F
02A45 2028     JR   NZ,2A6F
02A47 F0E0     IN   A,(E0)
02A49 A7       AND  A
02A4A 3E00     LD   A,00
02A4C 2002     JR   NZ,2A50
02A4E 3E2F     LD   A,2F
02A50 22       HL++ (HL),A
02A51 78       LD   A,B
02A52 E60F     AND  0F
02A54 2021     JR   NZ,2A77
02A56 F0E0     IN   A,(E0)
02A58 A7       AND  A
02A59 3E00     LD   A,00
02A5B 2009     JR   NZ,2A66
02A5D 3E01     LD   A,01
02A5F B9       CP   C
02A60 3E00     LD   A,00
02A62 2802     JR   Z,2A66
02A64 3E2F     LD   A,2F
02A66 22       HL++ (HL),A
02A67 1D       DEC  E
02A68 0D       DEC  C
02A69 20D4     JR   NZ,2A3F
02A6B AF       XOR  A
02A6C E0E0     OUT  (E0),A
02A6E C9       RET  
02A6F F5       PUSH AF
02A70 3E01     LD   A,01
02A72 E0E0     OUT  (E0),A
02A74 F1       POP  AF
02A75 18D9     JR   2A50
02A77 F5       PUSH AF
02A78 3E01     LD   A,01
02A7A E0E0     OUT  (E0),A
02A7C F1       POP  AF
02A7D 18E7     JR   2A66
02A7F 3EC0     LD   A,C0
02A81 E046     OUT  (46),A
02A83 3E28     LD   A,28
02A85 3D       DEC  A
02A86 20FD     JR   NZ,2A85
02A88 C9       RET  
02A89 7C       LD   A,H
02A8A E096     OUT  (96),A
02A8C 7D       LD   A,L
02A8D E097     OUT  (97),A
02A8F 7E       LD   A,(HL)
02A90 A7       AND  A
02A91 281D     JR   Z,2AB0
02A93 FE80     CP   80
02A95 2817     JR   Z,2AAE
02A97 F096     IN   A,(96)
02A99 67       LD   H,A
02A9A F097     IN   A,(97)
02A9C 6F       LD   L,A
02A9D 111000   LD   DE,0010
02AA0 19       ADD  HL,DE
02AA1 F08F     IN   A,(8F)
02AA3 3D       DEC  A
02AA4 E08F     OUT  (8F),A
02AA6 C8       RET  Z
02AA7 18E0     JR   2A89
02AA9 AF       XOR  A
02AAA E095     OUT  (95),A
02AAC 18E9     JR   2A97
02AAE E095     OUT  (95),A
02AB0 0607     LD   B,07
02AB2 1186FF   LD   DE,FF86
02AB5 2A       HL++ A,(HL)
02AB6 12       LD   (DE),A
02AB7 13       INC  DE
02AB8 05       DEC  B
02AB9 20FA     JR   NZ,2AB5
02ABB F089     IN   A,(89)
02ABD 21642B   LD   HL,2B64
02AC0 07       RLCA 
02AC1 5F       LD   E,A
02AC2 1600     LD   D,00
02AC4 19       ADD  HL,DE
02AC5 5E       LD   E,(HL)
02AC6 23       INC  HL
02AC7 56       LD   D,(HL)
02AC8 1A       LD   A,(DE)
02AC9 6F       LD   L,A
02ACA 13       INC  DE
02ACB 1A       LD   A,(DE)
02ACC 67       LD   H,A
02ACD 13       INC  DE
02ACE 1A       LD   A,(DE)
02ACF E090     OUT  (90),A
02AD1 13       INC  DE
02AD2 1A       LD   A,(DE)
02AD3 E091     OUT  (91),A
02AD5 5E       LD   E,(HL)
02AD6 23       INC  HL
02AD7 56       LD   D,(HL)
02AD8 23       INC  HL
02AD9 F08C     IN   A,(8C)
02ADB E094     OUT  (94),A
02ADD 7E       LD   A,(HL)
02ADE FEFF     CP   FF
02AE0 28C7     JR   Z,2AA9
02AE2 FEFD     CP   FD
02AE4 200E     JR   NZ,2AF4
02AE6 F08C     IN   A,(8C)
02AE8 EE20     XOR  20
02AEA E094     OUT  (94),A
02AEC 23       INC  HL
02AED 7E       LD   A,(HL)
02AEE 1808     JR   2AF8
02AF0 13       INC  DE
02AF1 13       INC  DE
02AF2 18E4     JR   2AD8
02AF4 FEFE     CP   FE
02AF6 28F8     JR   Z,2AF0
02AF8 E089     OUT  (89),A
02AFA F087     IN   A,(87)
02AFC 47       LD   B,A
02AFD 1A       LD   A,(DE)
02AFE 4F       LD   C,A
02AFF F08B     IN   A,(8B)
02B01 CB77     BIT  6,A
02B03 2006     JR   NZ,2B0B
02B05 F090     IN   A,(90)
02B07 80       ADD  A,B
02B08 89       ADC  A,C
02B09 180A     JR   2B15
02B0B 78       LD   A,B
02B0C F5       PUSH AF
02B0D F090     IN   A,(90)
02B0F 47       LD   B,A
02B10 F1       POP  AF
02B11 90       SUB  B
02B12 99       SBC  A,C
02B13 DE08     SBC  A,08
02B15 E093     OUT  (93),A
02B17 F088     IN   A,(88)
02B19 47       LD   B,A
02B1A 13       INC  DE
02B1B 1A       LD   A,(DE)
02B1C 13       INC  DE
02B1D 4F       LD   C,A
02B1E F08B     IN   A,(8B)
02B20 CB6F     BIT  5,A
02B22 2006     JR   NZ,2B2A
02B24 F091     IN   A,(91)
02B26 80       ADD  A,B
02B27 89       ADC  A,C
02B28 180A     JR   2B34
02B2A 78       LD   A,B
02B2B F5       PUSH AF
02B2C F091     IN   A,(91)
02B2E 47       LD   B,A
02B2F F1       POP  AF
02B30 90       SUB  B
02B31 99       SBC  A,C
02B32 DE08     SBC  A,08
02B34 E092     OUT  (92),A
02B36 E5       PUSH HL
02B37 F08D     IN   A,(8D)
02B39 67       LD   H,A
02B3A F08E     IN   A,(8E)
02B3C 6F       LD   L,A
02B3D F095     IN   A,(95)
02B3F A7       AND  A
02B40 2804     JR   Z,2B46
02B42 3EFF     LD   A,FF
02B44 1802     JR   2B48
02B46 F093     IN   A,(93)
02B48 22       HL++ (HL),A
02B49 F092     IN   A,(92)
02B4B 22       HL++ (HL),A
02B4C F089     IN   A,(89)
02B4E 22       HL++ (HL),A
02B4F F094     IN   A,(94)
02B51 47       LD   B,A
02B52 F08B     IN   A,(8B)
02B54 B0       OR   B
02B55 47       LD   B,A
02B56 F08A     IN   A,(8A)
02B58 B0       OR   B
02B59 22       HL++ (HL),A
02B5A 7C       LD   A,H
02B5B E08D     OUT  (8D),A
02B5D 7D       LD   A,L
02B5E E08E     OUT  (8E),A
02B60 E1       POP  HL
02B61 C3D82A   JP   2AD8
02B64 202C     JR   NZ,2B92
02B66 24       INC  H
02B67 2C       INC  L
02B68 282C     JR   Z,2B96
02B6A 2C       INC  L
02B6B 2C       INC  L
02B6C 302C     JR   NC,2B9A
02B6E 34       INC  (HL)
02B6F 2C       INC  L
02B70 382C     JR   C,2B9E
02B72 3C       INC  A
02B73 2C       INC  L
02B74 40       LD   B,B
02B75 2C       INC  L
02B76 44       LD   B,H
02B77 2C       INC  L
02B78 48       LD   C,B
02B79 2C       INC  L
02B7A 4C       LD   C,H
02B7B 2C       INC  L
02B7C 50       LD   D,B
02B7D 2C       INC  L
02B7E 54       LD   D,H
02B7F 2C       INC  L
02B80 58       LD   E,B
02B81 2C       INC  L
02B82 5C       LD   E,H
02B83 2C       INC  L
02B84 60       LD   H,B
02B85 2C       INC  L
02B86 64       LD   H,H
02B87 2C       INC  L
02B88 68       LD   L,B
02B89 2C       INC  L
02B8A 6C       LD   L,H
02B8B 2C       INC  L
02B8C 70       LD   (HL),B
02B8D 2C       INC  L
02B8E 74       LD   (HL),H
02B8F 2C       INC  L
02B90 78       LD   A,B
02B91 2C       INC  L
02B92 7C       LD   A,H
02B93 2C       INC  L
02B94 80       ADD  A,B
02B95 2C       INC  L
02B96 84       ADD  A,H
02B97 2C       INC  L
02B98 88       ADC  A,B
02B99 2C       INC  L
02B9A 8C       ADC  A,H
02B9B 2C       INC  L
02B9C 90       SUB  B
02B9D 2C       INC  L
02B9E 94       SUB  H
02B9F 2C       INC  L
02BA0 98       SBC  A,B
02BA1 2C       INC  L
02BA2 9C       SBC  A,H
02BA3 2C       INC  L
02BA4 A0       AND  B
02BA5 2C       INC  L
02BA6 A4       AND  H
02BA7 2C       INC  L
02BA8 A8       XOR  B
02BA9 2C       INC  L
02BAA AC       XOR  H
02BAB 2C       INC  L
02BAC B0       OR   B
02BAD 2C       INC  L
02BAE B4       OR   H
02BAF 2C       INC  L
02BB0 B8       CP   B
02BB1 2C       INC  L
02BB2 BC       CP   H
02BB3 2C       INC  L
02BB4 C0       RET  NZ
02BB5 2C       INC  L
02BB6 C42CC8   CALL NZ,C82C
02BB9 2C       INC  L
02BBA CC2CC7   CALL Z,C72C
02BBD 30CC     JR   NC,2B8B
02BBF 2C       INC  L
02BC0 D0       RET  NC
02BC1 2C       INC  L
02BC2 D42CD8   CALL NC,D82C
02BC5 2C       INC  L
02BC6 DC2CE0   CALL C,E02C
02BC9 2C       INC  L
02BCA E42CEA   CALL PO,EA2C
02BCD 30EE     JR   NC,2BBD
02BCF 30E8     JR   NC,2BB9
02BD1 2C       INC  L
02BD2 EC2CF2   CALL PE,F22C
02BD5 30F6     JR   NC,2BCD
02BD7 30F0     JR   NC,2BC9
02BD9 2C       INC  L
02BDA F42CF8   CALL P,F82C
02BDD 2C       INC  L
02BDE FC2C00   CALL M,002C
02BE1 2D       DEC  L
02BE2 04       INC  B
02BE3 2D       DEC  L
02BE4 FA30FE   LD   A,(FE30)
02BE7 3004     JR   NC,2BED
02BE9 2D       DEC  L
02BEA 08       EX   AF,AF
02BEB 2D       DEC  L
02BEC 08       EX   AF,AF
02BED 2D       DEC  L
02BEE 0C       INC  C
02BEF 2D       DEC  L
02BF0 102D     DJNZ 2C1F
02BF2 14       INC  D
02BF3 2D       DEC  L
02BF4 182D     JR   2C23
02BF6 1C       INC  E
02BF7 2D       DEC  L
02BF8 202D     JR   NZ,2C27
02BFA 24       INC  H
02BFB 2D       DEC  L
02BFC 282D     JR   Z,2C2B
02BFE 2C       INC  L
02BFF 2D       DEC  L
02C00 302D     JR   NC,2C2F
02C02 34       INC  (HL)
02C03 2D       DEC  L
02C04 382D     JR   C,2C33
02C06 3C       INC  A
02C07 2D       DEC  L
02C08 40       LD   B,B
02C09 2D       DEC  L
02C0A 44       LD   B,H
02C0B 2D       DEC  L
02C0C 48       LD   C,B
02C0D 2D       DEC  L
02C0E 4C       LD   C,H
02C0F 2D       DEC  L
02C10 50       LD   D,B
02C11 2D       DEC  L
02C12 54       LD   D,H
02C13 2D       DEC  L
02C14 0A       LD   A,(BC)
02C15 310E31   LD   SP,310E
02C18 12       LD   (DE),A
02C19 311231   LD   SP,3112
02C1C 02       LD   (BC),A
02C1D 310631   LD   SP,3106
02C20 58       LD   E,B
02C21 2D       DEC  L
02C22 EF       RST  28
02C23 F068     IN   A,(68)
02C25 2D       DEC  L
02C26 EF       RST  28
02C27 F07A     IN   A,(7A)
02C29 2D       DEC  L
02C2A EF       RST  28
02C2B F089     IN   A,(89)
02C2D 2D       DEC  L
02C2E EF       RST  28
02C2F F09A     IN   A,(9A)
02C31 2D       DEC  L
02C32 EF       RST  28
02C33 F0AC     IN   A,(AC)
02C35 2D       DEC  L
02C36 EF       RST  28
02C37 F0BD     IN   A,(BD)
02C39 2D       DEC  L
02C3A EF       RST  28
02C3B F0CB     IN   A,(CB)
02C3D 2D       DEC  L
02C3E EF       RST  28
02C3F F0DC     IN   A,(DC)
02C41 2D       DEC  L
02C42 EF       RST  28
02C43 F0EB     IN   A,(EB)
02C45 2D       DEC  L
02C46 EF       RST  28
02C47 F0FC     IN   A,(FC)
02C49 2D       DEC  L
02C4A EF       RST  28
02C4B F00B     IN   A,(0B)
02C4D 2EEF     LD   L,EF
02C4F F01C     IN   A,(1C)
02C51 2EEF     LD   L,EF
02C53 F02E     IN   A,(2E)
02C55 2EEF     LD   L,EF
02C57 F040     IN   A,(40)
02C59 2EEF     LD   L,EF
02C5B F052     IN   A,(52)
02C5D 2EEF     LD   L,EF
02C5F F064     IN   A,(64)
02C61 2EEF     LD   L,EF
02C63 F076     IN   A,(76)
02C65 2EEF     LD   L,EF
02C67 F086     IN   A,(86)
02C69 2EEF     LD   L,EF
02C6B F098     IN   A,(98)
02C6D 2EEF     LD   L,EF
02C6F F0A8     IN   A,(A8)
02C71 2EEF     LD   L,EF
02C73 F0B9     IN   A,(B9)
02C75 2EEF     LD   L,EF
02C77 F0CA     IN   A,(CA)
02C79 2EEF     LD   L,EF
02C7B F0DB     IN   A,(DB)
02C7D 2EEF     LD   L,EF
02C7F F00B     IN   A,(0B)
02C81 2F       CPL  
02C82 EF       RST  28
02C83 F01C     IN   A,(1C)
02C85 2F       CPL  
02C86 EF       RST  28
02C87 F0EC     IN   A,(EC)
02C89 2EEF     LD   L,EF
02C8B F0FA     IN   A,(FA)
02C8D 2EEF     LD   L,EF
02C8F F02D     IN   A,(2D)
02C91 2F       CPL  
02C92 00       NOP  
02C93 E8       RET  PE
02C94 362F     LD   (HL),2F
02C96 00       NOP  
02C97 E8       RET  PE
02C98 3F       CCF  
02C99 2F       CPL  
02C9A 00       NOP  
02C9B E8       RET  PE
02C9C 48       LD   C,B
02C9D 2F       CPL  
02C9E 00       NOP  
02C9F E8       RET  PE
02CA0 51       LD   D,C
02CA1 2F       CPL  
02CA2 00       NOP  
02CA3 00       NOP  
02CA4 55       LD   D,L
02CA5 2F       CPL  
02CA6 00       NOP  
02CA7 00       NOP  
02CA8 59       LD   E,C
02CA9 2F       CPL  
02CAA 00       NOP  
02CAB 00       NOP  
02CAC 5D       LD   E,L
02CAD 2F       CPL  
02CAE 00       NOP  
02CAF 00       NOP  
02CB0 61       LD   H,C
02CB1 2F       CPL  
02CB2 00       NOP  
02CB3 00       NOP  
02CB4 65       LD   H,L
02CB5 2F       CPL  
02CB6 00       NOP  
02CB7 00       NOP  
02CB8 69       LD   L,C
02CB9 2F       CPL  
02CBA 00       NOP  
02CBB 00       NOP  
02CBC 6D       LD   L,L
02CBD 2F       CPL  
02CBE 00       NOP  
02CBF 00       NOP  
02CC0 71       LD   (HL),C
02CC1 2F       CPL  
02CC2 00       NOP  
02CC3 00       NOP  
02CC4 75       LD   (HL),L
02CC5 2F       CPL  
02CC6 00       NOP  
02CC7 00       NOP  
02CC8 79       LD   A,C
02CC9 2F       CPL  
02CCA F0F8     IN   A,(F8)
02CCC 84       ADD  A,H
02CCD 2F       CPL  
02CCE F0F8     IN   A,(F8)
02CD0 8F       ADC  A,A
02CD1 2F       CPL  
02CD2 F0F0     IN   A,(F0)
02CD4 A3       AND  E
02CD5 2F       CPL  
02CD6 F0F0     IN   A,(F0)
02CD8 B8       CP   B
02CD9 2F       CPL  
02CDA F8       RET  M
02CDB F8       RET  M
02CDC C1       POP  BC
02CDD 2F       CPL  
02CDE F8       RET  M
02CDF F8       RET  M
02CE0 CA2FF8   JP   Z,F82F
02CE3 F8       RET  M
02CE4 D1       POP  DE
02CE5 2F       CPL  
02CE6 F8       RET  M
02CE7 F8       RET  M
02CE8 D8       RET  C
02CE9 2F       CPL  
02CEA F0F8     IN   A,(F8)
02CEC E3       EX   (SP),HL
02CED 2F       CPL  
02CEE F0F8     IN   A,(F8)
02CF0 EE2F     XOR  2F
02CF2 F0F0     IN   A,(F0)
02CF4 03       INC  BC
02CF5 30F0     JR   NC,2CE7
02CF7 F019     IN   A,(19)
02CF9 30F8     JR   NC,2CF3
02CFB F8       RET  M
02CFC 22       HL++ (HL),A
02CFD 30F8     JR   NC,2CF7
02CFF F8       RET  M
02D00 2B       DEC  HL
02D01 30F8     JR   NC,2CFB
02D03 F8       RET  M
02D04 32       HL-- (HL),A
02D05 30F8     JR   NC,2CFF
02D07 F8       RET  M
02D08 39       ADD  HL,SP
02D09 30F8     JR   NC,2D03
02D0B F8       RET  M
02D0C 40       LD   B,B
02D0D 30F8     JR   NC,2D07
02D0F F8       RET  M
02D10 47       LD   B,A
02D11 30F8     JR   NC,2D0B
02D13 F8       RET  M
02D14 4E       LD   C,(HL)
02D15 30F8     JR   NC,2D0F
02D17 F8       RET  M
02D18 55       LD   D,L
02D19 30F8     JR   NC,2D13
02D1B F8       RET  M
02D1C 5C       LD   E,H
02D1D 30F8     JR   NC,2D17
02D1F F8       RET  M
02D20 67       LD   H,A
02D21 30F8     JR   NC,2D1B
02D23 F8       RET  M
02D24 6E       LD   L,(HL)
02D25 30F8     JR   NC,2D1F
02D27 F8       RET  M
02D28 75       LD   (HL),L
02D29 30F8     JR   NC,2D23
02D2B F8       RET  M
02D2C 7C       LD   A,H
02D2D 30F8     JR   NC,2D27
02D2F F8       RET  M
02D30 83       ADD  A,E
02D31 30F8     JR   NC,2D2B
02D33 F8       RET  M
02D34 8C       ADC  A,H
02D35 30F8     JR   NC,2D2F
02D37 F8       RET  M
02D38 95       SUB  L
02D39 30F8     JR   NC,2D33
02D3B F8       RET  M
02D3C 9E       SBC  A,(HL)
02D3D 30F8     JR   NC,2D37
02D3F F8       RET  M
02D40 A7       AND  A
02D41 30F8     JR   NC,2D3B
02D43 F8       RET  M
02D44 B0       OR   B
02D45 30F8     JR   NC,2D3F
02D47 F8       RET  M
02D48 B9       CP   C
02D49 30F8     JR   NC,2D43
02D4B F8       RET  M
02D4C C0       RET  NZ
02D4D 30F8     JR   NC,2D47
02D4F F8       RET  M
02D50 46       LD   B,(HL)
02D51 31F0F0   LD   SP,F0F0
02D54 5D       LD   E,L
02D55 31F8F8   LD   SP,F8F8
02D58 A9       XOR  C
02D59 31FEFE   LD   SP,FEFE
02D5C FEFE     CP   FE
02D5E FEFE     CP   FE
02D60 FEFE     CP   FE
02D62 84       ADD  A,H
02D63 84       ADD  A,H
02D64 84       ADD  A,H
02D65 FE84     CP   84
02D67 FF       RST  38
02D68 A9       XOR  C
02D69 31FEFE   LD   SP,FEFE
02D6C FEFE     CP   FE
02D6E FE84     CP   84
02D70 FEFE     CP   FE
02D72 FE84     CP   84
02D74 FEFE     CP   FE
02D76 FE84     CP   84
02D78 84       ADD  A,H
02D79 FF       RST  38
02D7A A9       XOR  C
02D7B 31FEFE   LD   SP,FEFE
02D7E FEFE     CP   FE
02D80 FEFE     CP   FE
02D82 84       ADD  A,H
02D83 FE84     CP   84
02D85 84       ADD  A,H
02D86 84       ADD  A,H
02D87 FEFF     CP   FF
02D89 A9       XOR  C
02D8A 31FEFE   LD   SP,FEFE
02D8D FEFE     CP   FE
02D8F 84       ADD  A,H
02D90 84       ADD  A,H
02D91 FEFE     CP   FE
02D93 FE84     CP   84
02D95 FEFE     CP   FE
02D97 FE84     CP   84
02D99 FF       RST  38
02D9A A9       XOR  C
02D9B 31FEFE   LD   SP,FEFE
02D9E FEFE     CP   FE
02DA0 FEFE     CP   FE
02DA2 FEFE     CP   FE
02DA4 81       ADD  A,C
02DA5 81       ADD  A,C
02DA6 81       ADD  A,C
02DA7 FEFE     CP   FE
02DA9 FE81     CP   81
02DAB FF       RST  38
02DAC A9       XOR  C
02DAD 31FEFE   LD   SP,FEFE
02DB0 FEFE     CP   FE
02DB2 FE81     CP   81
02DB4 81       ADD  A,C
02DB5 FEFE     CP   FE
02DB7 81       ADD  A,C
02DB8 FEFE     CP   FE
02DBA FE81     CP   81
02DBC FF       RST  38
02DBD A9       XOR  C
02DBE 31FEFE   LD   SP,FEFE
02DC1 FEFE     CP   FE
02DC3 81       ADD  A,C
02DC4 FEFE     CP   FE
02DC6 FE81     CP   81
02DC8 81       ADD  A,C
02DC9 81       ADD  A,C
02DCA FF       RST  38
02DCB A9       XOR  C
02DCC 31FEFE   LD   SP,FEFE
02DCF FEFE     CP   FE
02DD1 FE81     CP   81
02DD3 FEFE     CP   FE
02DD5 FE81     CP   81
02DD7 FEFE     CP   FE
02DD9 81       ADD  A,C
02DDA 81       ADD  A,C
02DDB FF       RST  38
02DDC A9       XOR  C
02DDD 31FEFE   LD   SP,FEFE
02DE0 FEFE     CP   FE
02DE2 FEFE     CP   FE
02DE4 FEFE     CP   FE
02DE6 8A       ADC  A,D
02DE7 8B       ADC  A,E
02DE8 8B       ADC  A,E
02DE9 8F       ADC  A,A
02DEA FF       RST  38
02DEB A9       XOR  C
02DEC 31FE80   LD   SP,80FE
02DEF FEFE     CP   FE
02DF1 FE88     CP   88
02DF3 FEFE     CP   FE
02DF5 FE88     CP   88
02DF7 FEFE     CP   FE
02DF9 FE89     CP   89
02DFB FF       RST  38
02DFC A9       XOR  C
02DFD 31FEFE   LD   SP,FEFE
02E00 FEFE     CP   FE
02E02 FEFE     CP   FE
02E04 FEFE     CP   FE
02E06 8A       ADC  A,D
02E07 8B       ADC  A,E
02E08 8B       ADC  A,E
02E09 8F       ADC  A,A
02E0A FF       RST  38
02E0B A9       XOR  C
02E0C 31FE80   LD   SP,80FE
02E0F FEFE     CP   FE
02E11 FE88     CP   88
02E13 FEFE     CP   FE
02E15 FE88     CP   88
02E17 FEFE     CP   FE
02E19 FE89     CP   89
02E1B FF       RST  38
02E1C A9       XOR  C
02E1D 31FEFE   LD   SP,FEFE
02E20 FEFE     CP   FE
02E22 FEFE     CP   FE
02E24 FEFE     CP   FE
02E26 FE83     CP   83
02E28 83       ADD  A,E
02E29 FEFE     CP   FE
02E2B 83       ADD  A,E
02E2C 83       ADD  A,E
02E2D FF       RST  38
02E2E A9       XOR  C
02E2F 31FEFE   LD   SP,FEFE
02E32 FEFE     CP   FE
02E34 FEFE     CP   FE
02E36 FEFE     CP   FE
02E38 FE83     CP   83
02E3A 83       ADD  A,E
02E3B FEFE     CP   FE
02E3D 83       ADD  A,E
02E3E 83       ADD  A,E
02E3F FF       RST  38
02E40 A9       XOR  C
02E41 31FEFE   LD   SP,FEFE
02E44 FEFE     CP   FE
02E46 FEFE     CP   FE
02E48 FEFE     CP   FE
02E4A FE83     CP   83
02E4C 83       ADD  A,E
02E4D FEFE     CP   FE
02E4F 83       ADD  A,E
02E50 83       ADD  A,E
02E51 FF       RST  38
02E52 A9       XOR  C
02E53 31FEFE   LD   SP,FEFE
02E56 FEFE     CP   FE
02E58 FEFE     CP   FE
02E5A FEFE     CP   FE
02E5C FE83     CP   83
02E5E 83       ADD  A,E
02E5F FEFE     CP   FE
02E61 83       ADD  A,E
02E62 83       ADD  A,E
02E63 FF       RST  38
02E64 A9       XOR  C
02E65 31FEFE   LD   SP,FEFE
02E68 FEFE     CP   FE
02E6A FEFE     CP   FE
02E6C FEFE     CP   FE
02E6E 82       ADD  A,D
02E6F 82       ADD  A,D
02E70 FEFE     CP   FE
02E72 FE82     CP   82
02E74 82       ADD  A,D
02E75 FF       RST  38
02E76 A9       XOR  C
02E77 31FEFE   LD   SP,FEFE
02E7A FEFE     CP   FE
02E7C FE82     CP   82
02E7E FEFE     CP   FE
02E80 82       ADD  A,D
02E81 82       ADD  A,D
02E82 FEFE     CP   FE
02E84 82       ADD  A,D
02E85 FF       RST  38
02E86 A9       XOR  C
02E87 31FEFE   LD   SP,FEFE
02E8A FEFE     CP   FE
02E8C FEFE     CP   FE
02E8E FEFE     CP   FE
02E90 82       ADD  A,D
02E91 82       ADD  A,D
02E92 FEFE     CP   FE
02E94 FE82     CP   82
02E96 82       ADD  A,D
02E97 FF       RST  38
02E98 A9       XOR  C
02E99 31FEFE   LD   SP,FEFE
02E9C FEFE     CP   FE
02E9E FE82     CP   82
02EA0 FEFE     CP   FE
02EA2 82       ADD  A,D
02EA3 82       ADD  A,D
02EA4 FEFE     CP   FE
02EA6 82       ADD  A,D
02EA7 FF       RST  38
02EA8 A9       XOR  C
02EA9 31FEFE   LD   SP,FEFE
02EAC FEFE     CP   FE
02EAE FEFE     CP   FE
02EB0 FEFE     CP   FE
02EB2 FE86     CP   86
02EB4 86       ADD  A,(HL)
02EB5 FE86     CP   86
02EB7 86       ADD  A,(HL)
02EB8 FF       RST  38
02EB9 A9       XOR  C
02EBA 31FEFE   LD   SP,FEFE
02EBD FEFE     CP   FE
02EBF 86       ADD  A,(HL)
02EC0 FEFE     CP   FE
02EC2 FE86     CP   86
02EC4 86       ADD  A,(HL)
02EC5 FEFE     CP   FE
02EC7 FE86     CP   86
02EC9 FF       RST  38
02ECA A9       XOR  C
02ECB 31FEFE   LD   SP,FEFE
02ECE FEFE     CP   FE
02ED0 FEFE     CP   FE
02ED2 FEFE     CP   FE
02ED4 FE86     CP   86
02ED6 86       ADD  A,(HL)
02ED7 FE86     CP   86
02ED9 86       ADD  A,(HL)
02EDA FF       RST  38
02EDB A9       XOR  C
02EDC 31FEFE   LD   SP,FEFE
02EDF FEFE     CP   FE
02EE1 86       ADD  A,(HL)
02EE2 FEFE     CP   FE
02EE4 FE86     CP   86
02EE6 86       ADD  A,(HL)
02EE7 FEFE     CP   FE
02EE9 FE86     CP   86
02EEB FF       RST  38
02EEC A9       XOR  C
02EED 31FEFE   LD   SP,FEFE
02EF0 FEFE     CP   FE
02EF2 FE85     CP   85
02EF4 FEFE     CP   FE
02EF6 85       ADD  A,L
02EF7 85       ADD  A,L
02EF8 85       ADD  A,L
02EF9 FF       RST  38
02EFA A9       XOR  C
02EFB 31FEFE   LD   SP,FEFE
02EFE FEFE     CP   FE
02F00 FE85     CP   85
02F02 FEFE     CP   FE
02F04 85       ADD  A,L
02F05 85       ADD  A,L
02F06 FEFE     CP   FE
02F08 FE85     CP   85
02F0A FF       RST  38
02F0B A9       XOR  C
02F0C 31FEFE   LD   SP,FEFE
02F0F FEFE     CP   FE
02F11 FEFE     CP   FE
02F13 FEFE     CP   FE
02F15 85       ADD  A,L
02F16 85       ADD  A,L
02F17 85       ADD  A,L
02F18 FEFE     CP   FE
02F1A 85       ADD  A,L
02F1B FF       RST  38
02F1C A9       XOR  C
02F1D 31FEFE   LD   SP,FEFE
02F20 FEFE     CP   FE
02F22 FE85     CP   85
02F24 FEFE     CP   FE
02F26 FE85     CP   85
02F28 85       ADD  A,L
02F29 FEFE     CP   FE
02F2B 85       ADD  A,L
02F2C FF       RST  38
02F2D C9       RET  
02F2E 310A25   LD   SP,250A
02F31 1D       DEC  E
02F32 22       HL++ (HL),A
02F33 19       ADD  HL,DE
02F34 0EFF     LD   C,FF
02F36 C9       RET  
02F37 310B25   LD   SP,250B
02F3A 1D       DEC  E
02F3B 22       HL++ (HL),A
02F3C 19       ADD  HL,DE
02F3D 0EFF     LD   C,FF
02F3F C9       RET  
02F40 310C25   LD   SP,250C
02F43 1D       DEC  E
02F44 22       HL++ (HL),A
02F45 19       ADD  HL,DE
02F46 0EFF     LD   C,FF
02F48 C9       RET  
02F49 312F18   LD   SP,182F
02F4C 0F       RRCA 
02F4D 0F       RRCA 
02F4E 2F       CPL  
02F4F 2F       CPL  
02F50 FF       RST  38
02F51 C9       RET  
02F52 3100FF   LD   SP,FF00
02F55 C9       RET  
02F56 3101FF   LD   SP,FF01
02F59 C9       RET  
02F5A 3102FF   LD   SP,FF02
02F5D C9       RET  
02F5E 3103FF   LD   SP,FF03
02F61 C9       RET  
02F62 3104FF   LD   SP,FF04
02F65 C9       RET  
02F66 3105FF   LD   SP,FF05
02F69 C9       RET  
02F6A 3106FF   LD   SP,FF06
02F6D C9       RET  
02F6E 3107FF   LD   SP,FF07
02F71 C9       RET  
02F72 3108FF   LD   SP,FF08
02F75 C9       RET  
02F76 3109FF   LD   SP,FF09
02F79 D9       RETI 
02F7A 312F01   LD   SP,012F
02F7D 2F       CPL  
02F7E 112021   LD   DE,2120
02F81 3031     JR   NC,2FB4
02F83 FF       RST  38
02F84 D9       RETI 
02F85 312F03   LD   SP,032F
02F88 12       LD   (DE),A
02F89 13       INC  DE
02F8A 22       HL++ (HL),A
02F8B 23       INC  HL
02F8C 32       HL-- (HL),A
02F8D 33       INC  SP
02F8E FF       RST  38
02F8F A9       XOR  C
02F90 312F05   LD   SP,052F
02F93 FD       DB   FD
02F94 05       DEC  B
02F95 2F       CPL  
02F96 2F       CPL  
02F97 15       DEC  D
02F98 04       INC  B
02F99 17       RLA  
02F9A 24       INC  H
02F9B 25       DEC  H
02F9C 2627     LD   H,27
02F9E 34       INC  (HL)
02F9F 35       DEC  (HL)
02FA0 362F     LD   (HL),2F
02FA2 FF       RST  38
02FA3 A9       XOR  C
02FA4 310837   LD   SP,3708
02FA7 FD       DB   FD
02FA8 37       SCF  
02FA9 FD       DB   FD
02FAA 08       EX   AF,AF
02FAB 1819     JR   2FC6
02FAD 14       INC  D
02FAE 1B       DEC  DE
02FAF 2829     JR   Z,2FDA
02FB1 2A       HL++ A,(HL)
02FB2 2B       DEC  HL
02FB3 60       LD   H,B
02FB4 70       LD   (HL),B
02FB5 362F     LD   (HL),2F
02FB7 FF       RST  38
02FB8 D9       RETI 
02FB9 31B9FD   LD   SP,FDB9
02FBC B9       CP   C
02FBD BA       CP   D
02FBE FD       DB   FD
02FBF BA       CP   D
02FC0 FF       RST  38
02FC1 D9       RETI 
02FC2 3182FD   LD   SP,FD82
02FC5 82       ADD  A,D
02FC6 83       ADD  A,E
02FC7 FD       DB   FD
02FC8 83       ADD  A,E
02FC9 FF       RST  38
02FCA D9       RETI 
02FCB 31090A   LD   SP,0A09
02FCE 3A       HL-- A,(HL)
02FCF 3B       DEC  SP
02FD0 FF       RST  38
02FD1 D9       RETI 
02FD2 310B40   LD   SP,400B
02FD5 7C       LD   A,H
02FD6 6F       LD   L,A
02FD7 FF       RST  38
02FD8 D9       RETI 
02FD9 312F0F   LD   SP,0F2F
02FDC 2F       CPL  
02FDD 1F       RRA  
02FDE 5F       LD   E,A
02FDF 2C       INC  L
02FE0 2F       CPL  
02FE1 3F       CCF  
02FE2 FF       RST  38
02FE3 D9       RETI 
02FE4 316C3C   LD   SP,3C6C
02FE7 4B       LD   C,E
02FE8 4C       LD   C,H
02FE9 5B       LD   E,E
02FEA 5C       LD   E,H
02FEB 6B       LD   L,E
02FEC 2F       CPL  
02FED FF       RST  38
02FEE A9       XOR  C
02FEF 312F4D   LD   SP,4D2F
02FF2 FD       DB   FD
02FF3 4D       LD   C,L
02FF4 2F       CPL  
02FF5 2F       CPL  
02FF6 5D       LD   E,L
02FF7 5E       LD   E,(HL)
02FF8 4E       LD   C,(HL)
02FF9 5F       LD   E,A
02FFA 6D       LD   L,L
02FFB 6E       LD   L,(HL)
02FFC 2F       CPL  
02FFD 2F       CPL  
02FFE 7D       LD   A,L
02FFF FD       DB   FD
03000 7D       LD   A,L
03001 2F       CPL  
03002 FF       RST  38
03003 A9       XOR  C
03004 310877   LD   SP,7708
03007 FD77FD   LD   (IYFD),A
0300A 08       EX   AF,AF
0300B 1878     JR   3085
0300D 43       LD   B,E
0300E 53       LD   D,E
0300F 7A       LD   A,D
03010 7B       LD   A,E
03011 50       LD   D,B
03012 2F       CPL  
03013 2F       CPL  
03014 02       LD   (BC),A
03015 FD       DB   FD
03016 7D       LD   A,L
03017 2F       CPL  
03018 FF       RST  38
03019 D9       RETI 
0301A 31B9FD   LD   SP,FDB9
0301D B9       CP   C
0301E BA       CP   D
0301F FD       DB   FD
03020 BA       CP   D
03021 FF       RST  38
03022 D9       RETI 
03023 3182FD   LD   SP,FD82
03026 82       ADD  A,D
03027 83       ADD  A,E
03028 FD       DB   FD
03029 83       ADD  A,E
0302A FF       RST  38
0302B D9       RETI 
0302C 31090A   LD   SP,0A09
0302F 3A       HL-- A,(HL)
03030 3B       DEC  SP
03031 FF       RST  38
03032 D9       RETI 
03033 310B40   LD   SP,400B
03036 7C       LD   A,H
03037 6F       LD   L,A
03038 FF       RST  38
03039 D9       RETI 
0303A 31DCDD   LD   SP,DDDC
0303D E0E1     OUT  (E1),A
0303F FF       RST  38
03040 D9       RETI 
03041 31DEDF   LD   SP,DFDE
03044 E0E1     OUT  (E1),A
03046 FF       RST  38
03047 D9       RETI 
03048 31DEE2   LD   SP,E2DE
0304B E0E4     OUT  (E4),A
0304D FF       RST  38
0304E D9       RETI 
0304F 31DCEE   LD   SP,EEDC
03052 E0E3     OUT  (E3),A
03054 FF       RST  38
03055 D9       RETI 
03056 31E5E6   LD   SP,E6E5
03059 E7       RST  20
0305A E8       RET  PE
0305B FF       RST  38
0305C D9       RETI 
0305D 31FDE6   LD   SP,E6FD
03060 FDE5     PUSH IY
03062 FD       DB   FD
03063 E8       RET  PE
03064 FD       DB   FD
03065 E7       RST  20
03066 FF       RST  38
03067 D9       RETI 
03068 31E9EA   LD   SP,EAE9
0306B EB       EX   DE,HL
0306C ECFFD9   CALL PE,D9FF
0306F 31EDEA   LD   SP,EAED
03072 EB       EX   DE,HL
03073 ECFFD9   CALL PE,D9FF
03076 31F2F4   LD   SP,F4F2
03079 F3       DI   
0307A BF       CP   A
0307B FF       RST  38
0307C D9       RETI 
0307D 31F4F2   LD   SP,F2F4
03080 BF       CP   A
03081 F3       DI   
03082 FF       RST  38
03083 D9       RETI 
03084 31C2FD   LD   SP,FDC2
03087 C2C3FD   JP   NZ,FDC3
0308A C3FFD9   JP   D9FF
0308D 31C4FD   LD   SP,FDC4
03090 C4C5FD   CALL NZ,FDC5
03093 C5       PUSH BC
03094 FF       RST  38
03095 D9       RETI 
03096 31DCFD   LD   SP,FDDC
03099 DCEFFD   CALL C,FDEF
0309C EF       RST  28
0309D FF       RST  38
0309E D9       RETI 
0309F 31F0FD   LD   SP,FDF0
030A2 F0F1     IN   A,(F1)
030A4 FD       DB   FD
030A5 F1       POP  AF
030A6 FF       RST  38
030A7 D9       RETI 
030A8 31DCFD   LD   SP,FDDC
030AB F0F1     IN   A,(F1)
030AD FD       DB   FD
030AE EF       RST  28
030AF FF       RST  38
030B0 D9       RETI 
030B1 31F0FD   LD   SP,FDF0
030B4 DCEFFD   CALL C,FDEF
030B7 F1       POP  AF
030B8 FF       RST  38
030B9 D9       RETI 
030BA 31BDBE   LD   SP,BEBD
030BD BB       CP   E
030BE BC       CP   H
030BF FF       RST  38
030C0 D9       RETI 
030C1 31B9BA   LD   SP,BAB9
030C4 DADBFF   JP   C,FFDB
030C7 CB       DB   CB
030C8 30E0     JR   NC,30AA
030CA F0F5     IN   A,(F5)
030CC 31C0C1   LD   SP,C1C0
030CF C5       PUSH BC
030D0 C6CC     ADD  A,CC
030D2 CD7576   CALL 7675
030D5 A4       AND  H
030D6 A5       AND  L
030D7 A6       AND  (HL)
030D8 A7       AND  A
030D9 54       LD   D,H
030DA 55       LD   D,L
030DB 56       LD   D,(HL)
030DC 57       LD   D,A
030DD 44       LD   B,H
030DE 45       LD   B,L
030DF 46       LD   B,(HL)
030E0 47       LD   B,A
030E1 A0       AND  B
030E2 A1       AND  C
030E3 A2       AND  D
030E4 A3       AND  E
030E5 9C       SBC  A,H
030E6 9D       SBC  A,L
030E7 9E       SBC  A,(HL)
030E8 9F       SBC  A,A
030E9 FF       RST  38
030EA 1631     LD   D,31
030EC F8       RET  M
030ED E8       RET  PE
030EE 1C       INC  E
030EF 31F0E8   LD   SP,E8F0
030F2 25       DEC  H
030F3 310000   LD   SP,0000
030F6 2B       DEC  HL
030F7 310000   LD   SP,0000
030FA 313100   LD   SP,0031
030FD 00       NOP  
030FE 3A       HL-- A,(HL)
030FF 310000   LD   SP,0000
03102 9D       SBC  A,L
03103 310000   LD   SP,0000
03106 A3       AND  E
03107 310000   LD   SP,0000
0310A 64       LD   H,H
0310B 31D8F8   LD   SP,F8D8
0310E 7C       LD   A,H
0310F 31E8F8   LD   SP,F8E8
03112 8E       ADC  A,(HL)
03113 31F0F8   LD   SP,F8F0
03116 2D       DEC  L
03117 32       HL-- (HL),A
03118 63       LD   H,E
03119 64       LD   H,H
0311A 65       LD   H,L
0311B FF       RST  38
0311C 2D       DEC  L
0311D 32       HL-- (HL),A
0311E 63       LD   H,E
0311F 64       LD   H,H
03120 65       LD   H,L
03121 66       LD   H,(HL)
03122 67       LD   H,A
03123 68       LD   L,B
03124 FF       RST  38
03125 2D       DEC  L
03126 32       HL-- (HL),A
03127 41       LD   B,C
03128 41       LD   B,C
03129 41       LD   B,C
0312A FF       RST  38
0312B 2D       DEC  L
0312C 32       HL-- (HL),A
0312D 42       LD   B,D
0312E 42       LD   B,D
0312F 42       LD   B,D
03130 FF       RST  38
03131 2D       DEC  L
03132 32       HL-- (HL),A
03133 52       LD   D,D
03134 52       LD   D,D
03135 52       LD   D,D
03136 62       LD   H,D
03137 62       LD   H,D
03138 62       LD   H,D
03139 FF       RST  38
0313A 2D       DEC  L
0313B 32       HL-- (HL),A
0313C 51       LD   D,C
0313D 51       LD   D,C
0313E 51       LD   D,C
0313F 61       LD   H,C
03140 61       LD   H,C
03141 61       LD   H,C
03142 71       LD   (HL),C
03143 71       LD   (HL),C
03144 71       LD   (HL),C
03145 FF       RST  38
03146 A9       XOR  C
03147 312F2F   LD   SP,2F2F
0314A 2F       CPL  
0314B 2F       CPL  
0314C 2F       CPL  
0314D 2F       CPL  
0314E 2F       CPL  
0314F 2F       CPL  
03150 63       LD   H,E
03151 64       LD   H,H
03152 FD       DB   FD
03153 64       LD   H,H
03154 FD       DB   FD
03155 63       LD   H,E
03156 66       LD   H,(HL)
03157 67       LD   H,A
03158 FD       DB   FD
03159 67       LD   H,A
0315A FD66FF   LD   H,(IYFF)
0315D D9       RETI 
0315E 312F2F   LD   SP,2F2F
03161 63       LD   H,E
03162 64       LD   H,H
03163 FF       RST  38
03164 D9       RETI 
03165 3100FD   LD   SP,FD00
03168 00       NOP  
03169 10FD     DJNZ 3168
0316B 104F     DJNZ 31BC
0316D FD       DB   FD
0316E 4F       LD   C,A
0316F 80       ADD  A,B
03170 FD       DB   FD
03171 80       ADD  A,B
03172 80       ADD  A,B
03173 FD       DB   FD
03174 80       ADD  A,B
03175 81       ADD  A,C
03176 FD       DB   FD
03177 81       ADD  A,C
03178 97       SUB  A
03179 FD       DB   FD
0317A 97       SUB  A
0317B FF       RST  38
0317C D9       RETI 
0317D 3198FD   LD   SP,FD98
03180 98       SBC  A,B
03181 99       SBC  A,C
03182 FD       DB   FD
03183 99       SBC  A,C
03184 80       ADD  A,B
03185 FD       DB   FD
03186 80       ADD  A,B
03187 9A       SBC  A,D
03188 FD       DB   FD
03189 9A       SBC  A,D
0318A 9B       SBC  A,E
0318B FD       DB   FD
0318C 9B       SBC  A,E
0318D FF       RST  38
0318E D9       RETI 
0318F 31A8FD   LD   SP,FDA8
03192 A8       XOR  B
03193 A9       XOR  C
03194 FD       DB   FD
03195 A9       XOR  C
03196 AA       XOR  D
03197 FD       DB   FD
03198 AA       XOR  D
03199 AB       XOR  E
0319A FD       DB   FD
0319B AB       XOR  E
0319C FF       RST  38
0319D D9       RETI 
0319E 31412F   LD   SP,2F41
031A1 2F       CPL  
031A2 FF       RST  38
031A3 D9       RETI 
031A4 31522F   LD   SP,2F52
031A7 62       LD   H,D
031A8 FF       RST  38
031A9 00       NOP  
031AA 00       NOP  
031AB 00       NOP  
031AC 08       EX   AF,AF
031AD 00       NOP  
031AE 1000     DJNZ 31B0
031B0 1808     JR   31BA
031B2 00       NOP  
031B3 08       EX   AF,AF
031B4 08       EX   AF,AF
031B5 08       EX   AF,AF
031B6 1008     DJNZ 31C0
031B8 1810     JR   31CA
031BA 00       NOP  
031BB 1008     DJNZ 31C5
031BD 1010     DJNZ 31CF
031BF 1018     DJNZ 31D9
031C1 1800     JR   31C3
031C3 1808     JR   31CD
031C5 1810     JR   31D7
031C7 1818     JR   31E1
031C9 00       NOP  
031CA 00       NOP  
031CB 00       NOP  
031CC 08       EX   AF,AF
031CD 00       NOP  
031CE 1000     DJNZ 31D0
031D0 1800     JR   31D2
031D2 2000     JR   NZ,31D4
031D4 2800     JR   Z,31D6
031D6 3000     JR   NC,31D8
031D8 3800     JR   C,31DA
031DA 00       NOP  
031DB 00       NOP  
031DC 08       EX   AF,AF
031DD 08       EX   AF,AF
031DE 00       NOP  
031DF 08       EX   AF,AF
031E0 08       EX   AF,AF
031E1 1000     DJNZ 31E3
031E3 1008     DJNZ 31ED
031E5 1800     JR   31E7
031E7 1808     JR   31F1
031E9 2000     JR   NZ,31EB
031EB 2008     JR   NZ,31F5
031ED 2800     JR   Z,31EF
031EF 2808     JR   Z,31F9
031F1 3000     JR   NC,31F3
031F3 3008     JR   NC,31FD
031F5 00       NOP  
031F6 08       EX   AF,AF
031F7 00       NOP  
031F8 1008     DJNZ 3202
031FA 08       EX   AF,AF
031FB 08       EX   AF,AF
031FC 1010     DJNZ 320E
031FE 00       NOP  
031FF 1008     DJNZ 3209
03201 1010     DJNZ 3213
03203 1018     DJNZ 321D
03205 1800     JR   3207
03207 1808     JR   3211
03209 1810     JR   321B
0320B 1818     JR   3225
0320D 2000     JR   NZ,320F
0320F 2008     JR   NZ,3219
03211 2010     JR   NZ,3223
03213 2018     JR   NZ,322D
03215 2800     JR   Z,3217
03217 2808     JR   Z,3221
03219 2810     JR   Z,322B
0321B 2818     JR   Z,3235
0321D 3000     JR   NC,321F
0321F 3008     JR   NC,3229
03221 3010     JR   NC,3233
03223 3018     JR   NC,323D
03225 3800     JR   C,3227
03227 3808     JR   C,3231
03229 3810     JR   C,323B
0322B 3818     JR   C,3245
0322D 00       NOP  
0322E 00       NOP  
0322F 00       NOP  
03230 08       EX   AF,AF
03231 00       NOP  
03232 1008     DJNZ 323C
03234 00       NOP  
03235 08       EX   AF,AF
03236 08       EX   AF,AF
03237 08       EX   AF,AF
03238 1010     DJNZ 324A
0323A 00       NOP  
0323B 1008     DJNZ 3245
0323D 1010     DJNZ 324F
0323F 7F       LD   A,A
03240 7F       LD   A,A
03241 7F       LD   A,A
03242 7F       LD   A,A
03243 7F       LD   A,A
03244 7F       LD   A,A
03245 7F       LD   A,A
03246 7F       LD   A,A
03247 7F       LD   A,A
03248 7F       LD   A,A
03249 7C       LD   A,H
0324A 7C       LD   A,H
0324B 78       LD   A,B
0324C 79       LD   A,C
0324D 78       LD   A,B
0324E 7B       LD   A,E
0324F FF       RST  38
03250 FF       RST  38
03251 FF       RST  38
03252 FF       RST  38
03253 FF       RST  38
03254 FF       RST  38
03255 FF       RST  38
03256 FF       RST  38
03257 FF       RST  38
03258 FF       RST  38
03259 00       NOP  
0325A 00       NOP  
0325B 00       NOP  
0325C FF       RST  38
0325D 00       NOP  
0325E 00       NOP  
0325F FF       RST  38
03260 FF       RST  38
03261 FF       RST  38
03262 FF       RST  38
03263 FF       RST  38
03264 FF       RST  38
03265 FF       RST  38
03266 FF       RST  38
03267 FF       RST  38
03268 FF       RST  38
03269 3F       CCF  
0326A 3F       CCF  
0326B 1F       RRA  
0326C 9F       SBC  A,A
0326D 1F       RRA  
0326E DF       RST  18
0326F 78       LD   A,B
03270 7B       LD   A,E
03271 78       LD   A,B
03272 79       LD   A,C
03273 7C       LD   A,H
03274 7C       LD   A,H
03275 7F       LD   A,A
03276 7F       LD   A,A
03277 7F       LD   A,A
03278 7F       LD   A,A
03279 7F       LD   A,A
0327A 7F       LD   A,A
0327B 7F       LD   A,A
0327C 7F       LD   A,A
0327D 7F       LD   A,A
0327E 7F       LD   A,A
0327F 00       NOP  
03280 00       NOP  
03281 00       NOP  
03282 FF       RST  38
03283 00       NOP  
03284 00       NOP  
03285 FF       RST  38
03286 FF       RST  38
03287 FF       RST  38
03288 FF       RST  38
03289 FF       RST  38
0328A FF       RST  38
0328B FF       RST  38
0328C FF       RST  38
0328D FF       RST  38
0328E FF       RST  38
0328F 1F       RRA  
03290 DF       RST  18
03291 1F       RRA  
03292 9F       SBC  A,A
03293 3F       CCF  
03294 3F       CCF  
03295 FF       RST  38
03296 FF       RST  38
03297 FF       RST  38
03298 FF       RST  38
03299 FF       RST  38
0329A FF       RST  38
0329B FF       RST  38
0329C FF       RST  38
0329D FF       RST  38
0329E FF       RST  38
0329F 78       LD   A,B
032A0 7A       LD   A,D
032A1 78       LD   A,B
032A2 7A       LD   A,D
032A3 78       LD   A,B
032A4 7A       LD   A,D
032A5 78       LD   A,B
032A6 7A       LD   A,D
032A7 78       LD   A,B
032A8 7A       LD   A,D
032A9 78       LD   A,B
032AA 7A       LD   A,D
032AB 78       LD   A,B
032AC 7A       LD   A,D
032AD 78       LD   A,B
032AE 7A       LD   A,D
032AF 1F       RRA  
032B0 5F       LD   E,A
032B1 1F       RRA  
032B2 5F       LD   E,A
032B3 1F       RRA  
032B4 5F       LD   E,A
032B5 1F       RRA  
032B6 5F       LD   E,A
032B7 1F       RRA  
032B8 5F       LD   E,A
032B9 1F       RRA  
032BA 5F       LD   E,A
032BB 1F       RRA  
032BC 5F       LD   E,A
032BD 1F       RRA  
032BE 5F       LD   E,A
032BF FF       RST  38
032C0 FF       RST  38
032C1 FF       RST  38
032C2 FF       RST  38
032C3 FF       RST  38
032C4 FF       RST  38
032C5 FF       RST  38
032C6 F8       RET  M
032C7 F8       RET  M
032C8 F0F2     IN   A,(F2)
032CA E1       POP  HL
032CB F5       PUSH AF
032CC E3       EX   (SP),HL
032CD F2E6FF   JP   P,FFE6
032D0 FF       RST  38
032D1 FF       RST  38
032D2 FF       RST  38
032D3 FF       RST  38
032D4 FF       RST  38
032D5 FF       RST  38
032D6 00       NOP  
032D7 00       NOP  
032D8 00       NOP  
032D9 00       NOP  
032DA FF       RST  38
032DB FF       RST  38
032DC FF       RST  38
032DD 00       NOP  
032DE 00       NOP  
032DF FF       RST  38
032E0 FF       RST  38
032E1 FF       RST  38
032E2 FF       RST  38
032E3 FF       RST  38
032E4 FF       RST  38
032E5 FF       RST  38
032E6 1F       RRA  
032E7 1F       RRA  
032E8 0F       RRCA 
032E9 4F       LD   C,A
032EA 87       ADD  A,A
032EB AF       XOR  A
032EC C7       RST  00
032ED 4F       LD   C,A
032EE 67       LD   H,A
032EF F2E6F2   JP   P,F2E6
032F2 E6F2     AND  F2
032F4 E6F2     AND  F2
032F6 E6F2     AND  F2
032F8 E6F2     AND  F2
032FA E6F2     AND  F2
032FC E6F2     AND  F2
032FE E64F     AND  4F
03300 67       LD   H,A
03301 4F       LD   C,A
03302 67       LD   H,A
03303 4F       LD   C,A
03304 67       LD   H,A
03305 4F       LD   C,A
03306 67       LD   H,A
03307 4F       LD   C,A
03308 67       LD   H,A
03309 4F       LD   C,A
0330A 67       LD   H,A
0330B 4F       LD   C,A
0330C 67       LD   H,A
0330D 4F       LD   C,A
0330E 67       LD   H,A
0330F F2E6F5   JP   P,F5E6
03312 E3       EX   (SP),HL
03313 F2E1F8   JP   P,F8E1
03316 F0FF     IN   A,(FF)
03318 F8       RET  M
03319 FF       RST  38
0331A FF       RST  38
0331B FF       RST  38
0331C FF       RST  38
0331D FF       RST  38
0331E FF       RST  38
0331F 00       NOP  
03320 00       NOP  
03321 FF       RST  38
03322 FF       RST  38
03323 00       NOP  
03324 FF       RST  38
03325 00       NOP  
03326 00       NOP  
03327 FF       RST  38
03328 00       NOP  
03329 FF       RST  38
0332A FF       RST  38
0332B FF       RST  38
0332C FF       RST  38
0332D FF       RST  38
0332E FF       RST  38
0332F 4F       LD   C,A
03330 67       LD   H,A
03331 AF       XOR  A
03332 C7       RST  00
03333 4F       LD   C,A
03334 87       ADD  A,A
03335 1F       RRA  
03336 0F       RRCA 
03337 FF       RST  38
03338 1F       RRA  
03339 FF       RST  38
0333A FF       RST  38
0333B FF       RST  38
0333C FF       RST  38
0333D FF       RST  38
0333E FF       RST  38
0333F 78       LD   A,B
03340 7B       LD   A,E
03341 78       LD   A,B
03342 79       LD   A,C
03343 7C       LD   A,H
03344 7C       LD   A,H
03345 7F       LD   A,A
03346 7F       LD   A,A
03347 7F       LD   A,A
03348 7F       LD   A,A
03349 7C       LD   A,H
0334A 7C       LD   A,H
0334B 78       LD   A,B
0334C 79       LD   A,C
0334D 78       LD   A,B
0334E 7B       LD   A,E
0334F 1F       RRA  
03350 DF       RST  18
03351 1F       RRA  
03352 9F       SBC  A,A
03353 3F       CCF  
03354 3F       CCF  
03355 FF       RST  38
03356 FF       RST  38
03357 FF       RST  38
03358 FF       RST  38
03359 3F       CCF  
0335A 3F       CCF  
0335B 1F       RRA  
0335C 9F       SBC  A,A
0335D 1F       RRA  
0335E DF       RST  18
0335F 00       NOP  
03360 00       NOP  
03361 00       NOP  
03362 FF       RST  38
03363 00       NOP  
03364 00       NOP  
03365 FF       RST  38
03366 FF       RST  38
03367 FF       RST  38
03368 FF       RST  38
03369 00       NOP  
0336A 00       NOP  
0336B 00       NOP  
0336C FF       RST  38
0336D 00       NOP  
0336E 00       NOP  
0336F 00       NOP  
03370 00       NOP  
03371 00       NOP  
03372 7F       LD   A,A
03373 00       NOP  
03374 00       NOP  
03375 7F       LD   A,A
03376 7F       LD   A,A
03377 7F       LD   A,A
03378 7F       LD   A,A
03379 7F       LD   A,A
0337A 7F       LD   A,A
0337B 7F       LD   A,A
0337C 7F       LD   A,A
0337D 7F       LD   A,A
0337E 7F       LD   A,A
0337F 78       LD   A,B
03380 7A       LD   A,D
03381 78       LD   A,B
03382 7A       LD   A,D
03383 78       LD   A,B
03384 7A       LD   A,D
03385 78       LD   A,B
03386 7A       LD   A,D
03387 78       LD   A,B
03388 7A       LD   A,D
03389 00       NOP  
0338A 02       LD   (BC),A
0338B 00       NOP  
0338C 7A       LD   A,D
0338D 00       NOP  
0338E 7A       LD   A,D
0338F 1F       RRA  
03390 5F       LD   E,A
03391 1F       RRA  
03392 5F       LD   E,A
03393 1F       RRA  
03394 5F       LD   E,A
03395 1F       RRA  
03396 5F       LD   E,A
03397 1F       RRA  
03398 5F       LD   E,A
03399 00       NOP  
0339A 40       LD   B,B
0339B 00       NOP  
0339C 5F       LD   E,A
0339D 00       NOP  
0339E 5F       LD   E,A
0339F 00       NOP  
033A0 00       NOP  
033A1 00       NOP  
033A2 FF       RST  38
033A3 00       NOP  
033A4 00       NOP  
033A5 00       NOP  
033A6 FF       RST  38
033A7 00       NOP  
033A8 FF       RST  38
033A9 00       NOP  
033AA 00       NOP  
033AB 00       NOP  
033AC FF       RST  38
033AD 00       NOP  
033AE 00       NOP  
033AF 00       NOP  
033B0 00       NOP  
033B1 00       NOP  
033B2 00       NOP  
033B3 3F       CCF  
033B4 3F       CCF  
033B5 3F       CCF  
033B6 3F       CCF  
033B7 3030     JR   NC,33E9
033B9 3030     JR   NC,33EB
033BB 33       INC  SP
033BC 32       HL-- (HL),A
033BD 33       INC  SP
033BE 3000     JR   NC,33C0
033C0 00       NOP  
033C1 00       NOP  
033C2 00       NOP  
033C3 FF       RST  38
033C4 FF       RST  38
033C5 FF       RST  38
033C6 FF       RST  38
033C7 00       NOP  
033C8 00       NOP  
033C9 00       NOP  
033CA 00       NOP  
033CB FF       RST  38
033CC 02       LD   (BC),A
033CD FF       RST  38
033CE 2000     JR   NZ,33D0
033D0 00       NOP  
033D1 00       NOP  
033D2 00       NOP  
033D3 FCFCFC   CALL M,FCFC
033D6 FC0C0C   CALL M,0C0C
033D9 0C       INC  C
033DA 0C       INC  C
033DB CC0CCC   CALL Z,CC0C
033DE 0C       INC  C
033DF 33       INC  SP
033E0 3033     JR   NC,3415
033E2 3033     JR   NC,3417
033E4 3033     JR   NC,3419
033E6 3033     JR   NC,341B
033E8 3033     JR   NC,341D
033EA 3033     JR   NC,341F
033EC 32       HL-- (HL),A
033ED 33       INC  SP
033EE 30CC     JR   NC,33BC
033F0 0C       INC  C
033F1 CC4CCC   CALL Z,CC4C
033F4 0C       INC  C
033F5 CC0CCC   CALL Z,CC0C
033F8 0C       INC  C
033F9 CC8CCC   CALL Z,CC8C
033FC 0C       INC  C
033FD CC0C33   CALL Z,330C
03400 3033     JR   NC,3435
03402 3030     JR   NC,3434
03404 3030     JR   NC,3436
03406 303F     JR   NC,3447
03408 3F       CCF  
03409 3F       CCF  
0340A 3F       CCF  
0340B 00       NOP  
0340C 00       NOP  
0340D 00       NOP  
0340E 00       NOP  
0340F FF       RST  38
03410 04       INC  B
03411 FF       RST  38
03412 40       LD   B,B
03413 00       NOP  
03414 00       NOP  
03415 00       NOP  
03416 00       NOP  
03417 FF       RST  38
03418 FF       RST  38
03419 FF       RST  38
0341A FF       RST  38
0341B 00       NOP  
0341C 00       NOP  
0341D 00       NOP  
0341E 00       NOP  
0341F CC0CCC   CALL Z,CC0C
03422 4C       LD   C,H
03423 0C       INC  C
03424 0C       INC  C
03425 0C       INC  C
03426 0C       INC  C
03427 FCFCFC   CALL M,FCFC
0342A FC0000   CALL M,0000
0342D 00       NOP  
0342E 00       NOP  
0342F 00       NOP  
03430 00       NOP  
03431 FF       RST  38
03432 FF       RST  38
03433 FF       RST  38
03434 00       NOP  
03435 FF       RST  38
03436 02       LD   (BC),A
03437 FF       RST  38
03438 20FF     JR   NZ,3439
0343A 00       NOP  
0343B FF       RST  38
0343C 04       INC  B
0343D FF       RST  38
0343E 00       NOP  
0343F FF       RST  38
03440 00       NOP  
03441 FF       RST  38
03442 02       LD   (BC),A
03443 FF       RST  38
03444 40       LD   B,B
03445 FF       RST  38
03446 00       NOP  
03447 FF       RST  38
03448 08       EX   AF,AF
03449 FF       RST  38
0344A 01FF43   LD   BC,43FF
0344D FF       RST  38
0344E 07       RLCA 
0344F FF       RST  38
03450 04       INC  B
03451 FF       RST  38
03452 40       LD   B,B
03453 FF       RST  38
03454 02       LD   (BC),A
03455 FF       RST  38
03456 00       NOP  
03457 FF       RST  38
03458 00       NOP  
03459 FF       RST  38
0345A FF       RST  38
0345B FF       RST  38
0345C FF       RST  38
0345D 00       NOP  
0345E 00       NOP  
0345F FF       RST  38
03460 00       NOP  
03461 FF       RST  38
03462 40       LD   B,B
03463 FF       RST  38
03464 02       LD   (BC),A
03465 FF       RST  38
03466 00       NOP  
03467 FF       RST  38
03468 10FF     DJNZ 3469
0346A 80       ADD  A,B
0346B FF       RST  38
0346C C2FFE0   JP   NZ,E0FF
0346F FE06     CP   06
03471 FE46     CP   46
03473 FE06     CP   06
03475 FE06     CP   06
03477 FE16     CP   16
03479 FE86     CP   86
0347B FE06     CP   06
0347D FE06     CP   06
0347F 7F       LD   A,A
03480 64       LD   H,H
03481 7F       LD   A,A
03482 60       LD   H,B
03483 7F       LD   A,A
03484 62       LD   H,D
03485 7F       LD   A,A
03486 60       LD   H,B
03487 7F       LD   A,A
03488 60       LD   H,B
03489 7F       LD   A,A
0348A 68       LD   L,B
0348B 7F       LD   A,A
0348C 62       LD   H,D
0348D 7F       LD   A,A
0348E 60       LD   H,B
0348F FF       RST  38
03490 02       LD   (BC),A
03491 FF       RST  38
03492 40       LD   B,B
03493 FF       RST  38
03494 00       NOP  
03495 FF       RST  38
03496 00       NOP  
03497 FF       RST  38
03498 08       EX   AF,AF
03499 FF       RST  38
0349A 80       ADD  A,B
0349B FF       RST  38
0349C 1F       RRA  
0349D F010     IN   A,(10)
0349F FF       RST  38
034A0 02       LD   (BC),A
034A1 FF       RST  38
034A2 20FF     JR   NZ,34A3
034A4 00       NOP  
034A5 FF       RST  38
034A6 00       NOP  
034A7 FF       RST  38
034A8 04       INC  B
034A9 FF       RST  38
034AA 00       NOP  
034AB FF       RST  38
034AC FF       RST  38
034AD 00       NOP  
034AE 00       NOP  
034AF FF       RST  38
034B0 07       RLCA 
034B1 FF       RST  38
034B2 13       INC  DE
034B3 FF       RST  38
034B4 01FF00   LD   BC,00FF
034B7 FF       RST  38
034B8 40       LD   B,B
034B9 FF       RST  38
034BA 00       NOP  
034BB FF       RST  38
034BC FF       RST  38
034BD 08       EX   AF,AF
034BE 08       EX   AF,AF
034BF 00       NOP  
034C0 00       NOP  
034C1 FF       RST  38
034C2 FF       RST  38
034C3 FF       RST  38
034C4 FF       RST  38
034C5 FF       RST  38
034C6 00       NOP  
034C7 FF       RST  38
034C8 02       LD   (BC),A
034C9 FF       RST  38
034CA 20FF     JR   NZ,34CB
034CC FF       RST  38
034CD 00       NOP  
034CE 00       NOP  
034CF FF       RST  38
034D0 E0FF     OUT  (FF),A
034D2 C8       RET  Z
034D3 FF       RST  38
034D4 80       ADD  A,B
034D5 FF       RST  38
034D6 00       NOP  
034D7 FF       RST  38
034D8 02       LD   (BC),A
034D9 FF       RST  38
034DA 00       NOP  
034DB FF       RST  38
034DC FF       RST  38
034DD 08       EX   AF,AF
034DE 08       EX   AF,AF
034DF FF       RST  38
034E0 00       NOP  
034E1 FF       RST  38
034E2 02       LD   (BC),A
034E3 FF       RST  38
034E4 40       LD   B,B
034E5 FF       RST  38
034E6 00       NOP  
034E7 FF       RST  38
034E8 02       LD   (BC),A
034E9 FF       RST  38
034EA 00       NOP  
034EB FF       RST  38
034EC F8       RET  M
034ED 0F       RRCA 
034EE 08       EX   AF,AF
034EF F010     IN   A,(10)
034F1 F010     IN   A,(10)
034F3 F010     IN   A,(10)
034F5 F050     IN   A,(50)
034F7 F010     IN   A,(10)
034F9 F010     IN   A,(10)
034FB F010     IN   A,(10)
034FD F010     IN   A,(10)
034FF 0F       RRCA 
03500 08       EX   AF,AF
03501 0F       RRCA 
03502 0A       LD   A,(BC)
03503 0F       RRCA 
03504 08       EX   AF,AF
03505 0F       RRCA 
03506 08       EX   AF,AF
03507 0F       RRCA 
03508 08       EX   AF,AF
03509 0F       RRCA 
0350A 08       EX   AF,AF
0350B 0F       RRCA 
0350C 09       ADD  HL,BC
0350D 0F       RRCA 
0350E 08       EX   AF,AF
0350F 00       NOP  
03510 00       NOP  
03511 00       NOP  
03512 7F       LD   A,A
03513 00       NOP  
03514 00       NOP  
03515 7F       LD   A,A
03516 7F       LD   A,A
03517 7F       LD   A,A
03518 7F       LD   A,A
03519 7C       LD   A,H
0351A 7C       LD   A,H
0351B 78       LD   A,B
0351C 79       LD   A,C
0351D 78       LD   A,B
0351E 7B       LD   A,E
0351F 00       NOP  
03520 00       NOP  
03521 00       NOP  
03522 FF       RST  38
03523 00       NOP  
03524 00       NOP  
03525 FF       RST  38
03526 FF       RST  38
03527 FF       RST  38
03528 FF       RST  38
03529 3F       CCF  
0352A 3F       CCF  
0352B 1F       RRA  
0352C 9F       SBC  A,A
0352D 1F       RRA  
0352E DF       RST  18
0352F 7F       LD   A,A
03530 7F       LD   A,A
03531 7F       LD   A,A
03532 7F       LD   A,A
03533 7F       LD   A,A
03534 7F       LD   A,A
03535 7F       LD   A,A
03536 7F       LD   A,A
03537 7F       LD   A,A
03538 7F       LD   A,A
03539 00       NOP  
0353A 00       NOP  
0353B 00       NOP  
0353C 7F       LD   A,A
0353D 00       NOP  
0353E 00       NOP  
0353F 00       NOP  
03540 00       NOP  
03541 00       NOP  
03542 00       NOP  
03543 00       NOP  
03544 00       NOP  
03545 AA       XOR  D
03546 AA       XOR  D
03547 00       NOP  
03548 00       NOP  
03549 00       NOP  
0354A 00       NOP  
0354B 00       NOP  
0354C 00       NOP  
0354D 00       NOP  
0354E 00       NOP  
0354F 00       NOP  
03550 00       NOP  
03551 00       NOP  
03552 00       NOP  
03553 0F       RRCA 
03554 0F       RRCA 
03555 1F       RRA  
03556 1F       RRA  
03557 3838     JR   C,3591
03559 33       INC  SP
0355A 3036     JR   NC,3592
0355C 3034     JR   NC,3592
0355E 3000     JR   NC,3560
03560 00       NOP  
03561 00       NOP  
03562 00       NOP  
03563 FF       RST  38
03564 FF       RST  38
03565 FF       RST  38
03566 FF       RST  38
03567 00       NOP  
03568 00       NOP  
03569 FF       RST  38
0356A 00       NOP  
0356B 00       NOP  
0356C 00       NOP  
0356D 00       NOP  
0356E 00       NOP  
0356F 00       NOP  
03570 00       NOP  
03571 00       NOP  
03572 00       NOP  
03573 F0F0     IN   A,(F0)
03575 F8       RET  M
03576 F8       RET  M
03577 1C       INC  E
03578 1C       INC  E
03579 CC0C6C   CALL Z,6C0C
0357C 0C       INC  C
0357D 2C       INC  L
0357E 0C       INC  C
0357F 34       INC  (HL)
03580 3034     JR   NC,35B6
03582 3034     JR   NC,35B8
03584 3034     JR   NC,35BA
03586 3034     JR   NC,35BC
03588 3034     JR   NC,35BE
0358A 3034     JR   NC,35C0
0358C 3034     JR   NC,35C2
0358E 302C     JR   NC,35BC
03590 0C       INC  C
03591 2C       INC  L
03592 0C       INC  C
03593 2C       INC  L
03594 0C       INC  C
03595 2C       INC  L
03596 0C       INC  C
03597 2C       INC  L
03598 0C       INC  C
03599 2C       INC  L
0359A 0C       INC  C
0359B 2C       INC  L
0359C 0C       INC  C
0359D 2C       INC  L
0359E 0C       INC  C
0359F 34       INC  (HL)
035A0 3036     JR   NC,35D8
035A2 3033     JR   NC,35D7
035A4 3038     JR   NC,35DE
035A6 381F     JR   C,35C7
035A8 1F       RRA  
035A9 0F       RRCA 
035AA 0F       RRCA 
035AB 00       NOP  
035AC 00       NOP  
035AD 00       NOP  
035AE 00       NOP  
035AF 00       NOP  
035B0 7B       LD   A,E
035B1 00       NOP  
035B2 79       LD   A,C
035B3 00       NOP  
035B4 7C       LD   A,H
035B5 00       NOP  
035B6 7F       LD   A,A
035B7 00       NOP  
035B8 7F       LD   A,A
035B9 00       NOP  
035BA 00       NOP  
035BB 00       NOP  
035BC 7F       LD   A,A
035BD 00       NOP  
035BE 00       NOP  
035BF 00       NOP  
035C0 DF       RST  18
035C1 00       NOP  
035C2 9F       SBC  A,A
035C3 00       NOP  
035C4 3F       CCF  
035C5 00       NOP  
035C6 FF       RST  38
035C7 00       NOP  
035C8 FF       RST  38
035C9 00       NOP  
035CA 00       NOP  
035CB 00       NOP  
035CC FF       RST  38
035CD 00       NOP  
035CE 00       NOP  
035CF 00       NOP  
035D0 00       NOP  
035D1 00       NOP  
035D2 00       NOP  
035D3 FF       RST  38
035D4 00       NOP  
035D5 00       NOP  
035D6 00       NOP  
035D7 FF       RST  38
035D8 FF       RST  38
035D9 FF       RST  38
035DA FF       RST  38
035DB 00       NOP  
035DC 00       NOP  
035DD 00       NOP  
035DE 00       NOP  
035DF 2C       INC  L
035E0 0C       INC  C
035E1 6C       LD   L,H
035E2 0C       INC  C
035E3 CC0C1C   CALL Z,1C0C
035E6 1C       INC  E
035E7 F8       RET  M
035E8 F8       RET  M
035E9 F0F0     IN   A,(F0)
035EB 00       NOP  
035EC 00       NOP  
035ED 00       NOP  
035EE 00       NOP  
035EF 08       EX   AF,AF
035F0 08       EX   AF,AF
035F1 FF       RST  38
035F2 FF       RST  38
035F3 FF       RST  38
035F4 02       LD   (BC),A
035F5 FF       RST  38
035F6 00       NOP  
035F7 FF       RST  38
035F8 20FF     JR   NZ,35F9
035FA 00       NOP  
035FB FF       RST  38
035FC 02       LD   (BC),A
035FD FF       RST  38
035FE 00       NOP  
035FF 00       NOP  
03600 00       NOP  
03601 FF       RST  38
03602 FF       RST  38
03603 FF       RST  38
03604 FF       RST  38
03605 FF       RST  38
03606 00       NOP  
03607 FF       RST  38
03608 02       LD   (BC),A
03609 FF       RST  38
0360A 20FF     JR   NZ,360B
0360C FF       RST  38
0360D 08       EX   AF,AF
0360E 08       EX   AF,AF
0360F FF       RST  38
03610 07       RLCA 
03611 FF       RST  38
03612 13       INC  DE
03613 FF       RST  38
03614 01FF00   LD   BC,00FF
03617 FF       RST  38
03618 40       LD   B,B
03619 FF       RST  38
0361A 00       NOP  
0361B FF       RST  38
0361C FF       RST  38
0361D 00       NOP  
0361E 00       NOP  
0361F FF       RST  38
03620 E0FF     OUT  (FF),A
03622 C8       RET  Z
03623 FF       RST  38
03624 80       ADD  A,B
03625 FF       RST  38
03626 00       NOP  
03627 FF       RST  38
03628 02       LD   (BC),A
03629 FF       RST  38
0362A 00       NOP  
0362B FF       RST  38
0362C FF       RST  38
0362D 00       NOP  
0362E 00       NOP  
0362F 08       EX   AF,AF
03630 08       EX   AF,AF
03631 08       EX   AF,AF
03632 08       EX   AF,AF
03633 08       EX   AF,AF
03634 08       EX   AF,AF
03635 08       EX   AF,AF
03636 08       EX   AF,AF
03637 08       EX   AF,AF
03638 08       EX   AF,AF
03639 08       EX   AF,AF
0363A 08       EX   AF,AF
0363B 08       EX   AF,AF
0363C 08       EX   AF,AF
0363D 08       EX   AF,AF
0363E 08       EX   AF,AF
0363F FF       RST  38
03640 00       NOP  
03641 FF       RST  38
03642 02       LD   (BC),A
03643 FF       RST  38
03644 00       NOP  
03645 FF       RST  38
03646 20FF     JR   NZ,3647
03648 02       LD   (BC),A
03649 FF       RST  38
0364A 00       NOP  
0364B FF       RST  38
0364C FF       RST  38
0364D 08       EX   AF,AF
0364E 08       EX   AF,AF
0364F F010     IN   A,(10)
03651 FF       RST  38
03652 1F       RRA  
03653 F01F     IN   A,(1F)
03655 F01F     IN   A,(1F)
03657 F01F     IN   A,(1F)
03659 F01F     IN   A,(1F)
0365B FF       RST  38
0365C 5F       LD   E,A
0365D F010     IN   A,(10)
0365F 00       NOP  
03660 00       NOP  
03661 FF       RST  38
03662 FF       RST  38
03663 00       NOP  
03664 FF       RST  38
03665 00       NOP  
03666 FF       RST  38
03667 00       NOP  
03668 FF       RST  38
03669 00       NOP  
0366A FF       RST  38
0366B FF       RST  38
0366C FF       RST  38
0366D 00       NOP  
0366E 00       NOP  
0366F 08       EX   AF,AF
03670 08       EX   AF,AF
03671 FF       RST  38
03672 FF       RST  38
03673 00       NOP  
03674 FF       RST  38
03675 00       NOP  
03676 FF       RST  38
03677 00       NOP  
03678 FF       RST  38
03679 00       NOP  
0367A FF       RST  38
0367B FF       RST  38
0367C FF       RST  38
0367D 08       EX   AF,AF
0367E 08       EX   AF,AF
0367F 0F       RRCA 
03680 08       EX   AF,AF
03681 FF       RST  38
03682 F8       RET  M
03683 0F       RRCA 
03684 F8       RET  M
03685 0F       RRCA 
03686 F8       RET  M
03687 0F       RRCA 
03688 F8       RET  M
03689 0F       RRCA 
0368A F8       RET  M
0368B FF       RST  38
0368C FA0F08   LD   A,(080F)
0368F FF       RST  38
03690 07       RLCA 
03691 FF       RST  38
03692 43       LD   B,E
03693 FF       RST  38
03694 01FF00   LD   BC,00FF
03697 FF       RST  38
03698 00       NOP  
03699 FF       RST  38
0369A 80       ADD  A,B
0369B FF       RST  38
0369C 1F       RRA  
0369D F010     IN   A,(10)
0369F FF       RST  38
036A0 E0FF     OUT  (FF),A
036A2 C2FF80   JP   NZ,80FF
036A5 FF       RST  38
036A6 00       NOP  
036A7 FF       RST  38
036A8 22       HL++ (HL),A
036A9 FF       RST  38
036AA 00       NOP  
036AB FF       RST  38
036AC F8       RET  M
036AD 0F       RRCA 
036AE 08       EX   AF,AF
036AF 00       NOP  
036B0 00       NOP  
036B1 00       NOP  
036B2 00       NOP  
036B3 00       NOP  
036B4 00       NOP  
036B5 3C       INC  A
036B6 00       NOP  
036B7 3C       INC  A
036B8 00       NOP  
036B9 00       NOP  
036BA 00       NOP  
036BB 00       NOP  
036BC 00       NOP  
036BD 00       NOP  
036BE 00       NOP  
036BF 00       NOP  
036C0 00       NOP  
036C1 3C       INC  A
036C2 00       NOP  
036C3 4E       LD   C,(HL)
036C4 00       NOP  
036C5 4E       LD   C,(HL)
036C6 00       NOP  
036C7 7E       LD   A,(HL)
036C8 00       NOP  
036C9 4E       LD   C,(HL)
036CA 00       NOP  
036CB 4E       LD   C,(HL)
036CC 00       NOP  
036CD 00       NOP  
036CE 00       NOP  
036CF 00       NOP  
036D0 00       NOP  
036D1 7C       LD   A,H
036D2 00       NOP  
036D3 66       LD   H,(HL)
036D4 00       NOP  
036D5 7C       LD   A,H
036D6 00       NOP  
036D7 66       LD   H,(HL)
036D8 00       NOP  
036D9 66       LD   H,(HL)
036DA 00       NOP  
036DB 7C       LD   A,H
036DC 00       NOP  
036DD 00       NOP  
036DE 00       NOP  
036DF 00       NOP  
036E0 00       NOP  
036E1 3C       INC  A
036E2 00       NOP  
036E3 66       LD   H,(HL)
036E4 00       NOP  
036E5 60       LD   H,B
036E6 00       NOP  
036E7 60       LD   H,B
036E8 00       NOP  
036E9 66       LD   H,(HL)
036EA 00       NOP  
036EB 3C       INC  A
036EC 00       NOP  
036ED 00       NOP  
036EE 00       NOP  
036EF DD       DB   DD
036F0 44       LD   B,H
036F1 FF       RST  38
036F2 44       LD   B,H
036F3 FF       RST  38
036F4 FF       RST  38
036F5 77       LD   (HL),A
036F6 11FF11   LD   DE,11FF
036F9 FF       RST  38
036FA FF       RST  38
036FB DD       DB   DD
036FC 44       LD   B,H
036FD FF       RST  38
036FE 44       LD   B,H
036FF FF       RST  38
03700 FF       RST  38
03701 77       LD   (HL),A
03702 11FF11   LD   DE,11FF
03705 FF       RST  38
03706 FF       RST  38
03707 DD       DB   DD
03708 44       LD   B,H
03709 FF       RST  38
0370A 44       LD   B,H
0370B FF       RST  38
0370C FF       RST  38
0370D 77       LD   (HL),A
0370E 11FF11   LD   DE,11FF
03711 FF       RST  38
03712 FF       RST  38
03713 DD       DB   DD
03714 44       LD   B,H
03715 FF       RST  38
03716 44       LD   B,H
03717 FF       RST  38
03718 FF       RST  38
03719 77       LD   (HL),A
0371A 11FF11   LD   DE,11FF
0371D FF       RST  38
0371E FF       RST  38
0371F 00       NOP  
03720 00       NOP  
03721 7E       LD   A,(HL)
03722 00       NOP  
03723 1800     JR   3725
03725 1800     JR   3727
03727 1800     JR   3729
03729 1800     JR   372B
0372B 1800     JR   372D
0372D 00       NOP  
0372E 00       NOP  
0372F 00       NOP  
03730 00       NOP  
03731 66       LD   H,(HL)
03732 00       NOP  
03733 66       LD   H,(HL)
03734 00       NOP  
03735 3C       INC  A
03736 00       NOP  
03737 1800     JR   3739
03739 1800     JR   373B
0373B 1800     JR   373D
0373D 00       NOP  
0373E 00       NOP  
0373F FF       RST  38
03740 FF       RST  38
03741 F7       RST  30
03742 89       ADC  A,C
03743 DD       DB   DD
03744 A3       AND  E
03745 FF       RST  38
03746 81       ADD  A,C
03747 B7       OR   A
03748 C9       RET  
03749 FD       DB   FD
0374A 83       ADD  A,E
0374B D7       RST  10
0374C A9       XOR  C
0374D FF       RST  38
0374E 81       ADD  A,C
0374F FF       RST  38
03750 FF       RST  38
03751 FF       RST  38
03752 81       ADD  A,C
03753 FF       RST  38
03754 BD       CP   L
03755 E7       RST  20
03756 A5       AND  L
03757 E7       RST  20
03758 A5       AND  L
03759 FF       RST  38
0375A BD       CP   L
0375B FF       RST  38
0375C 81       ADD  A,C
0375D FF       RST  38
0375E FF       RST  38
0375F FF       RST  38
03760 FF       RST  38
03761 FF       RST  38
03762 81       ADD  A,C
03763 FF       RST  38
03764 81       ADD  A,C
03765 FF       RST  38
03766 99       SBC  A,C
03767 FF       RST  38
03768 99       SBC  A,C
03769 FF       RST  38
0376A 81       ADD  A,C
0376B FF       RST  38
0376C 81       ADD  A,C
0376D FF       RST  38
0376E FF       RST  38
0376F FF       RST  38
03770 FF       RST  38
03771 81       ADD  A,C
03772 81       ADD  A,C
03773 BD       CP   L
03774 BD       CP   L
03775 BD       CP   L
03776 BD       CP   L
03777 BD       CP   L
03778 BD       CP   L
03779 BD       CP   L
0377A BD       CP   L
0377B 81       ADD  A,C
0377C 81       ADD  A,C
0377D FF       RST  38
0377E FF       RST  38
0377F FF       RST  38
03780 FF       RST  38
03781 81       ADD  A,C
03782 FF       RST  38
03783 81       ADD  A,C
03784 FF       RST  38
03785 81       ADD  A,C
03786 FF       RST  38
03787 81       ADD  A,C
03788 FF       RST  38
03789 81       ADD  A,C
0378A FF       RST  38
0378B 81       ADD  A,C
0378C FF       RST  38
0378D FF       RST  38
0378E FF       RST  38
0378F FF       RST  38
03790 FF       RST  38
03791 FF       RST  38
03792 81       ADD  A,C
03793 C381DF   JP   DF81
03796 85       ADD  A,L
03797 DF       RST  18
03798 85       ADD  A,L
03799 FF       RST  38
0379A BD       CP   L
0379B FF       RST  38
0379C 81       ADD  A,C
0379D FF       RST  38
0379E FF       RST  38
0379F FF       RST  38
037A0 FF       RST  38
037A1 81       ADD  A,C
037A2 FF       RST  38
037A3 BD       CP   L
037A4 FF       RST  38
037A5 A5       AND  L
037A6 E7       RST  20
037A7 A5       AND  L
037A8 E7       RST  20
037A9 BD       CP   L
037AA FF       RST  38
037AB 81       ADD  A,C
037AC FF       RST  38
037AD FF       RST  38
037AE FF       RST  38
037AF FF       RST  38
037B0 FF       RST  38
037B1 81       ADD  A,C
037B2 81       ADD  A,C
037B3 BD       CP   L
037B4 83       ADD  A,E
037B5 BD       CP   L
037B6 83       ADD  A,E
037B7 BD       CP   L
037B8 83       ADD  A,E
037B9 BD       CP   L
037BA 83       ADD  A,E
037BB 81       ADD  A,C
037BC FF       RST  38
037BD FF       RST  38
037BE FF       RST  38
037BF ED       DB   ED
037C0 93       SUB  E
037C1 BF       CP   A
037C2 C1       POP  BC
037C3 F5       PUSH AF
037C4 8B       ADC  A,E
037C5 DF       RST  18
037C6 A1       AND  C
037C7 FD       DB   FD
037C8 83       ADD  A,E
037C9 AF       XOR  A
037CA D1       POP  DE
037CB FB       EI   
037CC 85       ADD  A,L
037CD DF       RST  18
037CE A1       AND  C
037CF FD       DB   FD
037D0 83       ADD  A,E
037D1 EF       RST  28
037D2 91       SUB  C
037D3 BB       CP   E
037D4 C5       PUSH BC
037D5 EF       RST  28
037D6 91       SUB  C
037D7 BD       CP   L
037D8 C3F789   JP   89F7
037DB DF       RST  18
037DC A1       AND  C
037DD FF       RST  38
037DE FF       RST  38
037DF FF       RST  38
037E0 FF       RST  38
037E1 DB       ???? 
037E2 A4       AND  H
037E3 FF       RST  38
037E4 80       ADD  A,B
037E5 B5       OR   L
037E6 CAFF80   JP   Z,80FF
037E9 DD       DB   DD
037EA A2       AND  D
037EB F7       RST  30
037EC 88       ADC  A,B
037ED FF       RST  38
037EE FF       RST  38
037EF FF       RST  38
037F0 FF       RST  38
037F1 57       LD   D,A
037F2 A8       XOR  B
037F3 FD       DB   FD
037F4 02       LD   (BC),A
037F5 DF       RST  18
037F6 207B     JR   NZ,3873
037F8 84       ADD  A,H
037F9 EE11     XOR  11
037FB BB       CP   E
037FC 44       LD   B,H
037FD FF       RST  38
037FE FF       RST  38
037FF FF       RST  38
03800 00       NOP  
03801 FF       RST  38
03802 00       NOP  
03803 FF       RST  38
03804 00       NOP  
03805 FF       RST  38
03806 00       NOP  
03807 FF       RST  38
03808 00       NOP  
03809 FF       RST  38
0380A 00       NOP  
0380B FF       RST  38
0380C 00       NOP  
0380D FF       RST  38
0380E 00       NOP  
0380F 00       NOP  
03810 FF       RST  38
03811 00       NOP  
03812 FF       RST  38
03813 00       NOP  
03814 FF       RST  38
03815 00       NOP  
03816 FF       RST  38
03817 00       NOP  
03818 FF       RST  38
03819 00       NOP  
0381A FF       RST  38
0381B 00       NOP  
0381C FF       RST  38
0381D 00       NOP  
0381E FF       RST  38
0381F FF       RST  38
03820 FF       RST  38
03821 FF       RST  38
03822 FF       RST  38
03823 FF       RST  38
03824 FF       RST  38
03825 FF       RST  38
03826 FF       RST  38
03827 FF       RST  38
03828 FF       RST  38
03829 FF       RST  38
0382A FF       RST  38
0382B FF       RST  38
0382C FF       RST  38
0382D FF       RST  38
0382E FF       RST  38
0382F FF       RST  38
03830 FF       RST  38
03831 77       LD   (HL),A
03832 89       ADC  A,C
03833 DF       RST  18
03834 21FB05   LD   HL,05FB
03837 AF       XOR  A
03838 51       LD   D,C
03839 FD       DB   FD
0383A 03       INC  BC
0383B D7       RST  10
0383C 29       ADD  HL,HL
0383D FF       RST  38
0383E FF       RST  38
0383F 00       NOP  
03840 00       NOP  
03841 3C       INC  A
03842 00       NOP  
03843 66       LD   H,(HL)
03844 00       NOP  
03845 66       LD   H,(HL)
03846 00       NOP  
03847 66       LD   H,(HL)
03848 00       NOP  
03849 66       LD   H,(HL)
0384A 00       NOP  
0384B 3C       INC  A
0384C 00       NOP  
0384D 00       NOP  
0384E 00       NOP  
0384F 00       NOP  
03850 00       NOP  
03851 1800     JR   3853
03853 3800     JR   C,3855
03855 1800     JR   3857
03857 1800     JR   3859
03859 1800     JR   385B
0385B 3C       INC  A
0385C 00       NOP  
0385D 00       NOP  
0385E 00       NOP  
0385F 00       NOP  
03860 00       NOP  
03861 3C       INC  A
03862 00       NOP  
03863 4E       LD   C,(HL)
03864 00       NOP  
03865 0E00     LD   C,00
03867 3C       INC  A
03868 00       NOP  
03869 70       LD   (HL),B
0386A 00       NOP  
0386B 7E       LD   A,(HL)
0386C 00       NOP  
0386D 00       NOP  
0386E 00       NOP  
0386F 00       NOP  
03870 00       NOP  
03871 7C       LD   A,H
03872 00       NOP  
03873 0E00     LD   C,00
03875 3C       INC  A
03876 00       NOP  
03877 0E00     LD   C,00
03879 0E00     LD   C,00
0387B 7C       LD   A,H
0387C 00       NOP  
0387D 00       NOP  
0387E 00       NOP  
0387F 00       NOP  
03880 00       NOP  
03881 3C       INC  A
03882 00       NOP  
03883 6C       LD   L,H
03884 00       NOP  
03885 4C       LD   C,H
03886 00       NOP  
03887 4E       LD   C,(HL)
03888 00       NOP  
03889 7E       LD   A,(HL)
0388A 00       NOP  
0388B 0C       INC  C
0388C 00       NOP  
0388D 00       NOP  
0388E 00       NOP  
0388F 00       NOP  
03890 00       NOP  
03891 7C       LD   A,H
03892 00       NOP  
03893 60       LD   H,B
03894 00       NOP  
03895 7C       LD   A,H
03896 00       NOP  
03897 0E00     LD   C,00
03899 4E       LD   C,(HL)
0389A 00       NOP  
0389B 3C       INC  A
0389C 00       NOP  
0389D 00       NOP  
0389E 00       NOP  
0389F 00       NOP  
038A0 00       NOP  
038A1 3C       INC  A
038A2 00       NOP  
038A3 60       LD   H,B
038A4 00       NOP  
038A5 7C       LD   A,H
038A6 00       NOP  
038A7 66       LD   H,(HL)
038A8 00       NOP  
038A9 66       LD   H,(HL)
038AA 00       NOP  
038AB 3C       INC  A
038AC 00       NOP  
038AD 00       NOP  
038AE 00       NOP  
038AF 00       NOP  
038B0 00       NOP  
038B1 7E       LD   A,(HL)
038B2 00       NOP  
038B3 0600     LD   B,00
038B5 0C       INC  C
038B6 00       NOP  
038B7 1800     JR   38B9
038B9 3800     JR   C,38BB
038BB 3800     JR   C,38BD
038BD 00       NOP  
038BE 00       NOP  
038BF 00       NOP  
038C0 00       NOP  
038C1 3C       INC  A
038C2 00       NOP  
038C3 4E       LD   C,(HL)
038C4 00       NOP  
038C5 3C       INC  A
038C6 00       NOP  
038C7 4E       LD   C,(HL)
038C8 00       NOP  
038C9 4E       LD   C,(HL)
038CA 00       NOP  
038CB 3C       INC  A
038CC 00       NOP  
038CD 00       NOP  
038CE 00       NOP  
038CF 00       NOP  
038D0 00       NOP  
038D1 3C       INC  A
038D2 00       NOP  
038D3 4E       LD   C,(HL)
038D4 00       NOP  
038D5 4E       LD   C,(HL)
038D6 00       NOP  
038D7 3E00     LD   A,00
038D9 0E00     LD   C,00
038DB 3C       INC  A
038DC 00       NOP  
038DD 00       NOP  
038DE 00       NOP  
038DF 00       NOP  
038E0 00       NOP  
038E1 7C       LD   A,H
038E2 00       NOP  
038E3 66       LD   H,(HL)
038E4 00       NOP  
038E5 66       LD   H,(HL)
038E6 00       NOP  
038E7 7C       LD   A,H
038E8 00       NOP  
038E9 60       LD   H,B
038EA 00       NOP  
038EB 60       LD   H,B
038EC 00       NOP  
038ED 00       NOP  
038EE 00       NOP  
038EF 00       NOP  
038F0 00       NOP  
038F1 7E       LD   A,(HL)
038F2 00       NOP  
038F3 60       LD   H,B
038F4 00       NOP  
038F5 7C       LD   A,H
038F6 00       NOP  
038F7 60       LD   H,B
038F8 00       NOP  
038F9 60       LD   H,B
038FA 00       NOP  
038FB 7E       LD   A,(HL)
038FC 00       NOP  
038FD 00       NOP  
038FE 00       NOP  
038FF 00       NOP  
03900 00       NOP  
03901 7E       LD   A,(HL)
03902 00       NOP  
03903 60       LD   H,B
03904 00       NOP  
03905 60       LD   H,B
03906 00       NOP  
03907 7C       LD   A,H
03908 00       NOP  
03909 60       LD   H,B
0390A 00       NOP  
0390B 60       LD   H,B
0390C 00       NOP  
0390D 00       NOP  
0390E 00       NOP  
0390F 00       NOP  
03910 00       NOP  
03911 3C       INC  A
03912 00       NOP  
03913 66       LD   H,(HL)
03914 00       NOP  
03915 66       LD   H,(HL)
03916 00       NOP  
03917 66       LD   H,(HL)
03918 00       NOP  
03919 66       LD   H,(HL)
0391A 00       NOP  
0391B 3C       INC  A
0391C 00       NOP  
0391D 00       NOP  
0391E 00       NOP  
0391F 00       NOP  
03920 00       NOP  
03921 3C       INC  A
03922 00       NOP  
03923 66       LD   H,(HL)
03924 00       NOP  
03925 60       LD   H,B
03926 00       NOP  
03927 6E       LD   L,(HL)
03928 00       NOP  
03929 66       LD   H,(HL)
0392A 00       NOP  
0392B 3E00     LD   A,00
0392D 00       NOP  
0392E 00       NOP  
0392F 00       NOP  
03930 00       NOP  
03931 46       LD   B,(HL)
03932 00       NOP  
03933 6E       LD   L,(HL)
03934 00       NOP  
03935 7E       LD   A,(HL)
03936 00       NOP  
03937 56       LD   D,(HL)
03938 00       NOP  
03939 46       LD   B,(HL)
0393A 00       NOP  
0393B 46       LD   B,(HL)
0393C 00       NOP  
0393D 00       NOP  
0393E 00       NOP  
0393F 00       NOP  
03940 00       NOP  
03941 46       LD   B,(HL)
03942 00       NOP  
03943 46       LD   B,(HL)
03944 00       NOP  
03945 46       LD   B,(HL)
03946 00       NOP  
03947 46       LD   B,(HL)
03948 00       NOP  
03949 4E       LD   C,(HL)
0394A 00       NOP  
0394B 3C       INC  A
0394C 00       NOP  
0394D 00       NOP  
0394E 00       NOP  
0394F 00       NOP  
03950 00       NOP  
03951 3C       INC  A
03952 00       NOP  
03953 60       LD   H,B
03954 00       NOP  
03955 3C       INC  A
03956 00       NOP  
03957 0E00     LD   C,00
03959 4E       LD   C,(HL)
0395A 00       NOP  
0395B 3C       INC  A
0395C 00       NOP  
0395D 00       NOP  
0395E 00       NOP  
0395F 00       NOP  
03960 00       NOP  
03961 3C       INC  A
03962 00       NOP  
03963 1800     JR   3965
03965 1800     JR   3967
03967 1800     JR   3969
03969 1800     JR   396B
0396B 3C       INC  A
0396C 00       NOP  
0396D 00       NOP  
0396E 00       NOP  
0396F 00       NOP  
03970 00       NOP  
03971 60       LD   H,B
03972 00       NOP  
03973 60       LD   H,B
03974 00       NOP  
03975 60       LD   H,B
03976 00       NOP  
03977 60       LD   H,B
03978 00       NOP  
03979 60       LD   H,B
0397A 00       NOP  
0397B 7E       LD   A,(HL)
0397C 00       NOP  
0397D 00       NOP  
0397E 00       NOP  
0397F 00       NOP  
03980 00       NOP  
03981 46       LD   B,(HL)
03982 00       NOP  
03983 46       LD   B,(HL)
03984 00       NOP  
03985 46       LD   B,(HL)
03986 00       NOP  
03987 46       LD   B,(HL)
03988 00       NOP  
03989 2C       INC  L
0398A 00       NOP  
0398B 1800     JR   398D
0398D 00       NOP  
0398E 00       NOP  
0398F 00       NOP  
03990 00       NOP  
03991 7C       LD   A,H
03992 00       NOP  
03993 66       LD   H,(HL)
03994 00       NOP  
03995 66       LD   H,(HL)
03996 00       NOP  
03997 7C       LD   A,H
03998 00       NOP  
03999 68       LD   L,B
0399A 00       NOP  
0399B 66       LD   H,(HL)
0399C 00       NOP  
0399D 00       NOP  
0399E 00       NOP  
0399F 00       NOP  
039A0 00       NOP  
039A1 46       LD   B,(HL)
039A2 00       NOP  
039A3 66       LD   H,(HL)
039A4 00       NOP  
039A5 76       HALT 
039A6 00       NOP  
039A7 5E       LD   E,(HL)
039A8 00       NOP  
039A9 4E       LD   C,(HL)
039AA 00       NOP  
039AB 46       LD   B,(HL)
039AC 00       NOP  
039AD 00       NOP  
039AE 00       NOP  
039AF 00       NOP  
039B0 00       NOP  
039B1 7C       LD   A,H
039B2 00       NOP  
039B3 4E       LD   C,(HL)
039B4 00       NOP  
039B5 4E       LD   C,(HL)
039B6 00       NOP  
039B7 4E       LD   C,(HL)
039B8 00       NOP  
039B9 4E       LD   C,(HL)
039BA 00       NOP  
039BB 7C       LD   A,H
039BC 00       NOP  
039BD 00       NOP  
039BE 00       NOP  
039BF FF       RST  38
039C0 FF       RST  38
039C1 FF       RST  38
039C2 00       NOP  
039C3 FF       RST  38
039C4 00       NOP  
039C5 FF       RST  38
039C6 00       NOP  
039C7 FF       RST  38
039C8 10FF     DJNZ 39C9
039CA 80       ADD  A,B
039CB FF       RST  38
039CC 02       LD   (BC),A
039CD FF       RST  38
039CE 00       NOP  
039CF 00       NOP  
039D0 00       NOP  
039D1 FF       RST  38
039D2 FF       RST  38
039D3 FF       RST  38
039D4 FF       RST  38
039D5 FF       RST  38
039D6 00       NOP  
039D7 FF       RST  38
039D8 02       LD   (BC),A
039D9 FF       RST  38
039DA 20FF     JR   NZ,39DB
039DC FF       RST  38
039DD 80       ADD  A,B
039DE 80       ADD  A,B
039DF 80       ADD  A,B
039E0 80       ADD  A,B
039E1 80       ADD  A,B
039E2 80       ADD  A,B
039E3 80       ADD  A,B
039E4 80       ADD  A,B
039E5 80       ADD  A,B
039E6 80       ADD  A,B
039E7 80       ADD  A,B
039E8 80       ADD  A,B
039E9 80       ADD  A,B
039EA 80       ADD  A,B
039EB 80       ADD  A,B
039EC 80       ADD  A,B
039ED 80       ADD  A,B
039EE 80       ADD  A,B
039EF 80       ADD  A,B
039F0 80       ADD  A,B
039F1 FF       RST  38
039F2 FF       RST  38
039F3 00       NOP  
039F4 FF       RST  38
039F5 00       NOP  
039F6 FF       RST  38
039F7 00       NOP  
039F8 FF       RST  38
039F9 00       NOP  
039FA FF       RST  38
039FB FF       RST  38
039FC FF       RST  38
039FD 80       ADD  A,B
039FE 80       ADD  A,B
039FF 80       ADD  A,B
03A00 80       ADD  A,B
03A01 FF       RST  38
03A02 FF       RST  38
03A03 FF       RST  38
03A04 00       NOP  
03A05 FF       RST  38
03A06 02       LD   (BC),A
03A07 FF       RST  38
03A08 20FF     JR   NZ,3A09
03A0A 00       NOP  
03A0B FF       RST  38
03A0C 00       NOP  
03A0D FF       RST  38
03A0E 00       NOP  
03A0F FF       RST  38
03A10 00       NOP  
03A11 00       NOP  
03A12 00       NOP  
03A13 00       NOP  
03A14 00       NOP  
03A15 00       NOP  
03A16 00       NOP  
03A17 00       NOP  
03A18 00       NOP  
03A19 00       NOP  
03A1A 00       NOP  
03A1B 00       NOP  
03A1C 00       NOP  
03A1D 00       NOP  
03A1E 00       NOP  
03A1F 07       RLCA 
03A20 07       RLCA 
03A21 181F     JR   3A42
03A23 213E47   LD   HL,473E
03A26 7F       LD   A,A
03A27 5F       LD   E,A
03A28 7F       LD   A,A
03A29 39       ADD  HL,SP
03A2A 307B     JR   NC,3AA7
03A2C 62       LD   H,D
03A2D FB       EI   
03A2E B2       OR   D
03A2F FF       RST  38
03A30 A0       AND  B
03A31 FF       RST  38
03A32 C27F54   JP   NZ,547F
03A35 7F       LD   A,A
03A36 5C       LD   E,H
03A37 3F       CCF  
03A38 2E7F     LD   L,7F
03A3A 63       LD   H,E
03A3B BF       CP   A
03A3C F8       RET  M
03A3D 37       SCF  
03A3E FF       RST  38
03A3F 010101   LD   BC,0101
03A42 010101   LD   BC,0101
03A45 010101   LD   BC,0101
03A48 010101   LD   BC,0101
03A4B 010183   LD   BC,8301
03A4E 83       ADD  A,E
03A4F 010101   LD   BC,0101
03A52 010101   LD   BC,0101
03A55 010101   LD   BC,0101
03A58 010101   LD   BC,0101
03A5B 0101FF   LD   BC,FF01
03A5E FF       RST  38
03A5F FF       RST  38
03A60 FF       RST  38
03A61 010101   LD   BC,0101
03A64 010101   LD   BC,0101
03A67 010101   LD   BC,0101
03A6A 010101   LD   BC,0101
03A6D 83       ADD  A,E
03A6E 83       ADD  A,E
03A6F FF       RST  38
03A70 FF       RST  38
03A71 D9       RETI 
03A72 87       ADD  A,A
03A73 D9       RETI 
03A74 87       ADD  A,A
03A75 D9       RETI 
03A76 87       ADD  A,A
03A77 D9       RETI 
03A78 87       ADD  A,A
03A79 D9       RETI 
03A7A 87       ADD  A,A
03A7B D9       RETI 
03A7C 87       ADD  A,A
03A7D D9       RETI 
03A7E 87       ADD  A,A
03A7F D9       RETI 
03A80 87       ADD  A,A
03A81 D9       RETI 
03A82 87       ADD  A,A
03A83 D9       RETI 
03A84 87       ADD  A,A
03A85 D9       RETI 
03A86 87       ADD  A,A
03A87 D9       RETI 
03A88 87       ADD  A,A
03A89 D9       RETI 
03A8A 87       ADD  A,A
03A8B D9       RETI 
03A8C 87       ADD  A,A
03A8D FF       RST  38
03A8E FF       RST  38
03A8F D9       RETI 
03A90 87       ADD  A,A
03A91 D9       RETI 
03A92 87       ADD  A,A
03A93 D9       RETI 
03A94 87       ADD  A,A
03A95 D9       RETI 
03A96 87       ADD  A,A
03A97 D9       RETI 
03A98 87       ADD  A,A
03A99 D9       RETI 
03A9A 87       ADD  A,A
03A9B D9       RETI 
03A9C 87       ADD  A,A
03A9D D9       RETI 
03A9E 87       ADD  A,A
03A9F 00       NOP  
03AA0 3800     JR   C,3AA2
03AA2 3800     JR   C,3AA4
03AA4 3800     JR   C,3AA6
03AA6 3800     JR   C,3AA8
03AA8 3800     JR   C,3AAA
03AAA 3800     JR   C,3AAC
03AAC 3800     JR   C,3AAE
03AAE 387C     JR   C,3B2C
03AB0 00       NOP  
03AB1 7C       LD   A,H
03AB2 00       NOP  
03AB3 7C       LD   A,H
03AB4 00       NOP  
03AB5 7C       LD   A,H
03AB6 00       NOP  
03AB7 7C       LD   A,H
03AB8 00       NOP  
03AB9 7C       LD   A,H
03ABA 00       NOP  
03ABB 7F       LD   A,A
03ABC 00       NOP  
03ABD FF       RST  38
03ABE 00       NOP  
03ABF 00       NOP  
03AC0 00       NOP  
03AC1 00       NOP  
03AC2 00       NOP  
03AC3 08       EX   AF,AF
03AC4 00       NOP  
03AC5 08       EX   AF,AF
03AC6 00       NOP  
03AC7 08       EX   AF,AF
03AC8 00       NOP  
03AC9 08       EX   AF,AF
03ACA 00       NOP  
03ACB 1C       INC  E
03ACC 00       NOP  
03ACD 1C       INC  E
03ACE 00       NOP  
03ACF 00       NOP  
03AD0 00       NOP  
03AD1 00       NOP  
03AD2 0E01     LD   C,01
03AD4 1D       DEC  E
03AD5 1E06     LD   E,06
03AD7 2A       HL++ A,(HL)
03AD8 2A       HL++ A,(HL)
03AD9 27       DAA  
03ADA 27       DAA  
03ADB 1013     DJNZ 3AF0
03ADD 0C       INC  C
03ADE 0D       DEC  C
03ADF 00       NOP  
03AE0 00       NOP  
03AE1 C0       RET  NZ
03AE2 C0       RET  NZ
03AE3 2020     JR   NZ,3B05
03AE5 10D0     DJNZ 3AB7
03AE7 D0       RET  NC
03AE8 10F0     DJNZ 3ADA
03AEA 30C8     JR   NC,3AB4
03AEC E8       RET  PE
03AED 08       EX   AF,AF
03AEE E8       RET  PE
03AEF 04       INC  B
03AF0 07       RLCA 
03AF1 03       INC  BC
03AF2 03       INC  BC
03AF3 0C       INC  C
03AF4 0C       INC  C
03AF5 1010     DJNZ 3B07
03AF7 35       DEC  (HL)
03AF8 202A     JR   NZ,3B24
03AFA 203F     JR   NZ,3B3B
03AFC 3F       CCF  
03AFD 0C       INC  C
03AFE 0C       INC  C
03AFF 28E8     JR   Z,3AE9
03B01 D8       RET  C
03B02 C0       RET  NZ
03B03 40       LD   B,B
03B04 40       LD   B,B
03B05 2020     JR   NZ,3B27
03B07 50       LD   D,B
03B08 10B0     DJNZ 3ABA
03B0A 10F0     DJNZ 3AFC
03B0C F0C0     IN   A,(C0)
03B0E C0       RET  NZ
03B0F 00       NOP  
03B10 E001     OUT  (01),A
03B12 71       LD   (HL),C
03B13 32       HL-- (HL),A
03B14 42       LD   B,D
03B15 34       INC  (HL)
03B16 35       DEC  (HL)
03B17 55       LD   D,L
03B18 54       LD   D,H
03B19 4F       LD   C,A
03B1A 4E       LD   C,(HL)
03B1B 212718   LD   HL,1827
03B1E 1B       DEC  DE
03B1F 00       NOP  
03B20 00       NOP  
03B21 80       ADD  A,B
03B22 80       ADD  A,B
03B23 40       LD   B,B
03B24 40       LD   B,B
03B25 20A0     JR   NZ,3AC7
03B27 A0       AND  B
03B28 20E0     JR   NZ,3B0A
03B2A 60       LD   H,B
03B2B 90       SUB  B
03B2C F008     IN   A,(08)
03B2E C8       RET  Z
03B2F B8       CP   B
03B30 B8       CP   B
03B31 84       ADD  A,H
03B32 84       ADD  A,H
03B33 84       ADD  A,H
03B34 84       ADD  A,H
03B35 FCFC92   CALL M,92FC
03B38 92       SUB  D
03B39 92       SUB  D
03B3A 92       SUB  D
03B3B 6C       LD   L,H
03B3C 6C       LD   L,H
03B3D EEEE     XOR  EE
03B3F 07       RLCA 
03B40 07       RLCA 
03B41 1F       RRA  
03B42 183E     JR   3B82
03B44 207F     JR   NZ,3BC5
03B46 4F       LD   C,A
03B47 7F       LD   A,A
03B48 5F       LD   E,A
03B49 70       LD   (HL),B
03B4A 70       LD   (HL),B
03B4B A2       AND  D
03B4C A2       AND  D
03B4D B0       OR   B
03B4E B0       OR   B
03B4F B4       OR   H
03B50 B4       OR   H
03B51 64       LD   H,H
03B52 64       LD   H,H
03B53 3C       INC  A
03B54 3C       INC  A
03B55 2E2E     LD   L,2E
03B57 27       DAA  
03B58 27       DAA  
03B59 1010     DJNZ 3B6B
03B5B 6C       LD   L,H
03B5C 7C       LD   A,H
03B5D CF       RST  08
03B5E B3       OR   E
03B5F 03       INC  BC
03B60 03       INC  BC
03B61 03       INC  BC
03B62 03       INC  BC
03B63 03       INC  BC
03B64 02       LD   (BC),A
03B65 07       RLCA 
03B66 0609     LD   B,09
03B68 09       ADD  HL,BC
03B69 1617     LD   D,17
03B6B 12       LD   (DE),A
03B6C 110E0F   LD   DE,0F0E
03B6F 08       EX   AF,AF
03B70 09       ADD  HL,BC
03B71 08       EX   AF,AF
03B72 08       EX   AF,AF
03B73 0F       RRCA 
03B74 0F       RRCA 
03B75 08       EX   AF,AF
03B76 08       EX   AF,AF
03B77 09       ADD  HL,BC
03B78 09       ADD  HL,BC
03B79 0A       LD   A,(BC)
03B7A 0A       LD   A,(BC)
03B7B 0606     LD   B,06
03B7D 0E0E     LD   C,0E
03B7F 03       INC  BC
03B80 03       INC  BC
03B81 03       INC  BC
03B82 03       INC  BC
03B83 03       INC  BC
03B84 02       LD   (BC),A
03B85 1F       RRA  
03B86 1E21     LD   E,21
03B88 214A55   LD   HL,554A
03B8B 4A       LD   C,D
03B8C 75       LD   (HL),L
03B8D 0A       LD   A,(BC)
03B8E 35       DEC  (HL)
03B8F 0A       LD   A,(BC)
03B90 15       DEC  D
03B91 08       EX   AF,AF
03B92 08       EX   AF,AF
03B93 0F       RRCA 
03B94 0F       RRCA 
03B95 08       EX   AF,AF
03B96 08       EX   AF,AF
03B97 09       ADD  HL,BC
03B98 09       ADD  HL,BC
03B99 0A       LD   A,(BC)
03B9A 0A       LD   A,(BC)
03B9B 0606     LD   B,06
03B9D 0E0E     LD   C,0E
03B9F 00       NOP  
03BA0 00       NOP  
03BA1 66       LD   H,(HL)
03BA2 00       NOP  
03BA3 6C       LD   L,H
03BA4 00       NOP  
03BA5 78       LD   A,B
03BA6 00       NOP  
03BA7 78       LD   A,B
03BA8 00       NOP  
03BA9 6C       LD   L,H
03BAA 00       NOP  
03BAB 66       LD   H,(HL)
03BAC 00       NOP  
03BAD 00       NOP  
03BAE 00       NOP  
03BAF 00       NOP  
03BB0 00       NOP  
03BB1 46       LD   B,(HL)
03BB2 00       NOP  
03BB3 2C       INC  L
03BB4 00       NOP  
03BB5 1800     JR   3BB7
03BB7 3800     JR   C,3BB9
03BB9 64       LD   H,H
03BBA 00       NOP  
03BBB 42       LD   B,D
03BBC 00       NOP  
03BBD 00       NOP  
03BBE 00       NOP  
03BBF FD       DB   FD
03BC0 FD       DB   FD
03BC1 FD       DB   FD
03BC2 FD       DB   FD
03BC3 FD       DB   FD
03BC4 FD       DB   FD
03BC5 FD       DB   FD
03BC6 FD       DB   FD
03BC7 FD       DB   FD
03BC8 FD       DB   FD
03BC9 FD       DB   FD
03BCA FD       DB   FD
03BCB FD       DB   FD
03BCC FD       DB   FD
03BCD FD       DB   FD
03BCE FD       DB   FD
03BCF F8       RET  M
03BD0 00       NOP  
03BD1 E000     OUT  (00),A
03BD3 C0       RET  NZ
03BD4 00       NOP  
03BD5 80       ADD  A,B
03BD6 00       NOP  
03BD7 80       ADD  A,B
03BD8 00       NOP  
03BD9 00       NOP  
03BDA 00       NOP  
03BDB 00       NOP  
03BDC 00       NOP  
03BDD 00       NOP  
03BDE 00       NOP  
03BDF 7F       LD   A,A
03BE0 00       NOP  
03BE1 1F       RRA  
03BE2 00       NOP  
03BE3 0F       RRCA 
03BE4 00       NOP  
03BE5 07       RLCA 
03BE6 00       NOP  
03BE7 07       RLCA 
03BE8 00       NOP  
03BE9 03       INC  BC
03BEA 00       NOP  
03BEB 03       INC  BC
03BEC 00       NOP  
03BED 03       INC  BC
03BEE 00       NOP  
03BEF 00       NOP  
03BF0 00       NOP  
03BF1 80       ADD  A,B
03BF2 00       NOP  
03BF3 80       ADD  A,B
03BF4 00       NOP  
03BF5 C0       RET  NZ
03BF6 00       NOP  
03BF7 E000     OUT  (00),A
03BF9 F8       RET  M
03BFA 00       NOP  
03BFB FF       RST  38
03BFC 00       NOP  
03BFD FF       RST  38
03BFE 00       NOP  
03BFF 03       INC  BC
03C00 00       NOP  
03C01 07       RLCA 
03C02 00       NOP  
03C03 07       RLCA 
03C04 00       NOP  
03C05 0F       RRCA 
03C06 00       NOP  
03C07 1F       RRA  
03C08 00       NOP  
03C09 7F       LD   A,A
03C0A 00       NOP  
03C0B FF       RST  38
03C0C 00       NOP  
03C0D FF       RST  38
03C0E 00       NOP  
03C0F FF       RST  38
03C10 FF       RST  38
03C11 FF       RST  38
03C12 FF       RST  38
03C13 00       NOP  
03C14 FF       RST  38
03C15 FF       RST  38
03C16 FF       RST  38
03C17 00       NOP  
03C18 FF       RST  38
03C19 FF       RST  38
03C1A 00       NOP  
03C1B 00       NOP  
03C1C FF       RST  38
03C1D FF       RST  38
03C1E 00       NOP  
03C1F FF       RST  38
03C20 00       NOP  
03C21 FF       RST  38
03C22 00       NOP  
03C23 FF       RST  38
03C24 01FE02   LD   BC,02FE
03C27 FE02     CP   02
03C29 FC04FC   CALL M,FC04
03C2C 04       INC  B
03C2D FC04FF   CALL M,FF04
03C30 02       LD   (BC),A
03C31 FF       RST  38
03C32 01FF01   LD   BC,01FF
03C35 0101FF   LD   BC,FF01
03C38 010101   LD   BC,0101
03C3B FF       RST  38
03C3C 010101   LD   BC,0101
03C3F 02       LD   (BC),A
03C40 02       LD   (BC),A
03C41 02       LD   (BC),A
03C42 02       LD   (BC),A
03C43 03       INC  BC
03C44 03       INC  BC
03C45 04       INC  B
03C46 05       DEC  B
03C47 08       EX   AF,AF
03C48 09       ADD  HL,BC
03C49 111221   LD   DE,2112
03C4C 2643     LD   H,43
03C4E 4C       LD   C,H
03C4F 00       NOP  
03C50 00       NOP  
03C51 010102   LD   BC,0201
03C54 02       LD   (BC),A
03C55 04       INC  B
03C56 04       INC  B
03C57 08       EX   AF,AF
03C58 09       ADD  HL,BC
03C59 1013     DJNZ 3C6E
03C5B 2027     JR   NZ,3C84
03C5D 202F     JR   NZ,3C8E
03C5F 87       ADD  A,A
03C60 98       SBC  A,B
03C61 0639     LD   B,39
03C63 0E71     LD   C,71
03C65 1EE1     LD   E,E1
03C67 3C       INC  A
03C68 C33CC3   JP   C33C
03C6B 78       LD   A,B
03C6C 87       ADD  A,A
03C6D 78       LD   A,B
03C6E 87       ADD  A,A
03C6F 40       LD   B,B
03C70 4F       LD   C,A
03C71 40       LD   B,B
03C72 4F       LD   C,A
03C73 80       ADD  A,B
03C74 9F       SBC  A,A
03C75 80       ADD  A,B
03C76 9F       SBC  A,A
03C77 80       ADD  A,B
03C78 9F       SBC  A,A
03C79 80       ADD  A,B
03C7A 9F       SBC  A,A
03C7B 80       ADD  A,B
03C7C 9F       SBC  A,A
03C7D 80       ADD  A,B
03C7E 9F       SBC  A,A
03C7F F8       RET  M
03C80 07       RLCA 
03C81 F00F     IN   A,(0F)
03C83 F00F     IN   A,(0F)
03C85 F00F     IN   A,(0F)
03C87 F00F     IN   A,(0F)
03C89 F00F     IN   A,(0F)
03C8B F00F     IN   A,(0F)
03C8D F8       RET  M
03C8E 07       RLCA 
03C8F 40       LD   B,B
03C90 5F       LD   E,A
03C91 40       LD   B,B
03C92 4F       LD   C,A
03C93 202F     JR   NZ,3CC4
03C95 2027     JR   NZ,3CBE
03C97 1011     DJNZ 3CAA
03C99 0F       RRCA 
03C9A 0F       RRCA 
03C9B 04       INC  B
03C9C 04       INC  B
03C9D 07       RLCA 
03C9E 07       RLCA 
03C9F 78       LD   A,B
03CA0 87       ADD  A,A
03CA1 7C       LD   A,H
03CA2 83       ADD  A,E
03CA3 3C       INC  A
03CA4 C31EE1   JP   E11E
03CA7 0F       RRCA 
03CA8 F0FF     IN   A,(FF)
03CAA FF       RST  38
03CAB FF       RST  38
03CAC 00       NOP  
03CAD FF       RST  38
03CAE FF       RST  38
03CAF FF       RST  38
03CB0 00       NOP  
03CB1 FF       RST  38
03CB2 00       NOP  
03CB3 FF       RST  38
03CB4 00       NOP  
03CB5 00       NOP  
03CB6 00       NOP  
03CB7 FF       RST  38
03CB8 00       NOP  
03CB9 00       NOP  
03CBA 00       NOP  
03CBB FF       RST  38
03CBC 00       NOP  
03CBD 00       NOP  
03CBE 00       NOP  
03CBF 02       LD   (BC),A
03CC0 00       NOP  
03CC1 02       LD   (BC),A
03CC2 00       NOP  
03CC3 02       LD   (BC),A
03CC4 00       NOP  
03CC5 02       LD   (BC),A
03CC6 00       NOP  
03CC7 02       LD   (BC),A
03CC8 00       NOP  
03CC9 02       LD   (BC),A
03CCA 00       NOP  
03CCB 02       LD   (BC),A
03CCC 00       NOP  
03CCD 02       LD   (BC),A
03CCE 00       NOP  
03CCF 1000     DJNZ 3CD1
03CD1 3800     JR   C,3CD3
03CD3 7C       LD   A,H
03CD4 00       NOP  
03CD5 FE00     CP   00
03CD7 FE00     CP   00
03CD9 FE00     CP   00
03CDB 7C       LD   A,H
03CDC 00       NOP  
03CDD 00       NOP  
03CDE 00       NOP  
03CDF 02       LD   (BC),A
03CE0 03       INC  BC
03CE1 010102   LD   BC,0201
03CE4 02       LD   (BC),A
03CE5 04       INC  B
03CE6 04       INC  B
03CE7 0D       DEC  C
03CE8 08       EX   AF,AF
03CE9 0A       LD   A,(BC)
03CEA 08       EX   AF,AF
03CEB 0F       RRCA 
03CEC 0F       RRCA 
03CED 03       INC  BC
03CEE 03       INC  BC
03CEF 28E8     JR   Z,3CD9
03CF1 F0D0     IN   A,(D0)
03CF3 3030     JR   NC,3D25
03CF5 08       EX   AF,AF
03CF6 08       EX   AF,AF
03CF7 54       LD   D,H
03CF8 04       INC  B
03CF9 AC       XOR  H
03CFA 04       INC  B
03CFB FCFC30   CALL M,30FC
03CFE 3000     JR   NC,3D00
03D00 00       NOP  
03D01 03       INC  BC
03D02 03       INC  BC
03D03 03       INC  BC
03D04 03       INC  BC
03D05 03       INC  BC
03D06 02       LD   (BC),A
03D07 07       RLCA 
03D08 0609     LD   B,09
03D0A 09       ADD  HL,BC
03D0B 08       EX   AF,AF
03D0C 08       EX   AF,AF
03D0D 0B       DEC  BC
03D0E 0B       DEC  BC
03D0F 00       NOP  
03D10 00       NOP  
03D11 C0       RET  NZ
03D12 C0       RET  NZ
03D13 C4C4E8   CALL NZ,E8C4
03D16 68       LD   L,B
03D17 90       SUB  B
03D18 F0A8     IN   A,(A8)
03D1A F8       RET  M
03D1B 48       LD   C,B
03D1C 78       LD   A,B
03D1D F8       RET  M
03D1E B8       CP   B
03D1F 00       NOP  
03D20 00       NOP  
03D21 07       RLCA 
03D22 07       RLCA 
03D23 07       RLCA 
03D24 07       RLCA 
03D25 07       RLCA 
03D26 04       INC  B
03D27 07       RLCA 
03D28 04       INC  B
03D29 0B       DEC  BC
03D2A 0B       DEC  BC
03D2B 1010     DJNZ 3D3D
03D2D 17       RLA  
03D2E 17       RLA  
03D2F 00       NOP  
03D30 00       NOP  
03D31 80       ADD  A,B
03D32 80       ADD  A,B
03D33 80       ADD  A,B
03D34 80       ADD  A,B
03D35 E0E0     OUT  (E0),A
03D37 90       SUB  B
03D38 F0A8     IN   A,(A8)
03D3A F8       RET  M
03D3B 48       LD   C,B
03D3C 78       LD   A,B
03D3D B8       CP   B
03D3E B8       CP   B
03D3F 08       EX   AF,AF
03D40 08       EX   AF,AF
03D41 0F       RRCA 
03D42 0F       RRCA 
03D43 08       EX   AF,AF
03D44 08       EX   AF,AF
03D45 0F       RRCA 
03D46 0F       RRCA 
03D47 09       ADD  HL,BC
03D48 09       ADD  HL,BC
03D49 09       ADD  HL,BC
03D4A 09       ADD  HL,BC
03D4B 0606     LD   B,06
03D4D 0E0E     LD   C,0E
03D4F E4E422   CALL PO,22E4
03D52 22       HL++ (HL),A
03D53 2020     JR   NZ,3D75
03D55 E0E0     OUT  (E0),A
03D57 2020     JR   NZ,3D79
03D59 2020     JR   NZ,3D7B
03D5B C0       RET  NZ
03D5C C0       RET  NZ
03D5D E0E0     OUT  (E0),A
03D5F 1818     JR   3D79
03D61 98       SBC  A,B
03D62 98       SBC  A,B
03D63 98       SBC  A,B
03D64 98       SBC  A,B
03D65 F8       RET  M
03D66 F8       RET  M
03D67 9C       SBC  A,H
03D68 98       SBC  A,B
03D69 3C       INC  A
03D6A 3C       INC  A
03D6B 3C       INC  A
03D6C 3C       INC  A
03D6D 7E       LD   A,(HL)
03D6E 7E       LD   A,(HL)
03D6F 7F       LD   A,A
03D70 00       NOP  
03D71 FEFE     CP   FE
03D73 7E       LD   A,(HL)
03D74 7E       LD   A,(HL)
03D75 FEDA     CP   DA
03D77 7E       LD   A,(HL)
03D78 5A       LD   E,D
03D79 7E       LD   A,(HL)
03D7A 7E       LD   A,(HL)
03D7B FCFCF8   CALL M,F8FC
03D7E F8       RET  M
03D7F FE0E     CP   0E
03D81 FEFE     CP   FE
03D83 7E       LD   A,(HL)
03D84 7E       LD   A,(HL)
03D85 FEDA     CP   DA
03D87 7E       LD   A,(HL)
03D88 5A       LD   E,D
03D89 7E       LD   A,(HL)
03D8A 7E       LD   A,(HL)
03D8B FCFCF8   CALL M,F8FC
03D8E F8       RET  M
03D8F 80       ADD  A,B
03D90 80       ADD  A,B
03D91 83       ADD  A,E
03D92 83       ADD  A,E
03D93 83       ADD  A,E
03D94 83       ADD  A,E
03D95 C302EF   JP   EF02
03D98 2E97     LD   L,97
03D9A 97       SUB  A
03D9B 47       LD   B,A
03D9C 44       LD   B,H
03D9D 24       INC  H
03D9E 24       INC  H
03D9F 00       NOP  
03DA0 00       NOP  
03DA1 C0       RET  NZ
03DA2 C0       RET  NZ
03DA3 C0       RET  NZ
03DA4 C0       RET  NZ
03DA5 C0       RET  NZ
03DA6 40       LD   B,B
03DA7 E060     OUT  (60),A
03DA9 F8       RET  M
03DAA F8       RET  M
03DAB E42434   CALL PO,3424
03DAE 34       INC  (HL)
03DAF 17       RLA  
03DB0 14       INC  D
03DB1 17       RLA  
03DB2 14       INC  D
03DB3 17       RLA  
03DB4 14       INC  D
03DB5 1C       INC  E
03DB6 1F       RRA  
03DB7 17       RLA  
03DB8 17       RLA  
03DB9 0F       RRCA 
03DBA 0F       RRCA 
03DBB 1E1E     LD   E,1E
03DBD 00       NOP  
03DBE 00       NOP  
03DBF F424F8   CALL P,F824
03DC2 28E8     JR   Z,3DAC
03DC4 2838     JR   Z,3DFE
03DC6 F8       RET  M
03DC7 E8       RET  PE
03DC8 E8       RET  PE
03DC9 90       SUB  B
03DCA 90       SUB  B
03DCB 70       LD   (HL),B
03DCC 70       LD   (HL),B
03DCD 78       LD   A,B
03DCE 78       LD   A,B
03DCF 03       INC  BC
03DD0 03       INC  BC
03DD1 03       INC  BC
03DD2 03       INC  BC
03DD3 03       INC  BC
03DD4 02       LD   (BC),A
03DD5 0F       RRCA 
03DD6 0E11     LD   C,11
03DD8 113737   LD   DE,3737
03DDB 71       LD   (HL),C
03DDC 52       LD   D,D
03DDD 7D       LD   A,L
03DDE 4E       LD   C,(HL)
03DDF C0       RET  NZ
03DE0 C0       RET  NZ
03DE1 C0       RET  NZ
03DE2 C0       RET  NZ
03DE3 C0       RET  NZ
03DE4 40       LD   B,B
03DE5 C0       RET  NZ
03DE6 40       LD   B,B
03DE7 A0       AND  B
03DE8 A0       AND  B
03DE9 1010     DJNZ 3DFB
03DEB FF       RST  38
03DEC FF       RST  38
03DED CF       RST  08
03DEE 33       INC  SP
03DEF 7F       LD   A,A
03DF0 40       LD   B,B
03DF1 3F       CCF  
03DF2 3F       CCF  
03DF3 08       EX   AF,AF
03DF4 08       EX   AF,AF
03DF5 0F       RRCA 
03DF6 0F       RRCA 
03DF7 09       ADD  HL,BC
03DF8 09       ADD  HL,BC
03DF9 09       ADD  HL,BC
03DFA 09       ADD  HL,BC
03DFB 0606     LD   B,06
03DFD 0E0E     LD   C,0E
03DFF FCFC20   CALL M,20FC
03E02 2020     JR   NZ,3E24
03E04 20E0     JR   NZ,3DE6
03E06 E020     OUT  (20),A
03E08 2020     JR   NZ,3E2A
03E0A 20C0     JR   NZ,3DCC
03E0C C0       RET  NZ
03E0D E0E0     OUT  (E0),A
03E0F 03       INC  BC
03E10 03       INC  BC
03E11 03       INC  BC
03E12 03       INC  BC
03E13 03       INC  BC
03E14 02       LD   (BC),A
03E15 07       RLCA 
03E16 0609     LD   B,09
03E18 09       ADD  HL,BC
03E19 33       INC  SP
03E1A 33       INC  SP
03E1B 77       LD   (HL),A
03E1C 54       LD   D,H
03E1D 73       LD   (HL),E
03E1E 4C       LD   C,H
03E1F 1818     JR   3E39
03E21 D8       RET  C
03E22 D8       RET  C
03E23 D8       RET  C
03E24 D8       RET  C
03E25 F8       RET  M
03E26 78       LD   A,B
03E27 DC58BC   CALL C,BC58
03E2A BC       CP   H
03E2B 3C       INC  A
03E2C 3C       INC  A
03E2D 7E       LD   A,(HL)
03E2E 7E       LD   A,(HL)
03E2F 09       ADD  HL,BC
03E30 0E07     LD   C,07
03E32 07       RLCA 
03E33 08       EX   AF,AF
03E34 0F       RRCA 
03E35 08       EX   AF,AF
03E36 0F       RRCA 
03E37 09       ADD  HL,BC
03E38 0F       RRCA 
03E39 0A       LD   A,(BC)
03E3A 0E06     LD   C,06
03E3C 060E     LD   B,0E
03E3E 0E00     LD   C,00
03E40 00       NOP  
03E41 03       INC  BC
03E42 03       INC  BC
03E43 03       INC  BC
03E44 03       INC  BC
03E45 03       INC  BC
03E46 02       LD   (BC),A
03E47 FF       RST  38
03E48 7E       LD   A,(HL)
03E49 C9       RET  
03E4A 3F       CCF  
03E4B 78       LD   A,B
03E4C 7F       LD   A,A
03E4D 09       ADD  HL,BC
03E4E 0F       RRCA 
03E4F 04       INC  B
03E50 04       INC  B
03E51 07       RLCA 
03E52 07       RLCA 
03E53 B8       CP   B
03E54 BF       CP   A
03E55 C0       RET  NZ
03E56 FF       RST  38
03E57 FF       RST  38
03E58 FF       RST  38
03E59 00       NOP  
03E5A 00       NOP  
03E5B 00       NOP  
03E5C 00       NOP  
03E5D 00       NOP  
03E5E 00       NOP  
03E5F 00       NOP  
03E60 00       NOP  
03E61 78       LD   A,B
03E62 78       LD   A,B
03E63 78       LD   A,B
03E64 78       LD   A,B
03E65 7B       LD   A,E
03E66 48       LD   C,B
03E67 60       LD   H,B
03E68 5F       LD   E,A
03E69 B6       OR   (HL)
03E6A B0       OR   B
03E6B 84       ADD  A,H
03E6C 84       ADD  A,H
03E6D B8       CP   B
03E6E B8       CP   B
03E6F 84       ADD  A,H
03E70 84       ADD  A,H
03E71 84       ADD  A,H
03E72 84       ADD  A,H
03E73 84       ADD  A,H
03E74 84       ADD  A,H
03E75 FAFA92   LD   A,(92FA)
03E78 92       SUB  D
03E79 9E       SBC  A,(HL)
03E7A 9E       SBC  A,(HL)
03E7B 67       LD   H,A
03E7C 67       LD   H,A
03E7D E0E0     OUT  (E0),A
03E7F 00       NOP  
03E80 00       NOP  
03E81 00       NOP  
03E82 00       NOP  
03E83 78       LD   A,B
03E84 78       LD   A,B
03E85 78       LD   A,B
03E86 78       LD   A,B
03E87 78       LD   A,B
03E88 48       LD   C,B
03E89 40       LD   B,B
03E8A 7E       LD   A,(HL)
03E8B B4       OR   H
03E8C B0       OR   B
03E8D 84       ADD  A,H
03E8E 84       ADD  A,H
03E8F 2A       HL++ A,(HL)
03E90 7B       LD   A,E
03E91 2F       CPL  
03E92 2F       CPL  
03E93 2F       CPL  
03E94 2F       CPL  
03E95 2F       CPL  
03E96 2F       CPL  
03E97 2F       CPL  
03E98 2F       CPL  
03E99 2F       CPL  
03E9A 2F       CPL  
03E9B 7B       LD   A,E
03E9C 3031     JR   NC,3ECF
03E9E 313131   LD   SP,3131
03EA1 31322A   LD   SP,2A32
03EA4 7C       LD   A,H
03EA5 2F       CPL  
03EA6 2F       CPL  
03EA7 2F       CPL  
03EA8 2F       CPL  
03EA9 2F       CPL  
03EAA 2F       CPL  
03EAB 2F       CPL  
03EAC 2F       CPL  
03EAD 2F       CPL  
03EAE 2F       CPL  
03EAF 7C       LD   A,H
03EB0 44       LD   B,H
03EB1 1C       INC  E
03EB2 0C       INC  C
03EB3 181B     JR   3ED0
03EB5 0E45     LD   C,45
03EB7 2A       HL++ A,(HL)
03EB8 7D       LD   A,L
03EB9 2F       CPL  
03EBA 2F       CPL  
03EBB 2F       CPL  
03EBC 2F       CPL  
03EBD 2F       CPL  
03EBE 2F       CPL  
03EBF 2F       CPL  
03EC0 2F       CPL  
03EC1 2F       CPL  
03EC2 2F       CPL  
03EC3 7D       LD   A,L
03EC4 67       LD   H,A
03EC5 46       LD   B,(HL)
03EC6 46       LD   B,(HL)
03EC7 46       LD   B,(HL)
03EC8 46       LD   B,(HL)
03EC9 46       LD   B,(HL)
03ECA 68       LD   L,B
03ECB 2A       HL++ A,(HL)
03ECC 7B       LD   A,E
03ECD 2F       CPL  
03ECE 2F       CPL  
03ECF 2F       CPL  
03ED0 2F       CPL  
03ED1 2F       CPL  
03ED2 2F       CPL  
03ED3 2F       CPL  
03ED4 2F       CPL  
03ED5 2F       CPL  
03ED6 2F       CPL  
03ED7 7B       LD   A,E
03ED8 2F       CPL  
03ED9 2F       CPL  
03EDA 2F       CPL  
03EDB 2F       CPL  
03EDC 2F       CPL  
03EDD 00       NOP  
03EDE 2F       CPL  
03EDF 2A       HL++ A,(HL)
03EE0 7C       LD   A,H
03EE1 2F       CPL  
03EE2 2F       CPL  
03EE3 2F       CPL  
03EE4 2F       CPL  
03EE5 2F       CPL  
03EE6 2F       CPL  
03EE7 2F       CPL  
03EE8 2F       CPL  
03EE9 2F       CPL  
03EEA 2F       CPL  
03EEB 7C       LD   A,H
03EEC 43       LD   B,E
03EED 34       INC  (HL)
03EEE 34       INC  (HL)
03EEF 34       INC  (HL)
03EF0 34       INC  (HL)
03EF1 34       INC  (HL)
03EF2 34       INC  (HL)
03EF3 2A       HL++ A,(HL)
03EF4 7D       LD   A,L
03EF5 2F       CPL  
03EF6 2F       CPL  
03EF7 2F       CPL  
03EF8 2F       CPL  
03EF9 2F       CPL  
03EFA 2F       CPL  
03EFB 2F       CPL  
03EFC 2F       CPL  
03EFD 2F       CPL  
03EFE 2F       CPL  
03EFF 7D       LD   A,L
03F00 3031     JR   NC,3F33
03F02 313131   LD   SP,3131
03F05 31322A   LD   SP,2A32
03F08 7B       LD   A,E
03F09 2F       CPL  
03F0A 2F       CPL  
03F0B 2F       CPL  
03F0C 2F       CPL  
03F0D 2F       CPL  
03F0E 2F       CPL  
03F0F 2F       CPL  
03F10 2F       CPL  
03F11 2F       CPL  
03F12 2F       CPL  
03F13 7B       LD   A,E
03F14 3615     LD   (HL),15
03F16 0E1F     LD   C,1F
03F18 0E15     LD   C,15
03F1A 37       SCF  
03F1B 2A       HL++ A,(HL)
03F1C 7C       LD   A,H
03F1D 2F       CPL  
03F1E 2F       CPL  
03F1F 2F       CPL  
03F20 2F       CPL  
03F21 2F       CPL  
03F22 2F       CPL  
03F23 2F       CPL  
03F24 2F       CPL  
03F25 2F       CPL  
03F26 2F       CPL  
03F27 7C       LD   A,H
03F28 362F     LD   (HL),2F
03F2A 2F       CPL  
03F2B 2F       CPL  
03F2C 2F       CPL  
03F2D 2F       CPL  
03F2E 37       SCF  
03F2F 2A       HL++ A,(HL)
03F30 7D       LD   A,L
03F31 2F       CPL  
03F32 2F       CPL  
03F33 2F       CPL  
03F34 2F       CPL  
03F35 2F       CPL  
03F36 2F       CPL  
03F37 2F       CPL  
03F38 2F       CPL  
03F39 2F       CPL  
03F3A 2F       CPL  
03F3B 7D       LD   A,L
03F3C 40       LD   B,B
03F3D 42       LD   B,D
03F3E 42       LD   B,D
03F3F 42       LD   B,D
03F40 42       LD   B,D
03F41 42       LD   B,D
03F42 41       LD   B,C
03F43 2A       HL++ A,(HL)
03F44 7B       LD   A,E
03F45 2F       CPL  
03F46 2F       CPL  
03F47 2F       CPL  
03F48 2F       CPL  
03F49 2F       CPL  
03F4A 2F       CPL  
03F4B 2F       CPL  
03F4C 2F       CPL  
03F4D 2F       CPL  
03F4E 2F       CPL  
03F4F 7B       LD   A,E
03F50 3615     LD   (HL),15
03F52 12       LD   (DE),A
03F53 17       RLA  
03F54 0E1C     LD   C,1C
03F56 37       SCF  
03F57 2A       HL++ A,(HL)
03F58 7C       LD   A,H
03F59 2F       CPL  
03F5A 2F       CPL  
03F5B 2F       CPL  
03F5C 2F       CPL  
03F5D 2F       CPL  
03F5E 2F       CPL  
03F5F 2F       CPL  
03F60 2F       CPL  
03F61 2F       CPL  
03F62 2F       CPL  
03F63 7C       LD   A,H
03F64 362F     LD   (HL),2F
03F66 2F       CPL  
03F67 2F       CPL  
03F68 2F       CPL  
03F69 2F       CPL  
03F6A 37       SCF  
03F6B 2A       HL++ A,(HL)
03F6C 7D       LD   A,L
03F6D 2F       CPL  
03F6E 2F       CPL  
03F6F 2F       CPL  
03F70 2F       CPL  
03F71 2F       CPL  
03F72 2F       CPL  
03F73 2F       CPL  
03F74 2F       CPL  
03F75 2F       CPL  
03F76 2F       CPL  
03F77 7D       LD   A,L
03F78 33       INC  SP
03F79 34       INC  (HL)
03F7A 34       INC  (HL)
03F7B 34       INC  (HL)
03F7C 34       INC  (HL)
03F7D 34       INC  (HL)
03F7E 35       DEC  (HL)
03F7F 2A       HL++ A,(HL)
03F80 7B       LD   A,E
03F81 2F       CPL  
03F82 2F       CPL  
03F83 2F       CPL  
03F84 2F       CPL  
03F85 2F       CPL  
03F86 2F       CPL  
03F87 2F       CPL  
03F88 2F       CPL  
03F89 2F       CPL  
03F8A 2F       CPL  
03F8B 7B       LD   A,E
03F8C 2B       DEC  HL
03F8D 3839     JR   C,3FC8
03F8F 39       ADD  HL,SP
03F90 39       ADD  HL,SP
03F91 39       ADD  HL,SP
03F92 3A       HL-- A,(HL)
03F93 2A       HL++ A,(HL)
03F94 7C       LD   A,H
03F95 2F       CPL  
03F96 2F       CPL  
03F97 2F       CPL  
03F98 2F       CPL  
03F99 2F       CPL  
03F9A 2F       CPL  
03F9B 2F       CPL  
03F9C 2F       CPL  
03F9D 2F       CPL  
03F9E 2F       CPL  
03F9F 7C       LD   A,H
03FA0 2B       DEC  HL
03FA1 3B       DEC  SP
03FA2 2F       CPL  
03FA3 2F       CPL  
03FA4 2F       CPL  
03FA5 2F       CPL  
03FA6 3C       INC  A
03FA7 2A       HL++ A,(HL)
03FA8 7D       LD   A,L
03FA9 2F       CPL  
03FAA 2F       CPL  
03FAB 2F       CPL  
03FAC 2F       CPL  
03FAD 2F       CPL  
03FAE 2F       CPL  
03FAF 2F       CPL  
03FB0 2F       CPL  
03FB1 2F       CPL  
03FB2 2F       CPL  
03FB3 7D       LD   A,L
03FB4 2B       DEC  HL
03FB5 3B       DEC  SP
03FB6 2F       CPL  
03FB7 2F       CPL  
03FB8 2F       CPL  
03FB9 2F       CPL  
03FBA 3C       INC  A
03FBB 2A       HL++ A,(HL)
03FBC 7B       LD   A,E
03FBD 2F       CPL  
03FBE 2F       CPL  
03FBF 2F       CPL  
03FC0 2F       CPL  
03FC1 2F       CPL  
03FC2 2F       CPL  
03FC3 2F       CPL  
03FC4 2F       CPL  
03FC5 2F       CPL  
03FC6 2F       CPL  
03FC7 7B       LD   A,E
03FC8 2B       DEC  HL
03FC9 3B       DEC  SP
03FCA 2F       CPL  
03FCB 2F       CPL  
03FCC 2F       CPL  
03FCD 2F       CPL  
03FCE 3C       INC  A
03FCF 2A       HL++ A,(HL)
03FD0 7C       LD   A,H
03FD1 2F       CPL  
03FD2 2F       CPL  
03FD3 2F       CPL  
03FD4 2F       CPL  
03FD5 2F       CPL  
03FD6 2F       CPL  
03FD7 2F       CPL  
03FD8 2F       CPL  
03FD9 2F       CPL  
03FDA 2F       CPL  
03FDB 7C       LD   A,H
03FDC 2B       DEC  HL
03FDD 3B       DEC  SP
03FDE 2F       CPL  
03FDF 2F       CPL  
03FE0 2F       CPL  
03FE1 2F       CPL  
03FE2 3C       INC  A
03FE3 2A       HL++ A,(HL)
03FE4 7D       LD   A,L
03FE5 2F       CPL  
03FE6 2F       CPL  
03FE7 2F       CPL  
03FE8 2F       CPL  
03FE9 2F       CPL  
03FEA 2F       CPL  
03FEB 2F       CPL  
03FEC 2F       CPL  
03FED 2F       CPL  
03FEE 2F       CPL  
03FEF 7D       LD   A,L
03FF0 2B       DEC  HL
03FF1 3D       DEC  A
03FF2 3E3E     LD   A,3E
03FF4 3E3E     LD   A,3E
03FF6 3F       CCF  
03FF7 2A       HL++ A,(HL)
03FF8 7B       LD   A,E
03FF9 2F       CPL  
03FFA 2F       CPL  
03FFB 2F       CPL  
03FFC 2F       CPL  
03FFD 2F       CPL  
03FFE 2F       CPL  
03FFF 2F       CPL  
04000 2F       CPL  
04001 2F       CPL  
04002 2F       CPL  
04003 7B       LD   A,E
04004 3031     JR   NC,4037
04006 313131   LD   SP,3131
04009 31322A   LD   SP,2A32
0400C 7C       LD   A,H
0400D 2F       CPL  
0400E 2F       CPL  
0400F 2F       CPL  
04010 2F       CPL  
04011 2F       CPL  
04012 2F       CPL  
04013 2F       CPL  
04014 2F       CPL  
04015 2F       CPL  
04016 2F       CPL  
04017 7C       LD   A,H
04018 3615     LD   (HL),15
0401A 0E1F     LD   C,1F
0401C 0E15     LD   C,15
0401E 37       SCF  
0401F 2A       HL++ A,(HL)
04020 7D       LD   A,L
04021 2F       CPL  
04022 2F       CPL  
04023 2F       CPL  
04024 2F       CPL  
04025 2F       CPL  
04026 2F       CPL  
04027 2F       CPL  
04028 2F       CPL  
04029 2F       CPL  
0402A 2F       CPL  
0402B 7D       LD   A,L
0402C 362F     LD   (HL),2F
0402E 2F       CPL  
0402F 2F       CPL  
04030 2F       CPL  
04031 2F       CPL  
04032 37       SCF  
04033 2A       HL++ A,(HL)
04034 7B       LD   A,E
04035 2F       CPL  
04036 2F       CPL  
04037 2F       CPL  
04038 2F       CPL  
04039 2F       CPL  
0403A 2F       CPL  
0403B 2F       CPL  
0403C 2F       CPL  
0403D 2F       CPL  
0403E 2F       CPL  
0403F 7B       LD   A,E
04040 40       LD   B,B
04041 42       LD   B,D
04042 42       LD   B,D
04043 42       LD   B,D
04044 42       LD   B,D
04045 42       LD   B,D
04046 41       LD   B,C
04047 2A       HL++ A,(HL)
04048 7C       LD   A,H
04049 2F       CPL  
0404A 2F       CPL  
0404B 2F       CPL  
0404C 2F       CPL  
0404D 2F       CPL  
0404E 2F       CPL  
0404F 2F       CPL  
04050 2F       CPL  
04051 2F       CPL  
04052 2F       CPL  
04053 7C       LD   A,H
04054 3611     LD   (HL),11
04056 12       LD   (DE),A
04057 1011     DJNZ 406A
04059 2F       CPL  
0405A 37       SCF  
0405B 2A       HL++ A,(HL)
0405C 7D       LD   A,L
0405D 2F       CPL  
0405E 2F       CPL  
0405F 2F       CPL  
04060 2F       CPL  
04061 2F       CPL  
04062 2F       CPL  
04063 2F       CPL  
04064 2F       CPL  
04065 2F       CPL  
04066 2F       CPL  
04067 7D       LD   A,L
04068 362F     LD   (HL),2F
0406A 2F       CPL  
0406B 2F       CPL  
0406C 2F       CPL  
0406D 2F       CPL  
0406E 37       SCF  
0406F 2A       HL++ A,(HL)
04070 7B       LD   A,E
04071 2F       CPL  
04072 2F       CPL  
04073 2F       CPL  
04074 2F       CPL  
04075 2F       CPL  
04076 2F       CPL  
04077 2F       CPL  
04078 2F       CPL  
04079 2F       CPL  
0407A 2F       CPL  
0407B 7B       LD   A,E
0407C 33       INC  SP
0407D 34       INC  (HL)
0407E 34       INC  (HL)
0407F 34       INC  (HL)
04080 34       INC  (HL)
04081 34       INC  (HL)
04082 35       DEC  (HL)
04083 2A       HL++ A,(HL)
04084 7C       LD   A,H
04085 2F       CPL  
04086 2F       CPL  
04087 2F       CPL  
04088 2F       CPL  
04089 2F       CPL  
0408A 2F       CPL  
0408B 2F       CPL  
0408C 2F       CPL  
0408D 2F       CPL  
0408E 2F       CPL  
0408F 7C       LD   A,H
04090 2B       DEC  HL
04091 8E       ADC  A,(HL)
04092 8E       ADC  A,(HL)
04093 8E       ADC  A,(HL)
04094 8E       ADC  A,(HL)
04095 8E       ADC  A,(HL)
04096 8E       ADC  A,(HL)
04097 2A       HL++ A,(HL)
04098 7D       LD   A,L
04099 2F       CPL  
0409A 2F       CPL  
0409B 2F       CPL  
0409C 2F       CPL  
0409D 2F       CPL  
0409E 2F       CPL  
0409F 2F       CPL  
040A0 2F       CPL  
040A1 2F       CPL  
040A2 2F       CPL  
040A3 7D       LD   A,L
040A4 3031     JR   NC,40D7
040A6 313131   LD   SP,3131
040A9 31322A   LD   SP,2A32
040AC 7B       LD   A,E
040AD 2F       CPL  
040AE 2F       CPL  
040AF 2F       CPL  
040B0 2F       CPL  
040B1 2F       CPL  
040B2 2F       CPL  
040B3 2F       CPL  
040B4 2F       CPL  
040B5 2F       CPL  
040B6 2F       CPL  
040B7 7B       LD   A,E
040B8 3615     LD   (HL),15
040BA 12       LD   (DE),A
040BB 17       RLA  
040BC 0E1C     LD   C,1C
040BE 37       SCF  
040BF 2A       HL++ A,(HL)
040C0 7C       LD   A,H
040C1 2F       CPL  
040C2 2F       CPL  
040C3 2F       CPL  
040C4 2F       CPL  
040C5 2F       CPL  
040C6 2F       CPL  
040C7 2F       CPL  
040C8 2F       CPL  
040C9 2F       CPL  
040CA 2F       CPL  
040CB 7C       LD   A,H
040CC 362F     LD   (HL),2F
040CE 2F       CPL  
040CF 02       LD   (BC),A
040D0 05       DEC  B
040D1 2F       CPL  
040D2 37       SCF  
040D3 2A       HL++ A,(HL)
040D4 7D       LD   A,L
040D5 2F       CPL  
040D6 2F       CPL  
040D7 2F       CPL  
040D8 2F       CPL  
040D9 2F       CPL  
040DA 2F       CPL  
040DB 2F       CPL  
040DC 2F       CPL  
040DD 2F       CPL  
040DE 2F       CPL  
040DF 7D       LD   A,L
040E0 33       INC  SP
040E1 34       INC  (HL)
040E2 34       INC  (HL)
040E3 34       INC  (HL)
040E4 34       INC  (HL)
040E5 34       INC  (HL)
040E6 35       DEC  (HL)
040E7 2A       HL++ A,(HL)
040E8 7B       LD   A,E
040E9 2F       CPL  
040EA 2F       CPL  
040EB 2F       CPL  
040EC 2F       CPL  
040ED 2F       CPL  
040EE 2F       CPL  
040EF 2F       CPL  
040F0 2F       CPL  
040F1 2F       CPL  
040F2 2F       CPL  
040F3 7B       LD   A,E
040F4 2B       DEC  HL
040F5 3839     JR   C,4130
040F7 39       ADD  HL,SP
040F8 39       ADD  HL,SP
040F9 39       ADD  HL,SP
040FA 3A       HL-- A,(HL)
040FB 2A       HL++ A,(HL)
040FC 7C       LD   A,H
040FD 2F       CPL  
040FE 2F       CPL  
040FF 2F       CPL  
04100 2F       CPL  
04101 2F       CPL  
04102 2F       CPL  
04103 2F       CPL  
04104 2F       CPL  
04105 2F       CPL  
04106 2F       CPL  
04107 7C       LD   A,H
04108 2B       DEC  HL
04109 3B       DEC  SP
0410A 2F       CPL  
0410B 2F       CPL  
0410C 2F       CPL  
0410D 2F       CPL  
0410E 3C       INC  A
0410F 2A       HL++ A,(HL)
04110 7D       LD   A,L
04111 2F       CPL  
04112 2F       CPL  
04113 2F       CPL  
04114 2F       CPL  
04115 2F       CPL  
04116 2F       CPL  
04117 2F       CPL  
04118 2F       CPL  
04119 2F       CPL  
0411A 2F       CPL  
0411B 7D       LD   A,L
0411C 2B       DEC  HL
0411D 3B       DEC  SP
0411E 2F       CPL  
0411F 2F       CPL  
04120 2F       CPL  
04121 2F       CPL  
04122 3C       INC  A
04123 2A       HL++ A,(HL)
04124 7B       LD   A,E
04125 2F       CPL  
04126 2F       CPL  
04127 2F       CPL  
04128 2F       CPL  
04129 2F       CPL  
0412A 2F       CPL  
0412B 2F       CPL  
0412C 2F       CPL  
0412D 2F       CPL  
0412E 2F       CPL  
0412F 7B       LD   A,E
04130 2B       DEC  HL
04131 3B       DEC  SP
04132 2F       CPL  
04133 2F       CPL  
04134 2F       CPL  
04135 2F       CPL  
04136 3C       INC  A
04137 2A       HL++ A,(HL)
04138 7C       LD   A,H
04139 2F       CPL  
0413A 2F       CPL  
0413B 2F       CPL  
0413C 2F       CPL  
0413D 2F       CPL  
0413E 2F       CPL  
0413F 2F       CPL  
04140 2F       CPL  
04141 2F       CPL  
04142 2F       CPL  
04143 7C       LD   A,H
04144 2B       DEC  HL
04145 3B       DEC  SP
04146 2F       CPL  
04147 2F       CPL  
04148 2F       CPL  
04149 2F       CPL  
0414A 3C       INC  A
0414B 2A       HL++ A,(HL)
0414C 7D       LD   A,L
0414D 2F       CPL  
0414E 2F       CPL  
0414F 2F       CPL  
04150 2F       CPL  
04151 2F       CPL  
04152 2F       CPL  
04153 2F       CPL  
04154 2F       CPL  
04155 2F       CPL  
04156 2F       CPL  
04157 7D       LD   A,L
04158 2B       DEC  HL
04159 3D       DEC  A
0415A 3E3E     LD   A,3E
0415C 3E3E     LD   A,3E
0415E 3F       CCF  
0415F 00       NOP  
04160 3C       INC  A
04161 66       LD   H,(HL)
04162 66       LD   H,(HL)
04163 66       LD   H,(HL)
04164 66       LD   H,(HL)
04165 3C       INC  A
04166 00       NOP  
04167 00       NOP  
04168 1838     JR   41A2
0416A 1818     JR   4184
0416C 183C     JR   41AA
0416E 00       NOP  
0416F 00       NOP  
04170 3C       INC  A
04171 4E       LD   C,(HL)
04172 0E3C     LD   C,3C
04174 70       LD   (HL),B
04175 7E       LD   A,(HL)
04176 00       NOP  
04177 00       NOP  
04178 7C       LD   A,H
04179 0E3C     LD   C,3C
0417B 0E0E     LD   C,0E
0417D 7C       LD   A,H
0417E 00       NOP  
0417F 00       NOP  
04180 3C       INC  A
04181 6C       LD   L,H
04182 4C       LD   C,H
04183 4E       LD   C,(HL)
04184 7E       LD   A,(HL)
04185 0C       INC  C
04186 00       NOP  
04187 00       NOP  
04188 7C       LD   A,H
04189 60       LD   H,B
0418A 7C       LD   A,H
0418B 0E4E     LD   C,4E
0418D 3C       INC  A
0418E 00       NOP  
0418F 00       NOP  
04190 3C       INC  A
04191 60       LD   H,B
04192 7C       LD   A,H
04193 66       LD   H,(HL)
04194 66       LD   H,(HL)
04195 3C       INC  A
04196 00       NOP  
04197 00       NOP  
04198 7E       LD   A,(HL)
04199 060C     LD   B,0C
0419B 1838     JR   41D5
0419D 3800     JR   C,419F
0419F 00       NOP  
041A0 3C       INC  A
041A1 4E       LD   C,(HL)
041A2 3C       INC  A
041A3 4E       LD   C,(HL)
041A4 4E       LD   C,(HL)
041A5 3C       INC  A
041A6 00       NOP  
041A7 00       NOP  
041A8 3C       INC  A
041A9 4E       LD   C,(HL)
041AA 4E       LD   C,(HL)
041AB 3E0E     LD   A,0E
041AD 3C       INC  A
041AE 00       NOP  
041AF 00       NOP  
041B0 3C       INC  A
041B1 4E       LD   C,(HL)
041B2 4E       LD   C,(HL)
041B3 7E       LD   A,(HL)
041B4 4E       LD   C,(HL)
041B5 4E       LD   C,(HL)
041B6 00       NOP  
041B7 00       NOP  
041B8 7C       LD   A,H
041B9 66       LD   H,(HL)
041BA 7C       LD   A,H
041BB 66       LD   H,(HL)
041BC 66       LD   H,(HL)
041BD 7C       LD   A,H
041BE 00       NOP  
041BF 00       NOP  
041C0 3C       INC  A
041C1 66       LD   H,(HL)
041C2 60       LD   H,B
041C3 60       LD   H,B
041C4 66       LD   H,(HL)
041C5 3C       INC  A
041C6 00       NOP  
041C7 00       NOP  
041C8 7C       LD   A,H
041C9 4E       LD   C,(HL)
041CA 4E       LD   C,(HL)
041CB 4E       LD   C,(HL)
041CC 4E       LD   C,(HL)
041CD 7C       LD   A,H
041CE 00       NOP  
041CF 00       NOP  
041D0 7E       LD   A,(HL)
041D1 60       LD   H,B
041D2 7C       LD   A,H
041D3 60       LD   H,B
041D4 60       LD   H,B
041D5 7E       LD   A,(HL)
041D6 00       NOP  
041D7 00       NOP  
041D8 7E       LD   A,(HL)
041D9 60       LD   H,B
041DA 60       LD   H,B
041DB 7C       LD   A,H
041DC 60       LD   H,B
041DD 60       LD   H,B
041DE 00       NOP  
041DF 00       NOP  
041E0 3C       INC  A
041E1 66       LD   H,(HL)
041E2 60       LD   H,B
041E3 6E       LD   L,(HL)
041E4 66       LD   H,(HL)
041E5 3E00     LD   A,00
041E7 00       NOP  
041E8 46       LD   B,(HL)
041E9 46       LD   B,(HL)
041EA 7E       LD   A,(HL)
041EB 46       LD   B,(HL)
041EC 46       LD   B,(HL)
041ED 46       LD   B,(HL)
041EE 00       NOP  
041EF 00       NOP  
041F0 3C       INC  A
041F1 1818     JR   420B
041F3 1818     JR   420D
041F5 3C       INC  A
041F6 00       NOP  
041F7 00       NOP  
041F8 1E0C     LD   E,0C
041FA 0C       INC  C
041FB 6C       LD   L,H
041FC 6C       LD   L,H
041FD 3800     JR   C,41FF
041FF 00       NOP  
04200 66       LD   H,(HL)
04201 6C       LD   L,H
04202 78       LD   A,B
04203 78       LD   A,B
04204 6C       LD   L,H
04205 66       LD   H,(HL)
04206 00       NOP  
04207 00       NOP  
04208 60       LD   H,B
04209 60       LD   H,B
0420A 60       LD   H,B
0420B 60       LD   H,B
0420C 60       LD   H,B
0420D 7E       LD   A,(HL)
0420E 00       NOP  
0420F 00       NOP  
04210 46       LD   B,(HL)
04211 6E       LD   L,(HL)
04212 7E       LD   A,(HL)
04213 56       LD   D,(HL)
04214 46       LD   B,(HL)
04215 46       LD   B,(HL)
04216 00       NOP  
04217 00       NOP  
04218 46       LD   B,(HL)
04219 66       LD   H,(HL)
0421A 76       HALT 
0421B 5E       LD   E,(HL)
0421C 4E       LD   C,(HL)
0421D 46       LD   B,(HL)
0421E 00       NOP  
0421F 00       NOP  
04220 3C       INC  A
04221 66       LD   H,(HL)
04222 66       LD   H,(HL)
04223 66       LD   H,(HL)
04224 66       LD   H,(HL)
04225 3C       INC  A
04226 00       NOP  
04227 00       NOP  
04228 7C       LD   A,H
04229 66       LD   H,(HL)
0422A 66       LD   H,(HL)
0422B 7C       LD   A,H
0422C 60       LD   H,B
0422D 60       LD   H,B
0422E 00       NOP  
0422F 00       NOP  
04230 3C       INC  A
04231 62       LD   H,D
04232 62       LD   H,D
04233 6A       LD   L,D
04234 64       LD   H,H
04235 3A       HL-- A,(HL)
04236 00       NOP  
04237 00       NOP  
04238 7C       LD   A,H
04239 66       LD   H,(HL)
0423A 66       LD   H,(HL)
0423B 7C       LD   A,H
0423C 68       LD   L,B
0423D 66       LD   H,(HL)
0423E 00       NOP  
0423F 00       NOP  
04240 3C       INC  A
04241 60       LD   H,B
04242 3C       INC  A
04243 0E4E     LD   C,4E
04245 3C       INC  A
04246 00       NOP  
04247 00       NOP  
04248 7E       LD   A,(HL)
04249 1818     JR   4263
0424B 1818     JR   4265
0424D 1800     JR   424F
0424F 00       NOP  
04250 46       LD   B,(HL)
04251 46       LD   B,(HL)
04252 46       LD   B,(HL)
04253 46       LD   B,(HL)
04254 4E       LD   C,(HL)
04255 3C       INC  A
04256 00       NOP  
04257 00       NOP  
04258 46       LD   B,(HL)
04259 46       LD   B,(HL)
0425A 46       LD   B,(HL)
0425B 46       LD   B,(HL)
0425C 2C       INC  L
0425D 1800     JR   425F
0425F 00       NOP  
04260 46       LD   B,(HL)
04261 46       LD   B,(HL)
04262 56       LD   D,(HL)
04263 7E       LD   A,(HL)
04264 6E       LD   L,(HL)
04265 46       LD   B,(HL)
04266 00       NOP  
04267 00       NOP  
04268 46       LD   B,(HL)
04269 2C       INC  L
0426A 1838     JR   42A4
0426C 64       LD   H,H
0426D 42       LD   B,D
0426E 00       NOP  
0426F 00       NOP  
04270 66       LD   H,(HL)
04271 66       LD   H,(HL)
04272 3C       INC  A
04273 1818     JR   428D
04275 1800     JR   4277
04277 00       NOP  
04278 7E       LD   A,(HL)
04279 0E1C     LD   C,1C
0427B 3870     JR   C,42ED
0427D 7E       LD   A,(HL)
0427E 00       NOP  
0427F 00       NOP  
04280 00       NOP  
04281 00       NOP  
04282 00       NOP  
04283 00       NOP  
04284 60       LD   H,B
04285 60       LD   H,B
04286 00       NOP  
04287 00       NOP  
04288 00       NOP  
04289 00       NOP  
0428A 3C       INC  A
0428B 3C       INC  A
0428C 00       NOP  
0428D 00       NOP  
0428E 00       NOP  
0428F 00       NOP  
04290 00       NOP  
04291 22       HL++ (HL),A
04292 14       INC  D
04293 08       EX   AF,AF
04294 14       INC  D
04295 22       HL++ (HL),A
04296 00       NOP  
04297 00       NOP  
04298 00       NOP  
04299 3636     LD   (HL),36
0429B 5F       LD   E,A
0429C 49       LD   C,C
0429D 5F       LD   E,A
0429E 41       LD   B,C
0429F 7F       LD   A,A
042A0 41       LD   B,C
042A1 3E22     LD   A,22
042A3 1C       INC  E
042A4 14       INC  D
042A5 08       EX   AF,AF
042A6 08       EX   AF,AF
042A7 FF       RST  38
042A8 FF       RST  38
042A9 FF       RST  38
042AA 81       ADD  A,C
042AB C1       POP  BC
042AC BF       CP   A
042AD C1       POP  BC
042AE BF       CP   A
042AF C1       POP  BC
042B0 BF       CP   A
042B1 C1       POP  BC
042B2 BF       CP   A
042B3 81       ADD  A,C
042B4 FF       RST  38
042B5 FF       RST  38
042B6 FF       RST  38
042B7 AA       XOR  D
042B8 AA       XOR  D
042B9 00       NOP  
042BA 00       NOP  
042BB 00       NOP  
042BC 00       NOP  
042BD 00       NOP  
042BE 00       NOP  
042BF 00       NOP  
042C0 00       NOP  
042C1 00       NOP  
042C2 00       NOP  
042C3 00       NOP  
042C4 00       NOP  
042C5 00       NOP  
042C6 00       NOP  
042C7 FEFE     CP   FE
042C9 FEFE     CP   FE
042CB FEFE     CP   FE
042CD FEFE     CP   FE
042CF FEFE     CP   FE
042D1 FEFE     CP   FE
042D3 FEFE     CP   FE
042D5 FEFE     CP   FE
042D7 7F       LD   A,A
042D8 7F       LD   A,A
042D9 7F       LD   A,A
042DA 7F       LD   A,A
042DB 7F       LD   A,A
042DC 7F       LD   A,A
042DD 7F       LD   A,A
042DE 7F       LD   A,A
042DF 7F       LD   A,A
042E0 7F       LD   A,A
042E1 7F       LD   A,A
042E2 7F       LD   A,A
042E3 7F       LD   A,A
042E4 7F       LD   A,A
042E5 7F       LD   A,A
042E6 7F       LD   A,A
042E7 FF       RST  38
042E8 00       NOP  
042E9 FF       RST  38
042EA 40       LD   B,B
042EB FF       RST  38
042EC 02       LD   (BC),A
042ED FF       RST  38
042EE 00       NOP  
042EF FF       RST  38
042F0 10FF     DJNZ 42F1
042F2 80       ADD  A,B
042F3 FF       RST  38
042F4 02       LD   (BC),A
042F5 FF       RST  38
042F6 00       NOP  
042F7 F010     IN   A,(10)
042F9 FF       RST  38
042FA 1F       RRA  
042FB FF       RST  38
042FC 00       NOP  
042FD FF       RST  38
042FE 40       LD   B,B
042FF FF       RST  38
04300 00       NOP  
04301 FF       RST  38
04302 02       LD   (BC),A
04303 FF       RST  38
04304 40       LD   B,B
04305 FF       RST  38
04306 00       NOP  
04307 0F       RRCA 
04308 08       EX   AF,AF
04309 FF       RST  38
0430A F8       RET  M
0430B FF       RST  38
0430C 00       NOP  
0430D FF       RST  38
0430E 02       LD   (BC),A
0430F FF       RST  38
04310 00       NOP  
04311 FF       RST  38
04312 40       LD   B,B
04313 FF       RST  38
04314 02       LD   (BC),A
04315 FF       RST  38
04316 00       NOP  
04317 00       NOP  
04318 00       NOP  
04319 00       NOP  
0431A 00       NOP  
0431B 00       NOP  
0431C 00       NOP  
0431D 00       NOP  
0431E 00       NOP  
0431F 00       NOP  
04320 00       NOP  
04321 00       NOP  
04322 00       NOP  
04323 00       NOP  
04324 00       NOP  
04325 00       NOP  
04326 00       NOP  
04327 00       NOP  
04328 00       NOP  
04329 00       NOP  
0432A 00       NOP  
0432B 1818     JR   4345
0432D 3838     JR   C,4367
0432F 1818     JR   4349
04331 1818     JR   434B
04333 1818     JR   434D
04335 3C       INC  A
04336 3C       INC  A
04337 00       NOP  
04338 00       NOP  
04339 00       NOP  
0433A 00       NOP  
0433B 3C       INC  A
0433C 3C       INC  A
0433D 4E       LD   C,(HL)
0433E 4E       LD   C,(HL)
0433F 4E       LD   C,(HL)
04340 4E       LD   C,(HL)
04341 3E3E     LD   A,3E
04343 0E0E     LD   C,0E
04345 3C       INC  A
04346 3C       INC  A
04347 00       NOP  
04348 00       NOP  
04349 00       NOP  
0434A 00       NOP  
0434B 3C       INC  A
0434C 3C       INC  A
0434D 4E       LD   C,(HL)
0434E 4E       LD   C,(HL)
0434F 3C       INC  A
04350 3C       INC  A
04351 4E       LD   C,(HL)
04352 4E       LD   C,(HL)
04353 4E       LD   C,(HL)
04354 4E       LD   C,(HL)
04355 3C       INC  A
04356 3C       INC  A
04357 00       NOP  
04358 00       NOP  
04359 3838     JR   C,4393
0435B 44       LD   B,H
0435C 44       LD   B,H
0435D BA       CP   D
0435E BA       CP   D
0435F A2       AND  D
04360 A2       AND  D
04361 BA       CP   D
04362 BA       CP   D
04363 44       LD   B,H
04364 44       LD   B,H
04365 3838     JR   C,439F
04367 C6C6     ADD  A,C6
04369 E6E6     AND  E6
0436B E6E6     AND  E6
0436D D6D6     SUB  D6
0436F D6D6     SUB  D6
04371 CECE     ADC  A,CE
04373 CECE     ADC  A,CE
04375 C6C6     ADD  A,C6
04377 C0       RET  NZ
04378 C0       RET  NZ
04379 C0       RET  NZ
0437A C0       RET  NZ
0437B 00       NOP  
0437C 00       NOP  
0437D DB       ???? 
0437E DB       ???? 
0437F DD       DB   DD
04380 DD       DB   DD
04381 D9       RETI 
04382 D9       RETI 
04383 D9       RETI 
04384 D9       RETI 
04385 D9       RETI 
04386 D9       RETI 
04387 00       NOP  
04388 00       NOP  
04389 3030     JR   NC,43BB
0438B 78       LD   A,B
0438C 78       LD   A,B
0438D 33       INC  SP
0438E 33       INC  SP
0438F B6       OR   (HL)
04390 B6       OR   (HL)
04391 B7       OR   A
04392 B7       OR   A
04393 B6       OR   (HL)
04394 B6       OR   (HL)
04395 B3       OR   E
04396 B3       OR   E
04397 00       NOP  
04398 00       NOP  
04399 00       NOP  
0439A 00       NOP  
0439B 00       NOP  
0439C 00       NOP  
0439D CDCD6E   CALL 6ECD
043A0 6E       LD   L,(HL)
043A1 ECEC0C   CALL PE,0CEC
043A4 0C       INC  C
043A5 ECEC01   CALL PE,01EC
043A8 010101   LD   BC,0101
043AB 01018F   LD   BC,8F01
043AE 8F       ADC  A,A
043AF D9       RETI 
043B0 D9       RETI 
043B1 D9       RETI 
043B2 D9       RETI 
043B3 D9       RETI 
043B4 D9       RETI 
043B5 CF       RST  08
043B6 CF       RST  08
043B7 80       ADD  A,B
043B8 80       ADD  A,B
043B9 80       ADD  A,B
043BA 80       ADD  A,B
043BB 80       ADD  A,B
043BC 80       ADD  A,B
043BD 9E       SBC  A,(HL)
043BE 9E       SBC  A,(HL)
043BF B3       OR   E
043C0 B3       OR   E
043C1 B3       OR   E
043C2 B3       OR   E
043C3 B3       OR   E
043C4 B3       OR   E
043C5 9E       SBC  A,(HL)
043C6 9E       SBC  A,(HL)
043C7 FF       RST  38
043C8 00       NOP  
043C9 FF       RST  38
043CA 00       NOP  
043CB FF       RST  38
043CC 00       NOP  
043CD EF       RST  28
043CE 00       NOP  
043CF FF       RST  38
043D0 00       NOP  
043D1 FF       RST  38
043D2 00       NOP  
043D3 FF       RST  38
043D4 00       NOP  
043D5 FF       RST  38
043D6 00       NOP  
043D7 FF       RST  38
043D8 00       NOP  
043D9 FF       RST  38
043DA 00       NOP  
043DB FF       RST  38
043DC 00       NOP  
043DD E7       RST  20
043DE 00       NOP  
043DF E7       RST  20
043E0 00       NOP  
043E1 FF       RST  38
043E2 00       NOP  
043E3 FF       RST  38
043E4 00       NOP  
043E5 FF       RST  38
043E6 00       NOP  
043E7 00       NOP  
043E8 FF       RST  38
043E9 FF       RST  38
043EA FF       RST  38
043EB 00       NOP  
043EC FF       RST  38
043ED 00       NOP  
043EE FF       RST  38
043EF FF       RST  38
043F0 00       NOP  
043F1 00       NOP  
043F2 FF       RST  38
043F3 FF       RST  38
043F4 00       NOP  
043F5 FF       RST  38
043F6 00       NOP  
043F7 00       NOP  
043F8 FF       RST  38
043F9 FF       RST  38
043FA FF       RST  38
043FB 01FF02   LD   BC,02FF
043FE FEFE     CP   FE
04400 02       LD   (BC),A
04401 04       INC  B
04402 FCFC04   CALL M,04FC
04405 FC0400   CALL M,0004
04408 FF       RST  38
04409 FF       RST  38
0440A FF       RST  38
0440B 80       ADD  A,B
0440C FF       RST  38
0440D 40       LD   B,B
0440E 7F       LD   A,A
0440F FF       RST  38
04410 40       LD   B,B
04411 E03F     OUT  (3F),A
04413 FF       RST  38
04414 20BF     JR   NZ,43D5
04416 60       LD   H,B
04417 FF       RST  38
04418 00       NOP  
04419 FF       RST  38
0441A 00       NOP  
0441B FF       RST  38
0441C 01FE02   LD   BC,02FE
0441F FE02     CP   02
04421 FC04FC   CALL M,FC04
04424 04       INC  B
04425 FC04FF   CALL M,FF04
04428 00       NOP  
04429 FF       RST  38
0442A 00       NOP  
0442B FF       RST  38
0442C 80       ADD  A,B
0442D 7F       LD   A,A
0442E 40       LD   B,B
0442F FF       RST  38
04430 40       LD   B,B
04431 FF       RST  38
04432 20FF     JR   NZ,4433
04434 20BF     JR   NZ,43F5
04436 60       LD   H,B
04437 FF       RST  38
04438 FF       RST  38
04439 FF       RST  38
0443A FF       RST  38
0443B FF       RST  38
0443C FF       RST  38
0443D FF       RST  38
0443E FF       RST  38
0443F FF       RST  38
04440 FF       RST  38
04441 FF       RST  38
04442 FF       RST  38
04443 00       NOP  
04444 00       NOP  
04445 00       NOP  
04446 00       NOP  
04447 FF       RST  38
04448 02       LD   (BC),A
04449 FF       RST  38
0444A 01FF01   LD   BC,01FF
0444D FF       RST  38
0444E 01FF01   LD   BC,01FF
04451 FF       RST  38
04452 01FF01   LD   BC,01FF
04455 FF       RST  38
04456 017FC0   LD   BC,C07F
04459 FF       RST  38
0445A 80       ADD  A,B
0445B FF       RST  38
0445C 80       ADD  A,B
0445D FF       RST  38
0445E 80       ADD  A,B
0445F FF       RST  38
04460 80       ADD  A,B
04461 FF       RST  38
04462 80       ADD  A,B
04463 FF       RST  38
04464 80       ADD  A,B
04465 FF       RST  38
04466 80       ADD  A,B
04467 FE02     CP   02
04469 FE02     CP   02
0446B FF       RST  38
0446C 03       INC  BC
0446D FC05F8   CALL M,F805
04470 09       ADD  HL,BC
04471 F1       POP  AF
04472 12       LD   (DE),A
04473 E1       POP  HL
04474 26C3     LD   H,C3
04476 4C       LD   C,H
04477 7F       LD   A,A
04478 C0       RET  NZ
04479 7F       LD   A,A
0447A C0       RET  NZ
0447B FF       RST  38
0447C C0       RET  NZ
0447D BF       CP   A
0447E 60       LD   H,B
0447F 9F       SBC  A,A
04480 70       LD   (HL),B
04481 AF       XOR  A
04482 58       LD   E,B
04483 27       DAA  
04484 DC33CE   CALL C,CE33
04487 FF       RST  38
04488 00       NOP  
04489 FF       RST  38
0448A 01FE02   LD   BC,02FE
0448D FC04F8   CALL M,F804
04490 09       ADD  HL,BC
04491 F013     IN   A,(13)
04493 E027     OUT  (27),A
04495 E02F     OUT  (2F),A
04497 87       ADD  A,A
04498 98       SBC  A,B
04499 0639     LD   B,39
0449B 0E71     LD   C,71
0449D 1EE1     LD   E,E1
0449F 3C       INC  A
044A0 C33CC3   JP   C33C
044A3 78       LD   A,B
044A4 87       ADD  A,A
044A5 78       LD   A,B
044A6 87       ADD  A,A
044A7 35       DEC  (HL)
044A8 CB       DB   CB
044A9 32       HL-- (HL),A
044AA CD3AC5   CALL C53A
044AD 79       LD   A,C
044AE 86       ADD  A,(HL)
044AF 78       LD   A,B
044B0 87       ADD  A,A
044B1 78       LD   A,B
044B2 87       ADD  A,A
044B3 7C       LD   A,H
044B4 83       ADD  A,E
044B5 7C       LD   A,H
044B6 83       ADD  A,E
044B7 FF       RST  38
044B8 00       NOP  
044B9 FF       RST  38
044BA 80       ADD  A,B
044BB 7F       LD   A,A
044BC C0       RET  NZ
044BD 3F       CCF  
044BE E09F     OUT  (9F),A
044C0 70       LD   (HL),B
044C1 4F       LD   C,A
044C2 B8       CP   B
044C3 67       LD   H,A
044C4 9C       SBC  A,H
044C5 37       SCF  
044C6 CCC04F   CALL Z,4FC0
044C9 C0       RET  NZ
044CA 4F       LD   C,A
044CB 80       ADD  A,B
044CC 9F       SBC  A,A
044CD 80       ADD  A,B
044CE 9F       SBC  A,A
044CF 80       ADD  A,B
044D0 9F       SBC  A,A
044D1 80       ADD  A,B
044D2 9F       SBC  A,A
044D3 80       ADD  A,B
044D4 9F       SBC  A,A
044D5 80       ADD  A,B
044D6 9F       SBC  A,A
044D7 F8       RET  M
044D8 07       RLCA 
044D9 F00F     IN   A,(0F)
044DB F00F     IN   A,(0F)
044DD F00F     IN   A,(0F)
044DF F00F     IN   A,(0F)
044E1 F00F     IN   A,(0F)
044E3 F00F     IN   A,(0F)
044E5 F8       RET  M
044E6 07       RLCA 
044E7 7C       LD   A,H
044E8 83       ADD  A,E
044E9 7E       LD   A,(HL)
044EA 81       ADD  A,C
044EB 7E       LD   A,(HL)
044EC 81       ADD  A,C
044ED 3EC1     LD   A,C1
044EF 3F       CCF  
044F0 C0       RET  NZ
044F1 1F       RRA  
044F2 E01F     OUT  (1F),A
044F4 E01F     OUT  (1F),A
044F6 E033     OUT  (33),A
044F8 CE1B     ADC  A,1B
044FA E609     AND  09
044FC F7       RST  30
044FD 0D       DEC  C
044FE F3       DI   
044FF 0D       DEC  C
04500 F3       DI   
04501 0D       DEC  C
04502 F3       DI   
04503 0D       DEC  C
04504 F3       DI   
04505 09       ADD  HL,BC
04506 F7       RST  30
04507 C0       RET  NZ
04508 5F       LD   E,A
04509 C0       RET  NZ
0450A 4F       LD   C,A
0450B E02F     OUT  (2F),A
0450D E027     OUT  (27),A
0450F F011     IN   A,(11)
04511 BF       CP   A
04512 4F       LD   C,A
04513 0C       INC  C
04514 F407FF   CALL P,FF07
04517 78       LD   A,B
04518 87       ADD  A,A
04519 7C       LD   A,H
0451A 83       ADD  A,E
0451B 3C       INC  A
0451C C31EE1   JP   E11E
0451F 0F       RRCA 
04520 F0FF     IN   A,(FF)
04522 FF       RST  38
04523 FF       RST  38
04524 00       NOP  
04525 FF       RST  38
04526 FF       RST  38
04527 0F       RRCA 
04528 F00F     IN   A,(0F)
0452A F00E     IN   A,(0E)
0452C F1       POP  AF
0452D 0EF1     LD   C,F1
0452F 06F9     LD   B,F9
04531 FF       RST  38
04532 FF       RST  38
04533 C5       PUSH BC
04534 3F       CCF  
04535 FF       RST  38
04536 FF       RST  38
04537 1B       DEC  DE
04538 E613     AND  13
0453A EE37     XOR  37
0453C CC27DC   CALL Z,DC27
0453F 4F       LD   C,A
04540 B8       CP   B
04541 FCF3FC   CALL M,FCF3
04544 A3       AND  E
04545 E0FF     OUT  (FF),A
04547 FE02     CP   02
04549 FE02     CP   02
0454B BF       CP   A
0454C 43       LD   B,E
0454D 1C       INC  E
0454E E5       PUSH HL
0454F B8       CP   B
04550 49       LD   C,C
04551 B1       OR   C
04552 52       LD   D,D
04553 A1       AND  C
04554 66       LD   H,(HL)
04555 43       LD   B,E
04556 CCFF00   CALL Z,00FF
04559 FF       RST  38
0455A 00       NOP  
0455B FF       RST  38
0455C 00       NOP  
0455D FF       RST  38
0455E 00       NOP  
0455F FF       RST  38
04560 00       NOP  
04561 FF       RST  38
04562 00       NOP  
04563 EF       RST  28
04564 10C7     DJNZ 452D
04566 38FF     JR   C,4567
04568 00       NOP  
04569 FB       EI   
0456A 04       INC  B
0456B FB       EI   
0456C 04       INC  B
0456D FB       EI   
0456E 04       INC  B
0456F FB       EI   
04570 04       INC  B
04571 F1       POP  AF
04572 0EF1     LD   C,F1
04574 0EF1     LD   C,F1
04576 0E83     LD   C,83
04578 7C       LD   A,H
04579 01FE01   LD   BC,01FE
0457C FE01     CP   01
0457E FE83     CP   83
04580 7C       LD   A,H
04581 FF       RST  38
04582 00       NOP  
04583 83       ADD  A,E
04584 7C       LD   A,H
04585 83       ADD  A,E
04586 7C       LD   A,H
04587 F1       POP  AF
04588 0EE0     LD   C,E0
0458A 1F       RRA  
0458B E01F     OUT  (1F),A
0458D E01F     OUT  (1F),A
0458F E01F     OUT  (1F),A
04591 E01F     OUT  (1F),A
04593 80       ADD  A,B
04594 7F       LD   A,A
04595 80       ADD  A,B
04596 7F       LD   A,A
04597 F7       RST  30
04598 08       EX   AF,AF
04599 EB       EX   DE,HL
0459A 14       INC  D
0459B F7       RST  30
0459C 08       EX   AF,AF
0459D F7       RST  30
0459E 08       EX   AF,AF
0459F E3       EX   (SP),HL
045A0 1C       INC  E
045A1 E3       EX   (SP),HL
045A2 1C       INC  E
045A3 63       LD   H,E
045A4 9C       SBC  A,H
045A5 01FE00   LD   BC,00FE
045A8 00       NOP  
045A9 60       LD   H,B
045AA 60       LD   H,B
045AB 70       LD   (HL),B
045AC 70       LD   (HL),B
045AD 78       LD   A,B
045AE 78       LD   A,B
045AF 78       LD   A,B
045B0 78       LD   A,B
045B1 70       LD   (HL),B
045B2 70       LD   (HL),B
045B3 60       LD   H,B
045B4 60       LD   H,B
045B5 00       NOP  
045B6 00       NOP  
045B7 00       NOP  
045B8 00       NOP  
045B9 3030     JR   NC,45EB
045BB 70       LD   (HL),B
045BC 70       LD   (HL),B
045BD 3030     JR   NC,45EF
045BF 3030     JR   NC,45F1
045C1 3030     JR   NC,45F3
045C3 78       LD   A,B
045C4 78       LD   A,B
045C5 00       NOP  
045C6 00       NOP  
045C7 E0E0     OUT  (E0),A
045C9 F0E0     IN   A,(E0)
045CB FB       EI   
045CC E0FC     OUT  (FC),A
045CE E0FC     OUT  (FC),A
045D0 E1       POP  HL
045D1 FCE1FC   CALL M,FCE1
045D4 E1       POP  HL
045D5 FCE100   CALL M,00E1
045D8 00       NOP  
045D9 00       NOP  
045DA 00       NOP  
045DB FF       RST  38
045DC 00       NOP  
045DD 00       NOP  
045DE 00       NOP  
045DF 00       NOP  
045E0 FF       RST  38
045E1 00       NOP  
045E2 00       NOP  
045E3 00       NOP  
045E4 00       NOP  
045E5 00       NOP  
045E6 00       NOP  
045E7 07       RLCA 
045E8 07       RLCA 
045E9 0F       RRCA 
045EA 07       RLCA 
045EB DF       RST  18
045EC 07       RLCA 
045ED 3F       CCF  
045EE 07       RLCA 
045EF 3F       CCF  
045F0 87       ADD  A,A
045F1 3F       CCF  
045F2 87       ADD  A,A
045F3 3F       CCF  
045F4 87       ADD  A,A
045F5 3F       CCF  
045F6 87       ADD  A,A
045F7 FCE1FC   CALL M,FCE1
045FA E1       POP  HL
045FB FCE1FC   CALL M,FCE1
045FE E1       POP  HL
045FF FCE1FC   CALL M,FCE1
04602 E1       POP  HL
04603 FCE1FC   CALL M,FCE1
04606 E1       POP  HL
04607 3F       CCF  
04608 87       ADD  A,A
04609 3F       CCF  
0460A 87       ADD  A,A
0460B 3F       CCF  
0460C 87       ADD  A,A
0460D 3F       CCF  
0460E 87       ADD  A,A
0460F 3F       CCF  
04610 87       ADD  A,A
04611 3F       CCF  
04612 87       ADD  A,A
04613 3F       CCF  
04614 87       ADD  A,A
04615 3F       CCF  
04616 87       ADD  A,A
04617 FCE1FC   CALL M,FCE1
0461A E1       POP  HL
0461B FCE1FC   CALL M,FCE1
0461E E1       POP  HL
0461F FCE0FF   CALL M,FFE0
04622 E7       RST  20
04623 FF       RST  38
04624 EF       RST  28
04625 E0FF     OUT  (FF),A
04627 00       NOP  
04628 00       NOP  
04629 00       NOP  
0462A 00       NOP  
0462B 00       NOP  
0462C 00       NOP  
0462D 00       NOP  
0462E FF       RST  38
0462F 00       NOP  
04630 00       NOP  
04631 FF       RST  38
04632 FF       RST  38
04633 FF       RST  38
04634 FF       RST  38
04635 00       NOP  
04636 FF       RST  38
04637 3F       CCF  
04638 87       ADD  A,A
04639 3F       CCF  
0463A 87       ADD  A,A
0463B 3F       CCF  
0463C 87       ADD  A,A
0463D 3F       CCF  
0463E 87       ADD  A,A
0463F 3F       CCF  
04640 07       RLCA 
04641 FF       RST  38
04642 E7       RST  20
04643 FF       RST  38
04644 F7       RST  30
04645 07       RLCA 
04646 FF       RST  38
04647 F8       RET  M
04648 00       NOP  
04649 E000     OUT  (00),A
0464B C0       RET  NZ
0464C 00       NOP  
0464D 80       ADD  A,B
0464E 00       NOP  
0464F 80       ADD  A,B
04650 00       NOP  
04651 00       NOP  
04652 00       NOP  
04653 00       NOP  
04654 00       NOP  
04655 00       NOP  
04656 00       NOP  
04657 7F       LD   A,A
04658 00       NOP  
04659 1F       RRA  
0465A 00       NOP  
0465B 0F       RRCA 
0465C 00       NOP  
0465D 07       RLCA 
0465E 00       NOP  
0465F 07       RLCA 
04660 00       NOP  
04661 03       INC  BC
04662 00       NOP  
04663 03       INC  BC
04664 00       NOP  
04665 03       INC  BC
04666 00       NOP  
04667 00       NOP  
04668 00       NOP  
04669 80       ADD  A,B
0466A 00       NOP  
0466B 80       ADD  A,B
0466C 00       NOP  
0466D C0       RET  NZ
0466E 00       NOP  
0466F E000     OUT  (00),A
04671 F8       RET  M
04672 00       NOP  
04673 FF       RST  38
04674 00       NOP  
04675 FF       RST  38
04676 00       NOP  
04677 03       INC  BC
04678 00       NOP  
04679 07       RLCA 
0467A 00       NOP  
0467B 07       RLCA 
0467C 00       NOP  
0467D 0F       RRCA 
0467E 00       NOP  
0467F 1F       RRA  
04680 00       NOP  
04681 7F       LD   A,A
04682 00       NOP  
04683 FF       RST  38
04684 00       NOP  
04685 FF       RST  38
04686 00       NOP  
04687 010101   LD   BC,0101
0468A 018181   LD   BC,8181
0468D C1       POP  BC
0468E C1       POP  BC
0468F C1       POP  BC
04690 C1       POP  BC
04691 E1       POP  HL
04692 E1       POP  HL
04693 F1       POP  AF
04694 F1       POP  AF
04695 F9       LD   SP,HL
04696 F9       LD   SP,HL
04697 FEFE     CP   FE
04699 FEFE     CP   FE
0469B FEFE     CP   FE
0469D FEFE     CP   FE
0469F FEFE     CP   FE
046A1 FEFE     CP   FE
046A3 FEFE     CP   FE
046A5 FEFE     CP   FE
046A7 7E       LD   A,(HL)
046A8 7E       LD   A,(HL)
046A9 7F       LD   A,A
046AA 7F       LD   A,A
046AB 7F       LD   A,A
046AC 7F       LD   A,A
046AD 7F       LD   A,A
046AE 7F       LD   A,A
046AF 7F       LD   A,A
046B0 7F       LD   A,A
046B1 7F       LD   A,A
046B2 7F       LD   A,A
046B3 7F       LD   A,A
046B4 7F       LD   A,A
046B5 7F       LD   A,A
046B6 7F       LD   A,A
046B7 7F       LD   A,A
046B8 7F       LD   A,A
046B9 3F       CCF  
046BA 3F       CCF  
046BB 9F       SBC  A,A
046BC 9F       SBC  A,A
046BD 8F       ADC  A,A
046BE 8F       ADC  A,A
046BF CF       RST  08
046C0 CF       RST  08
046C1 E7       RST  20
046C2 E7       RST  20
046C3 F3       DI   
046C4 F3       DI   
046C5 F7       RST  30
046C6 F7       RST  30
046C7 E0E0     OUT  (E0),A
046C9 E0E0     OUT  (E0),A
046CB E0E0     OUT  (E0),A
046CD E0E0     OUT  (E0),A
046CF E0E0     OUT  (E0),A
046D1 C0       RET  NZ
046D2 C0       RET  NZ
046D3 C0       RET  NZ
046D4 C0       RET  NZ
046D5 80       ADD  A,B
046D6 80       ADD  A,B
046D7 F0F0     IN   A,(F0)
046D9 F0F0     IN   A,(F0)
046DB F0F0     IN   A,(F0)
046DD F0F0     IN   A,(F0)
046DF F0F0     IN   A,(F0)
046E1 F0F0     IN   A,(F0)
046E3 F0F0     IN   A,(F0)
046E5 F0F0     IN   A,(F0)
046E7 00       NOP  
046E8 00       NOP  
046E9 7C       LD   A,H
046EA 7C       LD   A,H
046EB 47       LD   B,A
046EC 47       LD   B,A
046ED 41       LD   B,C
046EE 41       LD   B,C
046EF 40       LD   B,B
046F0 40       LD   B,B
046F1 40       LD   B,B
046F2 40       LD   B,B
046F3 40       LD   B,B
046F4 40       LD   B,B
046F5 7F       LD   A,A
046F6 40       LD   B,B
046F7 00       NOP  
046F8 00       NOP  
046F9 010101   LD   BC,0101
046FC 018181   LD   BC,8181
046FF C1       POP  BC
04700 C1       POP  BC
04701 41       LD   B,C
04702 41       LD   B,C
04703 61       LD   H,C
04704 61       LD   H,C
04705 E1       POP  HL
04706 61       LD   H,C
04707 00       NOP  
04708 00       NOP  
04709 FEFE     CP   FE
0470B 0606     LD   B,06
0470D 0606     LD   B,06
0470F 0606     LD   B,06
04711 0606     LD   B,06
04713 0606     LD   B,06
04715 FE06     CP   06
04717 00       NOP  
04718 00       NOP  
04719 1B       DEC  DE
0471A 1B       DEC  DE
0471B 32       HL-- (HL),A
0471C 32       HL-- (HL),A
0471D 59       LD   E,C
0471E 59       LD   E,C
0471F 4C       LD   C,H
04720 4C       LD   C,H
04721 8C       ADC  A,H
04722 8C       ADC  A,H
04723 86       ADD  A,(HL)
04724 86       ADD  A,(HL)
04725 FF       RST  38
04726 83       ADD  A,E
04727 00       NOP  
04728 00       NOP  
04729 FF       RST  38
0472A FF       RST  38
0472B 010101   LD   BC,0101
0472E 018181   LD   BC,8181
04731 41       LD   B,C
04732 41       LD   B,C
04733 41       LD   B,C
04734 41       LD   B,C
04735 3F       CCF  
04736 210000   LD   HL,0000
04739 BE       CP   (HL)
0473A BE       CP   (HL)
0473B 88       ADC  A,B
0473C 88       ADC  A,B
0473D 88       ADC  A,B
0473E 88       ADC  A,B
0473F 88       ADC  A,B
04740 88       ADC  A,B
04741 88       ADC  A,B
04742 88       ADC  A,B
04743 80       ADD  A,B
04744 80       ADD  A,B
04745 80       ADD  A,B
04746 80       ADD  A,B
04747 00       NOP  
04748 00       NOP  
04749 88       ADC  A,B
0474A 88       ADC  A,B
0474B D8       RET  C
0474C D8       RET  C
0474D A8       XOR  B
0474E A8       XOR  B
0474F 88       ADC  A,B
04750 88       ADC  A,B
04751 88       ADC  A,B
04752 88       ADC  A,B
04753 00       NOP  
04754 00       NOP  
04755 00       NOP  
04756 00       NOP  
04757 7F       LD   A,A
04758 40       LD   B,B
04759 7F       LD   A,A
0475A 40       LD   B,B
0475B 7F       LD   A,A
0475C 40       LD   B,B
0475D 7F       LD   A,A
0475E 40       LD   B,B
0475F 7F       LD   A,A
04760 40       LD   B,B
04761 7F       LD   A,A
04762 40       LD   B,B
04763 7F       LD   A,A
04764 40       LD   B,B
04765 47       LD   B,A
04766 7F       LD   A,A
04767 E1       POP  HL
04768 61       LD   H,C
04769 E1       POP  HL
0476A 61       LD   H,C
0476B E1       POP  HL
0476C 61       LD   H,C
0476D E1       POP  HL
0476E 61       LD   H,C
0476F E1       POP  HL
04770 61       LD   H,C
04771 C1       POP  BC
04772 C1       POP  BC
04773 C1       POP  BC
04774 C1       POP  BC
04775 81       ADD  A,C
04776 81       ADD  A,C
04777 FE06     CP   06
04779 FE06     CP   06
0477B FE06     CP   06
0477D FE06     CP   06
0477F FE06     CP   06
04781 FE06     CP   06
04783 FE06     CP   06
04785 06FE     LD   B,FE
04787 FF       RST  38
04788 83       ADD  A,E
04789 FF       RST  38
0478A 81       ADD  A,C
0478B 7F       LD   A,A
0478C 40       LD   B,B
0478D 7F       LD   A,A
0478E 40       LD   B,B
0478F 7F       LD   A,A
04790 40       LD   B,B
04791 3F       CCF  
04792 203F     JR   NZ,47D3
04794 2010     JR   NZ,47A6
04796 1F       RRA  
04797 1F       RRA  
04798 119F91   LD   DE,919F
0479B CF       RST  08
0479C C9       RET  
0479D C7       RST  00
0479E C5       PUSH BC
0479F E3       EX   (SP),HL
047A0 63       LD   H,E
047A1 F3       DI   
047A2 33       INC  SP
047A3 F9       LD   SP,HL
047A4 19       ADD  HL,DE
047A5 08       EX   AF,AF
047A6 F8       RET  M
047A7 80       ADD  A,B
047A8 80       ADD  A,B
047A9 80       ADD  A,B
047AA 80       ADD  A,B
047AB 80       ADD  A,B
047AC 80       ADD  A,B
047AD 80       ADD  A,B
047AE 80       ADD  A,B
047AF 80       ADD  A,B
047B0 80       ADD  A,B
047B1 80       ADD  A,B
047B2 80       ADD  A,B
047B3 80       ADD  A,B
047B4 80       ADD  A,B
047B5 80       ADD  A,B
047B6 80       ADD  A,B
047B7 5F       LD   E,A
047B8 7F       LD   A,A
047B9 78       LD   A,B
047BA 78       LD   A,B
047BB 60       LD   H,B
047BC 60       LD   H,B
047BD 50       LD   D,B
047BE 70       LD   (HL),B
047BF 50       LD   D,B
047C0 70       LD   (HL),B
047C1 48       LD   C,B
047C2 78       LD   A,B
047C3 44       LD   B,H
047C4 7C       LD   A,H
047C5 7E       LD   A,(HL)
047C6 7E       LD   A,(HL)
047C7 010101   LD   BC,0101
047CA 010101   LD   BC,0101
047CD 010101   LD   BC,0101
047D0 010101   LD   BC,0101
047D3 010101   LD   BC,0101
047D6 0106FE   LD   BC,FE06
047D9 06FE     LD   B,FE
047DB 06FE     LD   B,FE
047DD 06FE     LD   B,FE
047DF 06FE     LD   B,FE
047E1 06FE     LD   B,FE
047E3 06FE     LD   B,FE
047E5 FEFE     CP   FE
047E7 08       EX   AF,AF
047E8 0F       RRCA 
047E9 44       LD   B,H
047EA 47       LD   B,A
047EB 64       LD   H,H
047EC 67       LD   H,A
047ED 72       LD   (HL),D
047EE 73       LD   (HL),E
047EF 51       LD   D,C
047F0 71       LD   (HL),C
047F1 59       LD   E,C
047F2 79       LD   A,C
047F3 4C       LD   C,H
047F4 7C       LD   A,H
047F5 7E       LD   A,(HL)
047F6 7E       LD   A,(HL)
047F7 0C       INC  C
047F8 FC06FE   CALL M,FE06
047FB 03       INC  BC
047FC FF       RST  38
047FD 01FF01   LD   BC,01FF
04800 FF       RST  38
04801 00       NOP  
04802 FF       RST  38
04803 80       ADD  A,B
04804 FF       RST  38
04805 7F       LD   A,A
04806 7F       LD   A,A
04807 00       NOP  
04808 00       NOP  
04809 00       NOP  
0480A 00       NOP  
0480B 00       NOP  
0480C 00       NOP  
0480D 80       ADD  A,B
0480E 80       ADD  A,B
0480F 80       ADD  A,B
04810 80       ADD  A,B
04811 C0       RET  NZ
04812 C0       RET  NZ
04813 C0       RET  NZ
04814 C0       RET  NZ
04815 E0E0     OUT  (E0),A
04817 7E       LD   A,(HL)
04818 7E       LD   A,(HL)
04819 7F       LD   A,A
0481A 7F       LD   A,A
0481B 7F       LD   A,A
0481C 7F       LD   A,A
0481D 7F       LD   A,A
0481E 7F       LD   A,A
0481F 7F       LD   A,A
04820 7F       LD   A,A
04821 7F       LD   A,A
04822 7F       LD   A,A
04823 7F       LD   A,A
04824 7F       LD   A,A
04825 7F       LD   A,A
04826 7F       LD   A,A
04827 00       NOP  
04828 00       NOP  
04829 03       INC  BC
0482A 03       INC  BC
0482B 02       LD   (BC),A
0482C 02       LD   (BC),A
0482D 02       LD   (BC),A
0482E 02       LD   (BC),A
0482F 02       LD   (BC),A
04830 02       LD   (BC),A
04831 02       LD   (BC),A
04832 02       LD   (BC),A
04833 02       LD   (BC),A
04834 02       LD   (BC),A
04835 03       INC  BC
04836 02       LD   (BC),A
04837 00       NOP  
04838 00       NOP  
04839 FB       EI   
0483A FB       EI   
0483B 0A       LD   A,(BC)
0483C 0A       LD   A,(BC)
0483D 12       LD   (DE),A
0483E 12       LD   (DE),A
0483F 22       HL++ (HL),A
04840 22       HL++ (HL),A
04841 22       HL++ (HL),A
04842 22       HL++ (HL),A
04843 42       LD   B,D
04844 42       LD   B,D
04845 C34200   JP   0042
04848 00       NOP  
04849 FD       DB   FD
0484A FD       DB   FD
0484B 0D       DEC  C
0484C 0D       DEC  C
0484D 0C       INC  C
0484E 0C       INC  C
0484F 0C       INC  C
04850 0C       INC  C
04851 0C       INC  C
04852 0C       INC  C
04853 0C       INC  C
04854 0C       INC  C
04855 FC0C00   CALL M,000C
04858 00       NOP  
04859 FCFC0C   CALL M,0CFC
0485C 0C       INC  C
0485D 8C       ADC  A,H
0485E 8C       ADC  A,H
0485F 4C       LD   C,H
04860 4C       LD   C,H
04861 4C       LD   C,H
04862 4C       LD   C,H
04863 2C       INC  L
04864 2C       INC  L
04865 3C       INC  A
04866 2C       INC  L
04867 03       INC  BC
04868 02       LD   (BC),A
04869 03       INC  BC
0486A 02       LD   (BC),A
0486B 03       INC  BC
0486C 03       INC  BC
0486D 03       INC  BC
0486E 03       INC  BC
0486F 02       LD   (BC),A
04870 02       LD   (BC),A
04871 00       NOP  
04872 00       NOP  
04873 00       NOP  
04874 00       NOP  
04875 00       NOP  
04876 00       NOP  
04877 83       ADD  A,E
04878 82       ADD  A,D
04879 83       ADD  A,E
0487A 82       ADD  A,D
0487B 03       INC  BC
0487C 02       LD   (BC),A
0487D 03       INC  BC
0487E 02       LD   (BC),A
0487F 03       INC  BC
04880 02       LD   (BC),A
04881 03       INC  BC
04882 02       LD   (BC),A
04883 03       INC  BC
04884 02       LD   (BC),A
04885 02       LD   (BC),A
04886 03       INC  BC
04887 FC0CFC   CALL M,FC0C
0488A 0C       INC  C
0488B FC0CFC   CALL M,FC0C
0488E 0C       INC  C
0488F FC0CFC   CALL M,FC0C
04892 0C       INC  C
04893 FC0C0C   CALL M,0C0C
04896 FC1C1C   CALL M,1C1C
04899 1C       INC  E
0489A 1C       INC  E
0489B 0C       INC  C
0489C 0C       INC  C
0489D 0C       INC  C
0489E 0C       INC  C
0489F 04       INC  B
048A0 04       INC  B
048A1 00       NOP  
048A2 00       NOP  
048A3 00       NOP  
048A4 00       NOP  
048A5 00       NOP  
048A6 00       NOP  
048A7 02       LD   (BC),A
048A8 03       INC  BC
048A9 02       LD   (BC),A
048AA 03       INC  BC
048AB 02       LD   (BC),A
048AC 03       INC  BC
048AD 02       LD   (BC),A
048AE 03       INC  BC
048AF 02       LD   (BC),A
048B0 03       INC  BC
048B1 02       LD   (BC),A
048B2 03       INC  BC
048B3 02       LD   (BC),A
048B4 03       INC  BC
048B5 03       INC  BC
048B6 03       INC  BC
048B7 0C       INC  C
048B8 FC0CFC   CALL M,FC0C
048BB 0C       INC  C
048BC FC0CFC   CALL M,FC0C
048BF 0C       INC  C
048C0 FC0CFC   CALL M,FC0C
048C3 0C       INC  C
048C4 FCFCFC   CALL M,FCFC
048C7 03       INC  BC
048C8 03       INC  BC
048C9 03       INC  BC
048CA 03       INC  BC
048CB 03       INC  BC
048CC 03       INC  BC
048CD 03       INC  BC
048CE 03       INC  BC
048CF 03       INC  BC
048D0 03       INC  BC
048D1 03       INC  BC
048D2 03       INC  BC
048D3 03       INC  BC
048D4 03       INC  BC
048D5 03       INC  BC
048D6 03       INC  BC
048D7 FCFCFC   CALL M,FCFC
048DA FCFCFC   CALL M,FCFC
048DD FCFCFC   CALL M,FCFC
048E0 FCFCFC   CALL M,FCFC
048E3 FCFCFC   CALL M,FCFC
048E6 FCFF00   CALL M,00FF
048E9 FF       RST  38
048EA 00       NOP  
048EB FF       RST  38
048EC 00       NOP  
048ED FF       RST  38
048EE 00       NOP  
048EF FF       RST  38
048F0 00       NOP  
048F1 FF       RST  38
048F2 00       NOP  
048F3 FF       RST  38
048F4 00       NOP  
048F5 FF       RST  38
048F6 00       NOP  
048F7 00       NOP  
048F8 FF       RST  38
048F9 00       NOP  
048FA FF       RST  38
048FB 00       NOP  
048FC FF       RST  38
048FD 00       NOP  
048FE FF       RST  38
048FF 00       NOP  
04900 FF       RST  38
04901 00       NOP  
04902 FF       RST  38
04903 00       NOP  
04904 FF       RST  38
04905 00       NOP  
04906 FF       RST  38
04907 FF       RST  38
04908 FF       RST  38
04909 FF       RST  38
0490A FF       RST  38
0490B FF       RST  38
0490C FF       RST  38
0490D FF       RST  38
0490E FF       RST  38
0490F FF       RST  38
04910 FF       RST  38
04911 FF       RST  38
04912 FF       RST  38
04913 FF       RST  38
04914 FF       RST  38
04915 FF       RST  38
04916 FF       RST  38
04917 00       NOP  
04918 00       NOP  
04919 010103   LD   BC,0301
0491C 03       INC  BC
0491D 07       RLCA 
0491E 07       RLCA 
0491F 0F       RRCA 
04920 0F       RRCA 
04921 1F       RRA  
04922 1F       RRA  
04923 3F       CCF  
04924 3F       CCF  
04925 7F       LD   A,A
04926 7F       LD   A,A
04927 00       NOP  
04928 00       NOP  
04929 FF       RST  38
0492A FF       RST  38
0492B 83       ADD  A,E
0492C 83       ADD  A,E
0492D 83       ADD  A,E
0492E 83       ADD  A,E
0492F 83       ADD  A,E
04930 83       ADD  A,E
04931 83       ADD  A,E
04932 83       ADD  A,E
04933 83       ADD  A,E
04934 83       ADD  A,E
04935 FF       RST  38
04936 83       ADD  A,E
04937 00       NOP  
04938 00       NOP  
04939 7F       LD   A,A
0493A 7F       LD   A,A
0493B 2020     JR   NZ,495D
0493D 1010     DJNZ 494F
0493F 08       EX   AF,AF
04940 08       EX   AF,AF
04941 04       INC  B
04942 04       INC  B
04943 02       LD   (BC),A
04944 02       LD   (BC),A
04945 010100   LD   BC,0001
04948 00       NOP  
04949 F3       DI   
0494A F3       DI   
0494B 32       HL-- (HL),A
0494C 32       HL-- (HL),A
0494D 32       HL-- (HL),A
0494E 32       HL-- (HL),A
0494F 32       HL-- (HL),A
04950 32       HL-- (HL),A
04951 32       HL-- (HL),A
04952 32       HL-- (HL),A
04953 32       HL-- (HL),A
04954 32       HL-- (HL),A
04955 F3       DI   
04956 32       HL-- (HL),A
04957 FF       RST  38
04958 83       ADD  A,E
04959 FF       RST  38
0495A 83       ADD  A,E
0495B FF       RST  38
0495C 83       ADD  A,E
0495D FF       RST  38
0495E 83       ADD  A,E
0495F FF       RST  38
04960 83       ADD  A,E
04961 FF       RST  38
04962 83       ADD  A,E
04963 FF       RST  38
04964 83       ADD  A,E
04965 83       ADD  A,E
04966 FF       RST  38
04967 00       NOP  
04968 00       NOP  
04969 00       NOP  
0496A 00       NOP  
0496B 010103   LD   BC,0301
0496E 03       INC  BC
0496F 07       RLCA 
04970 07       RLCA 
04971 0F       RRCA 
04972 0B       DEC  BC
04973 1F       RRA  
04974 13       INC  DE
04975 23       INC  HL
04976 3F       CCF  
04977 F3       DI   
04978 B2       OR   D
04979 73       LD   (HL),E
0497A 72       LD   (HL),D
0497B 33       INC  SP
0497C 33       INC  SP
0497D 13       INC  DE
0497E 13       INC  DE
0497F 02       LD   (BC),A
04980 02       LD   (BC),A
04981 00       NOP  
04982 00       NOP  
04983 00       NOP  
04984 00       NOP  
04985 00       NOP  
04986 00       NOP  
04987 83       ADD  A,E
04988 FF       RST  38
04989 83       ADD  A,E
0498A FF       RST  38
0498B 83       ADD  A,E
0498C FF       RST  38
0498D 83       ADD  A,E
0498E FF       RST  38
0498F 83       ADD  A,E
04990 FF       RST  38
04991 83       ADD  A,E
04992 FF       RST  38
04993 83       ADD  A,E
04994 FF       RST  38
04995 FF       RST  38
04996 FF       RST  38
04997 43       LD   B,E
04998 7F       LD   A,A
04999 23       INC  HL
0499A 3F       CCF  
0499B 13       INC  DE
0499C 1F       RRA  
0499D 0B       DEC  BC
0499E 0F       RRCA 
0499F 07       RLCA 
049A0 07       RLCA 
049A1 03       INC  BC
049A2 03       INC  BC
049A3 010100   LD   BC,0001
049A6 00       NOP  
049A7 00       NOP  
049A8 00       NOP  
049A9 00       NOP  
049AA 00       NOP  
049AB 00       NOP  
049AC 00       NOP  
049AD 00       NOP  
049AE 00       NOP  
049AF 00       NOP  
049B0 00       NOP  
049B1 1010     DJNZ 49C3
049B3 3030     JR   NC,49E5
049B5 70       LD   (HL),B
049B6 70       LD   (HL),B
049B7 00       NOP  
049B8 00       NOP  
049B9 78       LD   A,B
049BA 78       LD   A,B
049BB 9C       SBC  A,H
049BC 9C       SBC  A,H
049BD 1C       INC  E
049BE 1C       INC  E
049BF 78       LD   A,B
049C0 78       LD   A,B
049C1 E0E0     OUT  (E0),A
049C3 FCFC00   CALL M,00FC
049C6 00       NOP  
049C7 FF       RST  38
049C8 00       NOP  
049C9 00       NOP  
049CA 00       NOP  
049CB 00       NOP  
049CC 00       NOP  
049CD 00       NOP  
049CE 00       NOP  
049CF 00       NOP  
049D0 00       NOP  
049D1 00       NOP  
049D2 00       NOP  
049D3 00       NOP  
049D4 00       NOP  
049D5 00       NOP  
049D6 00       NOP  
049D7 1B       DEC  DE
049D8 1B       DEC  DE
049D9 1B       DEC  DE
049DA 1B       DEC  DE
049DB 09       ADD  HL,BC
049DC 09       ADD  HL,BC
049DD 00       NOP  
049DE 00       NOP  
049DF 00       NOP  
049E0 00       NOP  
049E1 00       NOP  
049E2 00       NOP  
049E3 00       NOP  
049E4 00       NOP  
049E5 00       NOP  
049E6 00       NOP  
049E7 00       NOP  
049E8 00       NOP  
049E9 00       NOP  
049EA 00       NOP  
049EB 00       NOP  
049EC 00       NOP  
049ED 00       NOP  
049EE 00       NOP  
049EF 60       LD   H,B
049F0 60       LD   H,B
049F1 60       LD   H,B
049F2 60       LD   H,B
049F3 2020     JR   NZ,4A15
049F5 00       NOP  
049F6 00       NOP  
049F7 1B       DEC  DE
049F8 1B       DEC  DE
049F9 1B       DEC  DE
049FA 1B       DEC  DE
049FB 09       ADD  HL,BC
049FC 09       ADD  HL,BC
049FD 00       NOP  
049FE 00       NOP  
049FF 00       NOP  
04A00 00       NOP  
04A01 60       LD   H,B
04A02 60       LD   H,B
04A03 60       LD   H,B
04A04 60       LD   H,B
04A05 00       NOP  
04A06 00       NOP  
04A07 2F       CPL  
04A08 2F       CPL  
04A09 2F       CPL  
04A0A 2F       CPL  
04A0B 2F       CPL  
04A0C 2F       CPL  
04A0D 2F       CPL  
04A0E 2F       CPL  
04A0F 2F       CPL  
04A10 2F       CPL  
04A11 2F       CPL  
04A12 2F       CPL  
04A13 2F       CPL  
04A14 2F       CPL  
04A15 2F       CPL  
04A16 2F       CPL  
04A17 2F       CPL  
04A18 2F       CPL  
04A19 2F       CPL  
04A1A 2F       CPL  
04A1B 9B       SBC  A,E
04A1C 1D       DEC  E
04A1D 162F     LD   D,2F
04A1F 0A       LD   A,(BC)
04A20 17       RLA  
04A21 0D       DEC  C
04A22 2F       CPL  
04A23 33       INC  SP
04A24 010908   LD   BC,0809
04A27 07       RLCA 
04A28 2F       CPL  
04A29 0E15     LD   C,15
04A2B 181B     JR   4A48
04A2D 109C     DJNZ 49CB
04A2F 2F       CPL  
04A30 1D       DEC  E
04A31 0E1D     LD   C,1D
04A33 1B       DEC  DE
04A34 12       LD   (DE),A
04A35 1C       INC  E
04A36 2F       CPL  
04A37 15       DEC  D
04A38 12       LD   (DE),A
04A39 0C       INC  C
04A3A 0E17     LD   C,17
04A3C 1C       INC  E
04A3D 0E0D     LD   C,0D
04A3F 2F       CPL  
04A40 1D       DEC  E
04A41 182F     JR   4A72
04A43 2F       CPL  
04A44 2F       CPL  
04A45 2F       CPL  
04A46 2F       CPL  
04A47 0B       DEC  BC
04A48 1E15     LD   E,15
04A4A 15       DEC  D
04A4B 0E1D     LD   C,1D
04A4D 25       DEC  H
04A4E 19       ADD  HL,DE
04A4F 1B       DEC  DE
04A50 1818     JR   4A6A
04A52 0F       RRCA 
04A53 2F       CPL  
04A54 2F       CPL  
04A55 2F       CPL  
04A56 2F       CPL  
04A57 2F       CPL  
04A58 2F       CPL  
04A59 2F       CPL  
04A5A 2F       CPL  
04A5B 1C       INC  E
04A5C 180F     JR   4A6D
04A5E 1D       DEC  E
04A5F 200A     JR   NZ,4A6B
04A61 1B       DEC  DE
04A62 0E2F     LD   C,2F
04A64 0A       LD   A,(BC)
04A65 17       RLA  
04A66 0D       DEC  C
04A67 2F       CPL  
04A68 2F       CPL  
04A69 2F       CPL  
04A6A 2F       CPL  
04A6B 2F       CPL  
04A6C 2F       CPL  
04A6D 2F       CPL  
04A6E 1C       INC  E
04A6F 1E0B     LD   E,0B
04A71 25       DEC  H
04A72 15       DEC  D
04A73 12       LD   (DE),A
04A74 0C       INC  C
04A75 0E17     LD   C,17
04A77 1C       INC  E
04A78 0E0D     LD   C,0D
04A7A 2F       CPL  
04A7B 1D       DEC  E
04A7C 182F     JR   4AAD
04A7E 2F       CPL  
04A7F 2F       CPL  
04A80 2F       CPL  
04A81 2F       CPL  
04A82 2F       CPL  
04A83 2F       CPL  
04A84 2F       CPL  
04A85 17       RLA  
04A86 12       LD   (DE),A
04A87 17       RLA  
04A88 1D       DEC  E
04A89 0E17     LD   C,17
04A8B 0D       DEC  C
04A8C 1824     JR   4AB2
04A8E 2F       CPL  
04A8F 2F       CPL  
04A90 2F       CPL  
04A91 2F       CPL  
04A92 2F       CPL  
04A93 2F       CPL  
04A94 2F       CPL  
04A95 2F       CPL  
04A96 2F       CPL  
04A97 2F       CPL  
04A98 2F       CPL  
04A99 2F       CPL  
04A9A 2F       CPL  
04A9B 2F       CPL  
04A9C 2F       CPL  
04A9D 2F       CPL  
04A9E 2F       CPL  
04A9F 2F       CPL  
04AA0 2F       CPL  
04AA1 2F       CPL  
04AA2 2F       CPL  
04AA3 2F       CPL  
04AA4 2F       CPL  
04AA5 2F       CPL  
04AA6 2F       CPL  
04AA7 2F       CPL  
04AA8 33       INC  SP
04AA9 010908   LD   BC,0809
04AAC 09       ADD  HL,BC
04AAD 2F       CPL  
04AAE 0B       DEC  BC
04AAF 1E15     LD   E,15
04AB1 15       DEC  D
04AB2 0E1D     LD   C,1D
04AB4 25       DEC  H
04AB5 19       ADD  HL,DE
04AB6 1B       DEC  DE
04AB7 1818     JR   4AD1
04AB9 0F       RRCA 
04ABA 2F       CPL  
04ABB 2F       CPL  
04ABC 2F       CPL  
04ABD 2F       CPL  
04ABE 2F       CPL  
04ABF 2F       CPL  
04AC0 2F       CPL  
04AC1 1C       INC  E
04AC2 180F     JR   4AD3
04AC4 1D       DEC  E
04AC5 200A     JR   NZ,4AD1
04AC7 1B       DEC  DE
04AC8 0E24     LD   C,24
04ACA 2F       CPL  
04ACB 2F       CPL  
04ACC 2F       CPL  
04ACD 2F       CPL  
04ACE 2F       CPL  
04ACF 2F       CPL  
04AD0 2F       CPL  
04AD1 2F       CPL  
04AD2 33       INC  SP
04AD3 3031     JR   NC,4B06
04AD5 32       HL-- (HL),A
04AD6 312F34   LD   SP,342F
04AD9 35       DEC  (HL)
04ADA 3637     LD   (HL),37
04ADC 3839     JR   C,4B17
04ADE 2F       CPL  
04ADF 2F       CPL  
04AE0 2F       CPL  
04AE1 2F       CPL  
04AE2 2F       CPL  
04AE3 2F       CPL  
04AE4 2F       CPL  
04AE5 2F       CPL  
04AE6 2F       CPL  
04AE7 2F       CPL  
04AE8 2F       CPL  
04AE9 2F       CPL  
04AEA 2F       CPL  
04AEB 2F       CPL  
04AEC 2F       CPL  
04AED 2F       CPL  
04AEE 2F       CPL  
04AEF 2F       CPL  
04AF0 2F       CPL  
04AF1 2F       CPL  
04AF2 2F       CPL  
04AF3 2F       CPL  
04AF4 2F       CPL  
04AF5 2F       CPL  
04AF6 2F       CPL  
04AF7 0A       LD   A,(BC)
04AF8 15       DEC  D
04AF9 15       DEC  D
04AFA 2F       CPL  
04AFB 1B       DEC  DE
04AFC 12       LD   (DE),A
04AFD 1011     DJNZ 4B10
04AFF 1D       DEC  E
04B00 1C       INC  E
04B01 2F       CPL  
04B02 1B       DEC  DE
04B03 0E1C     LD   C,1C
04B05 0E1B     LD   C,1B
04B07 1F       RRA  
04B08 0E0D     LD   C,0D
04B0A 24       INC  H
04B0B 2F       CPL  
04B0C 2F       CPL  
04B0D 2F       CPL  
04B0E 2F       CPL  
04B0F 2F       CPL  
04B10 2F       CPL  
04B11 2F       CPL  
04B12 2F       CPL  
04B13 2F       CPL  
04B14 2F       CPL  
04B15 2F       CPL  
04B16 2F       CPL  
04B17 2F       CPL  
04B18 2F       CPL  
04B19 2F       CPL  
04B1A 2F       CPL  
04B1B 2F       CPL  
04B1C 2F       CPL  
04B1D 2F       CPL  
04B1E 2F       CPL  
04B1F 2F       CPL  
04B20 2F       CPL  
04B21 181B     JR   4B3E
04B23 12       LD   (DE),A
04B24 1012     DJNZ 4B38
04B26 17       RLA  
04B27 0A       LD   A,(BC)
04B28 15       DEC  D
04B29 2F       CPL  
04B2A 0C       INC  C
04B2B 1817     JR   4B44
04B2D 0C       INC  C
04B2E 0E19     LD   C,19
04B30 1D       DEC  E
04B31 9C       SBC  A,H
04B32 2F       CPL  
04B33 2F       CPL  
04B34 0D       DEC  C
04B35 0E1C     LD   C,1C
04B37 12       LD   (DE),A
04B38 1017     DJNZ 4B51
04B3A 2F       CPL  
04B3B 0A       LD   A,(BC)
04B3C 17       RLA  
04B3D 0D       DEC  C
04B3E 2F       CPL  
04B3F 19       ADD  HL,DE
04B40 1B       DEC  DE
04B41 1810     JR   4B53
04B43 1B       DEC  DE
04B44 0A       LD   A,(BC)
04B45 162F     LD   D,2F
04B47 0B       DEC  BC
04B48 22       HL++ (HL),A
04B49 2F       CPL  
04B4A 0A       LD   A,(BC)
04B4B 15       DEC  D
04B4C 0E21     LD   C,21
04B4E 0E22     LD   C,22
04B50 2F       CPL  
04B51 19       ADD  HL,DE
04B52 0A       LD   A,(BC)
04B53 23       INC  HL
04B54 11121D   LD   DE,1D12
04B57 17       RLA  
04B58 181F     JR   4B79
04B5A 9D       SBC  A,L
04B5B 2F       CPL  
04B5C 2F       CPL  
04B5D 2F       CPL  
04B5E 2F       CPL  
04B5F 2F       CPL  
04B60 2F       CPL  
04B61 2F       CPL  
04B62 2F       CPL  
04B63 2F       CPL  
04B64 2F       CPL  
04B65 2F       CPL  
04B66 2F       CPL  
04B67 2F       CPL  
04B68 2F       CPL  
04B69 2F       CPL  
04B6A 2F       CPL  
04B6B 2F       CPL  
04B6C 2F       CPL  
04B6D 2F       CPL  
04B6E 2F       CPL  
04B6F 8E       ADC  A,(HL)
04B70 8E       ADC  A,(HL)
04B71 8E       ADC  A,(HL)
04B72 8E       ADC  A,(HL)
04B73 8E       ADC  A,(HL)
04B74 8E       ADC  A,(HL)
04B75 8E       ADC  A,(HL)
04B76 8E       ADC  A,(HL)
04B77 8E       ADC  A,(HL)
04B78 8E       ADC  A,(HL)
04B79 8E       ADC  A,(HL)
04B7A 8E       ADC  A,(HL)
04B7B 8E       ADC  A,(HL)
04B7C 8E       ADC  A,(HL)
04B7D 8E       ADC  A,(HL)
04B7E 8E       ADC  A,(HL)
04B7F 8E       ADC  A,(HL)
04B80 8E       ADC  A,(HL)
04B81 8E       ADC  A,(HL)
04B82 8E       ADC  A,(HL)
04B83 5A       LD   E,D
04B84 5B       LD   E,E
04B85 5B       LD   E,E
04B86 5B       LD   E,E
04B87 5B       LD   E,E
04B88 5B       LD   E,E
04B89 5B       LD   E,E
04B8A 5B       LD   E,E
04B8B 5B       LD   E,E
04B8C 5B       LD   E,E
04B8D 5B       LD   E,E
04B8E 5B       LD   E,E
04B8F 5B       LD   E,E
04B90 5B       LD   E,E
04B91 5B       LD   E,E
04B92 5B       LD   E,E
04B93 5B       LD   E,E
04B94 5B       LD   E,E
04B95 5B       LD   E,E
04B96 5C       LD   E,H
04B97 5D       LD   E,L
04B98 80       ADD  A,B
04B99 81       ADD  A,C
04B9A 82       ADD  A,D
04B9B 83       ADD  A,E
04B9C 90       SUB  B
04B9D 91       SUB  C
04B9E 92       SUB  D
04B9F 81       ADD  A,C
04BA0 82       ADD  A,D
04BA1 83       ADD  A,E
04BA2 90       SUB  B
04BA3 6C       LD   L,H
04BA4 6D       LD   L,L
04BA5 6E       LD   L,(HL)
04BA6 6F       LD   L,A
04BA7 70       LD   (HL),B
04BA8 71       LD   (HL),C
04BA9 72       LD   (HL),D
04BAA 5E       LD   E,(HL)
04BAB 5D       LD   E,L
04BAC 84       ADD  A,H
04BAD 85       ADD  A,L
04BAE 86       ADD  A,(HL)
04BAF 87       ADD  A,A
04BB0 93       SUB  E
04BB1 94       SUB  H
04BB2 95       SUB  L
04BB3 85       ADD  A,L
04BB4 86       ADD  A,(HL)
04BB5 87       ADD  A,A
04BB6 93       SUB  E
04BB7 73       LD   (HL),E
04BB8 74       LD   (HL),H
04BB9 75       LD   (HL),L
04BBA 76       HALT 
04BBB 77       LD   (HL),A
04BBC 78       LD   A,B
04BBD 2F       CPL  
04BBE 5E       LD   E,(HL)
04BBF 5D       LD   E,L
04BC0 2F       CPL  
04BC1 88       ADC  A,B
04BC2 89       ADC  A,C
04BC3 2F       CPL  
04BC4 96       SUB  (HL)
04BC5 97       SUB  A
04BC6 98       SBC  A,B
04BC7 88       ADC  A,B
04BC8 89       ADC  A,C
04BC9 2F       CPL  
04BCA 96       SUB  (HL)
04BCB 79       LD   A,C
04BCC 7A       LD   A,D
04BCD 7B       LD   A,E
04BCE 7C       LD   A,H
04BCF 7D       LD   A,L
04BD0 7E       LD   A,(HL)
04BD1 2F       CPL  
04BD2 5E       LD   E,(HL)
04BD3 5D       LD   E,L
04BD4 2F       CPL  
04BD5 8A       ADC  A,D
04BD6 8B       ADC  A,E
04BD7 2F       CPL  
04BD8 8E       ADC  A,(HL)
04BD9 8F       ADC  A,A
04BDA 6B       LD   L,E
04BDB 8A       ADC  A,D
04BDC 8B       ADC  A,E
04BDD 2F       CPL  
04BDE 8E       ADC  A,(HL)
04BDF 7F       LD   A,A
04BE0 66       LD   H,(HL)
04BE1 67       LD   H,A
04BE2 68       LD   L,B
04BE3 69       LD   L,C
04BE4 6A       LD   L,D
04BE5 2F       CPL  
04BE6 5E       LD   E,(HL)
04BE7 5F       LD   E,A
04BE8 60       LD   H,B
04BE9 60       LD   H,B
04BEA 60       LD   H,B
04BEB 60       LD   H,B
04BEC 60       LD   H,B
04BED 60       LD   H,B
04BEE 60       LD   H,B
04BEF 60       LD   H,B
04BF0 60       LD   H,B
04BF1 60       LD   H,B
04BF2 60       LD   H,B
04BF3 60       LD   H,B
04BF4 60       LD   H,B
04BF5 60       LD   H,B
04BF6 60       LD   H,B
04BF7 60       LD   H,B
04BF8 60       LD   H,B
04BF9 60       LD   H,B
04BFA 61       LD   H,C
04BFB 8E       ADC  A,(HL)
04BFC 3C       INC  A
04BFD 3C       INC  A
04BFE 3C       INC  A
04BFF 3C       INC  A
04C00 3C       INC  A
04C01 3C       INC  A
04C02 3C       INC  A
04C03 3C       INC  A
04C04 3C       INC  A
04C05 3C       INC  A
04C06 3C       INC  A
04C07 3C       INC  A
04C08 3C       INC  A
04C09 3D       DEC  A
04C0A 3E3C     LD   A,3C
04C0C 3C       INC  A
04C0D 3C       INC  A
04C0E 8E       ADC  A,(HL)
04C0F 8E       ADC  A,(HL)
04C10 8C       ADC  A,H
04C11 8C       ADC  A,H
04C12 62       LD   H,D
04C13 63       LD   H,E
04C14 8C       ADC  A,H
04C15 8C       ADC  A,H
04C16 3A       HL-- A,(HL)
04C17 8C       ADC  A,H
04C18 8C       ADC  A,H
04C19 8C       ADC  A,H
04C1A 8C       ADC  A,H
04C1B 8C       ADC  A,H
04C1C 3A       HL-- A,(HL)
04C1D 42       LD   B,D
04C1E 43       LD   B,E
04C1F 3B       DEC  SP
04C20 8C       ADC  A,H
04C21 8C       ADC  A,H
04C22 8E       ADC  A,(HL)
04C23 8E       ADC  A,(HL)
04C24 3A       HL-- A,(HL)
04C25 8C       ADC  A,H
04C26 64       LD   H,H
04C27 65       LD   H,L
04C28 8C       ADC  A,H
04C29 8C       ADC  A,H
04C2A 8C       ADC  A,H
04C2B 8C       ADC  A,H
04C2C 3B       DEC  SP
04C2D 8C       ADC  A,H
04C2E 8C       ADC  A,H
04C2F 8C       ADC  A,H
04C30 8C       ADC  A,H
04C31 44       LD   B,H
04C32 45       LD   B,L
04C33 8C       ADC  A,H
04C34 8C       ADC  A,H
04C35 8C       ADC  A,H
04C36 8E       ADC  A,(HL)
04C37 8E       ADC  A,(HL)
04C38 8C       ADC  A,H
04C39 8C       ADC  A,H
04C3A 8C       ADC  A,H
04C3B 8C       ADC  A,H
04C3C 8C       ADC  A,H
04C3D 8C       ADC  A,H
04C3E 8C       ADC  A,H
04C3F 8C       ADC  A,H
04C40 8C       ADC  A,H
04C41 8C       ADC  A,H
04C42 8C       ADC  A,H
04C43 8C       ADC  A,H
04C44 46       LD   B,(HL)
04C45 47       LD   B,A
04C46 48       LD   C,B
04C47 49       LD   C,C
04C48 3F       CCF  
04C49 40       LD   B,B
04C4A 8E       ADC  A,(HL)
04C4B 8E       ADC  A,(HL)
04C4C 8C       ADC  A,H
04C4D 8C       ADC  A,H
04C4E 8C       ADC  A,H
04C4F 8C       ADC  A,H
04C50 3A       HL-- A,(HL)
04C51 8C       ADC  A,H
04C52 8C       ADC  A,H
04C53 8C       ADC  A,H
04C54 8C       ADC  A,H
04C55 53       LD   D,E
04C56 54       LD   D,H
04C57 8C       ADC  A,H
04C58 4A       LD   C,D
04C59 4B       LD   C,E
04C5A 4C       LD   C,H
04C5B 4D       LD   C,L
04C5C 42       LD   B,D
04C5D 43       LD   B,E
04C5E 8E       ADC  A,(HL)
04C5F 8E       ADC  A,(HL)
04C60 8C       ADC  A,H
04C61 8C       ADC  A,H
04C62 8C       ADC  A,H
04C63 8C       ADC  A,H
04C64 8C       ADC  A,H
04C65 8C       ADC  A,H
04C66 8C       ADC  A,H
04C67 8C       ADC  A,H
04C68 54       LD   D,H
04C69 55       LD   D,L
04C6A 56       LD   D,(HL)
04C6B 57       LD   D,A
04C6C 4E       LD   C,(HL)
04C6D 4F       LD   C,A
04C6E 50       LD   D,B
04C6F 51       LD   D,C
04C70 52       LD   D,D
04C71 45       LD   B,L
04C72 8E       ADC  A,(HL)
04C73 41       LD   B,C
04C74 41       LD   B,C
04C75 41       LD   B,C
04C76 41       LD   B,C
04C77 41       LD   B,C
04C78 41       LD   B,C
04C79 41       LD   B,C
04C7A 41       LD   B,C
04C7B 41       LD   B,C
04C7C 41       LD   B,C
04C7D 41       LD   B,C
04C7E 41       LD   B,C
04C7F 41       LD   B,C
04C80 41       LD   B,C
04C81 41       LD   B,C
04C82 41       LD   B,C
04C83 41       LD   B,C
04C84 41       LD   B,C
04C85 41       LD   B,C
04C86 41       LD   B,C
04C87 2F       CPL  
04C88 2F       CPL  
04C89 59       LD   E,C
04C8A 19       ADD  HL,DE
04C8B 15       DEC  D
04C8C 0A       LD   A,(BC)
04C8D 22       HL++ (HL),A
04C8E 0E1B     LD   C,1B
04C90 2F       CPL  
04C91 2F       CPL  
04C92 2F       CPL  
04C93 99       SBC  A,C
04C94 19       ADD  HL,DE
04C95 15       DEC  D
04C96 0A       LD   A,(BC)
04C97 22       HL++ (HL),A
04C98 0E1B     LD   C,1B
04C9A 2F       CPL  
04C9B 2F       CPL  
04C9C 2F       CPL  
04C9D 9A       SBC  A,D
04C9E 9A       SBC  A,D
04C9F 9A       SBC  A,D
04CA0 9A       SBC  A,D
04CA1 9A       SBC  A,D
04CA2 9A       SBC  A,D
04CA3 9A       SBC  A,D
04CA4 2F       CPL  
04CA5 2F       CPL  
04CA6 2F       CPL  
04CA7 9A       SBC  A,D
04CA8 9A       SBC  A,D
04CA9 9A       SBC  A,D
04CAA 9A       SBC  A,D
04CAB 9A       SBC  A,D
04CAC 9A       SBC  A,D
04CAD 9A       SBC  A,D
04CAE 2F       CPL  
04CAF 2F       CPL  
04CB0 2F       CPL  
04CB1 2F       CPL  
04CB2 2F       CPL  
04CB3 33       INC  SP
04CB4 3031     JR   NC,4CE7
04CB6 32       HL-- (HL),A
04CB7 312F34   LD   SP,342F
04CBA 35       DEC  (HL)
04CBB 3637     LD   (HL),37
04CBD 3839     JR   C,4CF8
04CBF 2F       CPL  
04CC0 2F       CPL  
04CC1 2F       CPL  
04CC2 2F       CPL  
04CC3 2F       CPL  
04CC4 2F       CPL  
04CC5 2F       CPL  
04CC6 2F       CPL  
04CC7 2F       CPL  
04CC8 2F       CPL  
04CC9 2F       CPL  
04CCA 2F       CPL  
04CCB 2F       CPL  
04CCC 2F       CPL  
04CCD 2F       CPL  
04CCE 2F       CPL  
04CCF 2F       CPL  
04CD0 2F       CPL  
04CD1 2F       CPL  
04CD2 2F       CPL  
04CD3 2F       CPL  
04CD4 2F       CPL  
04CD5 2F       CPL  
04CD6 2F       CPL  
04CD7 47       LD   B,A
04CD8 48       LD   C,B
04CD9 48       LD   C,B
04CDA 48       LD   C,B
04CDB 48       LD   C,B
04CDC 48       LD   C,B
04CDD 48       LD   C,B
04CDE 48       LD   C,B
04CDF 48       LD   C,B
04CE0 48       LD   C,B
04CE1 48       LD   C,B
04CE2 48       LD   C,B
04CE3 48       LD   C,B
04CE4 48       LD   C,B
04CE5 48       LD   C,B
04CE6 48       LD   C,B
04CE7 48       LD   C,B
04CE8 48       LD   C,B
04CE9 48       LD   C,B
04CEA 49       LD   C,C
04CEB 4A       LD   C,D
04CEC 2C       INC  L
04CED 2C       INC  L
04CEE 2C       INC  L
04CEF 2C       INC  L
04CF0 2C       INC  L
04CF1 2C       INC  L
04CF2 2C       INC  L
04CF3 2C       INC  L
04CF4 2C       INC  L
04CF5 2C       INC  L
04CF6 2C       INC  L
04CF7 2C       INC  L
04CF8 2C       INC  L
04CF9 2C       INC  L
04CFA 2C       INC  L
04CFB 2C       INC  L
04CFC 2C       INC  L
04CFD 2C       INC  L
04CFE 4B       LD   C,E
04CFF 4A       LD   C,D
04D00 2C       INC  L
04D01 2C       INC  L
04D02 2C       INC  L
04D03 50       LD   D,B
04D04 51       LD   D,C
04D05 51       LD   D,C
04D06 51       LD   D,C
04D07 51       LD   D,C
04D08 51       LD   D,C
04D09 51       LD   D,C
04D0A 51       LD   D,C
04D0B 51       LD   D,C
04D0C 51       LD   D,C
04D0D 52       LD   D,D
04D0E 2C       INC  L
04D0F 2C       INC  L
04D10 2C       INC  L
04D11 2C       INC  L
04D12 4B       LD   C,E
04D13 4A       LD   C,D
04D14 2C       INC  L
04D15 2C       INC  L
04D16 2C       INC  L
04D17 53       LD   D,E
04D18 100A     DJNZ 4D24
04D1A 160E     LD   D,0E
04D1C 2F       CPL  
04D1D 1D       DEC  E
04D1E 22       HL++ (HL),A
04D1F 19       ADD  HL,DE
04D20 0E54     LD   C,54
04D22 2C       INC  L
04D23 2C       INC  L
04D24 2C       INC  L
04D25 2C       INC  L
04D26 4B       LD   C,E
04D27 4A       LD   C,D
04D28 2C       INC  L
04D29 55       LD   D,L
04D2A 56       LD   D,(HL)
04D2B 6D       LD   L,L
04D2C 58       LD   E,B
04D2D 58       LD   E,B
04D2E 58       LD   E,B
04D2F 58       LD   E,B
04D30 58       LD   E,B
04D31 A9       XOR  C
04D32 58       LD   E,B
04D33 58       LD   E,B
04D34 58       LD   E,B
04D35 6E       LD   L,(HL)
04D36 56       LD   D,(HL)
04D37 56       LD   D,(HL)
04D38 5A       LD   E,D
04D39 2C       INC  L
04D3A 4B       LD   C,E
04D3B 4A       LD   C,D
04D3C 2C       INC  L
04D3D 5B       LD   E,E
04D3E 78       LD   A,B
04D3F 77       LD   (HL),A
04D40 7E       LD   A,(HL)
04D41 7F       LD   A,A
04D42 9A       SBC  A,D
04D43 9B       SBC  A,E
04D44 2F       CPL  
04D45 AA       XOR  D
04D46 79       LD   A,C
04D47 77       LD   (HL),A
04D48 7E       LD   A,(HL)
04D49 7F       LD   A,A
04D4A 9A       SBC  A,D
04D4B 9B       SBC  A,E
04D4C 5C       LD   E,H
04D4D 2C       INC  L
04D4E 4B       LD   C,E
04D4F 4A       LD   C,D
04D50 2C       INC  L
04D51 2D       DEC  L
04D52 4F       LD   C,A
04D53 4F       LD   C,A
04D54 4F       LD   C,A
04D55 4F       LD   C,A
04D56 4F       LD   C,A
04D57 4F       LD   C,A
04D58 4F       LD   C,A
04D59 AC       XOR  H
04D5A 4F       LD   C,A
04D5B 4F       LD   C,A
04D5C 4F       LD   C,A
04D5D 4F       LD   C,A
04D5E 4F       LD   C,A
04D5F 4F       LD   C,A
04D60 2E2C     LD   L,2C
04D62 4B       LD   C,E
04D63 4A       LD   C,D
04D64 2C       INC  L
04D65 2C       INC  L
04D66 2C       INC  L
04D67 2C       INC  L
04D68 2C       INC  L
04D69 2C       INC  L
04D6A 2C       INC  L
04D6B 2C       INC  L
04D6C 2C       INC  L
04D6D 2C       INC  L
04D6E 2C       INC  L
04D6F 2C       INC  L
04D70 2C       INC  L
04D71 2C       INC  L
04D72 2C       INC  L
04D73 2C       INC  L
04D74 2C       INC  L
04D75 2C       INC  L
04D76 4B       LD   C,E
04D77 4A       LD   C,D
04D78 2C       INC  L
04D79 2C       INC  L
04D7A 2C       INC  L
04D7B 2C       INC  L
04D7C 2C       INC  L
04D7D 2C       INC  L
04D7E 2C       INC  L
04D7F 2C       INC  L
04D80 2C       INC  L
04D81 2C       INC  L
04D82 2C       INC  L
04D83 2C       INC  L
04D84 2C       INC  L
04D85 2C       INC  L
04D86 2C       INC  L
04D87 2C       INC  L
04D88 2C       INC  L
04D89 2C       INC  L
04D8A 4B       LD   C,E
04D8B 4A       LD   C,D
04D8C 2C       INC  L
04D8D 2C       INC  L
04D8E 2C       INC  L
04D8F 50       LD   D,B
04D90 51       LD   D,C
04D91 51       LD   D,C
04D92 51       LD   D,C
04D93 51       LD   D,C
04D94 51       LD   D,C
04D95 51       LD   D,C
04D96 51       LD   D,C
04D97 51       LD   D,C
04D98 51       LD   D,C
04D99 51       LD   D,C
04D9A 52       LD   D,D
04D9B 2C       INC  L
04D9C 2C       INC  L
04D9D 2C       INC  L
04D9E 4B       LD   C,E
04D9F 4A       LD   C,D
04DA0 2C       INC  L
04DA1 2C       INC  L
04DA2 2C       INC  L
04DA3 53       LD   D,E
04DA4 161E     LD   D,1E
04DA6 1C       INC  E
04DA7 12       LD   (DE),A
04DA8 0C       INC  C
04DA9 2F       CPL  
04DAA 1D       DEC  E
04DAB 22       HL++ (HL),A
04DAC 19       ADD  HL,DE
04DAD 0E54     LD   C,54
04DAF 2C       INC  L
04DB0 2C       INC  L
04DB1 2C       INC  L
04DB2 4B       LD   C,E
04DB3 4A       LD   C,D
04DB4 2C       INC  L
04DB5 55       LD   D,L
04DB6 56       LD   D,(HL)
04DB7 6D       LD   L,L
04DB8 58       LD   E,B
04DB9 58       LD   E,B
04DBA 58       LD   E,B
04DBB 58       LD   E,B
04DBC 58       LD   E,B
04DBD A9       XOR  C
04DBE 58       LD   E,B
04DBF 58       LD   E,B
04DC0 58       LD   E,B
04DC1 58       LD   E,B
04DC2 6E       LD   L,(HL)
04DC3 56       LD   D,(HL)
04DC4 5A       LD   E,D
04DC5 2C       INC  L
04DC6 4B       LD   C,E
04DC7 4A       LD   C,D
04DC8 2C       INC  L
04DC9 5B       LD   E,E
04DCA 78       LD   A,B
04DCB 77       LD   (HL),A
04DCC 7E       LD   A,(HL)
04DCD 7F       LD   A,A
04DCE 9A       SBC  A,D
04DCF 9B       SBC  A,E
04DD0 2F       CPL  
04DD1 AA       XOR  D
04DD2 79       LD   A,C
04DD3 77       LD   (HL),A
04DD4 7E       LD   A,(HL)
04DD5 7F       LD   A,A
04DD6 9A       SBC  A,D
04DD7 9B       SBC  A,E
04DD8 5C       LD   E,H
04DD9 2C       INC  L
04DDA 4B       LD   C,E
04DDB 4A       LD   C,D
04DDC 2C       INC  L
04DDD 71       LD   (HL),C
04DDE 72       LD   (HL),D
04DDF 72       LD   (HL),D
04DE0 72       LD   (HL),D
04DE1 72       LD   (HL),D
04DE2 72       LD   (HL),D
04DE3 72       LD   (HL),D
04DE4 72       LD   (HL),D
04DE5 AB       XOR  E
04DE6 72       LD   (HL),D
04DE7 72       LD   (HL),D
04DE8 72       LD   (HL),D
04DE9 72       LD   (HL),D
04DEA 72       LD   (HL),D
04DEB 72       LD   (HL),D
04DEC 74       LD   (HL),H
04DED 2C       INC  L
04DEE 4B       LD   C,E
04DEF 4A       LD   C,D
04DF0 2C       INC  L
04DF1 5B       LD   E,E
04DF2 7A       LD   A,D
04DF3 77       LD   (HL),A
04DF4 7E       LD   A,(HL)
04DF5 7F       LD   A,A
04DF6 9A       SBC  A,D
04DF7 9B       SBC  A,E
04DF8 2F       CPL  
04DF9 AA       XOR  D
04DFA 2F       CPL  
04DFB 9D       SBC  A,L
04DFC 9C       SBC  A,H
04DFD 9C       SBC  A,H
04DFE 2F       CPL  
04DFF 2F       CPL  
04E00 5C       LD   E,H
04E01 2C       INC  L
04E02 4B       LD   C,E
04E03 4A       LD   C,D
04E04 2C       INC  L
04E05 2D       DEC  L
04E06 4F       LD   C,A
04E07 4F       LD   C,A
04E08 4F       LD   C,A
04E09 4F       LD   C,A
04E0A 4F       LD   C,A
04E0B 4F       LD   C,A
04E0C 4F       LD   C,A
04E0D AC       XOR  H
04E0E 4F       LD   C,A
04E0F 4F       LD   C,A
04E10 4F       LD   C,A
04E11 4F       LD   C,A
04E12 4F       LD   C,A
04E13 4F       LD   C,A
04E14 2E2C     LD   L,2C
04E16 4B       LD   C,E
04E17 4A       LD   C,D
04E18 2C       INC  L
04E19 2C       INC  L
04E1A 2C       INC  L
04E1B 2C       INC  L
04E1C 2C       INC  L
04E1D 2C       INC  L
04E1E 2C       INC  L
04E1F 2C       INC  L
04E20 2C       INC  L
04E21 2C       INC  L
04E22 2C       INC  L
04E23 2C       INC  L
04E24 2C       INC  L
04E25 2C       INC  L
04E26 2C       INC  L
04E27 2C       INC  L
04E28 2C       INC  L
04E29 2C       INC  L
04E2A 4B       LD   C,E
04E2B 4C       LD   C,H
04E2C 4D       LD   C,L
04E2D 4D       LD   C,L
04E2E 4D       LD   C,L
04E2F 4D       LD   C,L
04E30 4D       LD   C,L
04E31 4D       LD   C,L
04E32 4D       LD   C,L
04E33 4D       LD   C,L
04E34 4D       LD   C,L
04E35 4D       LD   C,L
04E36 4D       LD   C,L
04E37 4D       LD   C,L
04E38 4D       LD   C,L
04E39 4D       LD   C,L
04E3A 4D       LD   C,L
04E3B 4D       LD   C,L
04E3C 4D       LD   C,L
04E3D 4D       LD   C,L
04E3E 4E       LD   C,(HL)
04E3F 47       LD   B,A
04E40 48       LD   C,B
04E41 48       LD   C,B
04E42 48       LD   C,B
04E43 48       LD   C,B
04E44 48       LD   C,B
04E45 48       LD   C,B
04E46 48       LD   C,B
04E47 48       LD   C,B
04E48 48       LD   C,B
04E49 48       LD   C,B
04E4A 48       LD   C,B
04E4B 48       LD   C,B
04E4C 48       LD   C,B
04E4D 48       LD   C,B
04E4E 48       LD   C,B
04E4F 48       LD   C,B
04E50 48       LD   C,B
04E51 48       LD   C,B
04E52 49       LD   C,C
04E53 4A       LD   C,D
04E54 2F       CPL  
04E55 0A       LD   A,(BC)
04E56 25       DEC  H
04E57 1D       DEC  E
04E58 22       HL++ (HL),A
04E59 19       ADD  HL,DE
04E5A 0E2F     LD   C,2F
04E5C 2C       INC  L
04E5D 2C       INC  L
04E5E 2C       INC  L
04E5F 2C       INC  L
04E60 2C       INC  L
04E61 2C       INC  L
04E62 2C       INC  L
04E63 2C       INC  L
04E64 2C       INC  L
04E65 2C       INC  L
04E66 4B       LD   C,E
04E67 4A       LD   C,D
04E68 2C       INC  L
04E69 2C       INC  L
04E6A 2C       INC  L
04E6B 2C       INC  L
04E6C 2C       INC  L
04E6D 2C       INC  L
04E6E 2C       INC  L
04E6F 2C       INC  L
04E70 2C       INC  L
04E71 2C       INC  L
04E72 2C       INC  L
04E73 2C       INC  L
04E74 2C       INC  L
04E75 2C       INC  L
04E76 2C       INC  L
04E77 2C       INC  L
04E78 2C       INC  L
04E79 2C       INC  L
04E7A 4B       LD   C,E
04E7B 4A       LD   C,D
04E7C 2C       INC  L
04E7D 2C       INC  L
04E7E 2C       INC  L
04E7F 2C       INC  L
04E80 2C       INC  L
04E81 50       LD   D,B
04E82 51       LD   D,C
04E83 51       LD   D,C
04E84 51       LD   D,C
04E85 51       LD   D,C
04E86 51       LD   D,C
04E87 52       LD   D,D
04E88 2C       INC  L
04E89 2C       INC  L
04E8A 2C       INC  L
04E8B 2C       INC  L
04E8C 2C       INC  L
04E8D 2C       INC  L
04E8E 4B       LD   C,E
04E8F 4A       LD   C,D
04E90 2C       INC  L
04E91 2C       INC  L
04E92 2C       INC  L
04E93 2C       INC  L
04E94 2C       INC  L
04E95 53       LD   D,E
04E96 15       DEC  D
04E97 0E1F     LD   C,1F
04E99 0E15     LD   C,15
04E9B 54       LD   D,H
04E9C 2C       INC  L
04E9D 2C       INC  L
04E9E 2C       INC  L
04E9F 2C       INC  L
04EA0 2C       INC  L
04EA1 2C       INC  L
04EA2 4B       LD   C,E
04EA3 4A       LD   C,D
04EA4 2C       INC  L
04EA5 2C       INC  L
04EA6 2C       INC  L
04EA7 55       LD   D,L
04EA8 56       LD   D,(HL)
04EA9 57       LD   D,A
04EAA 58       LD   E,B
04EAB 6C       LD   L,H
04EAC 58       LD   E,B
04EAD 6C       LD   L,H
04EAE 58       LD   E,B
04EAF 59       LD   E,C
04EB0 56       LD   D,(HL)
04EB1 5A       LD   E,D
04EB2 2C       INC  L
04EB3 2C       INC  L
04EB4 2C       INC  L
04EB5 2C       INC  L
04EB6 4B       LD   C,E
04EB7 4A       LD   C,D
04EB8 2C       INC  L
04EB9 2C       INC  L
04EBA 2C       INC  L
04EBB 5B       LD   E,E
04EBC 90       SUB  B
04EBD 6F       LD   L,A
04EBE 91       SUB  C
04EBF 6F       LD   L,A
04EC0 92       SUB  D
04EC1 6F       LD   L,A
04EC2 93       SUB  E
04EC3 6F       LD   L,A
04EC4 94       SUB  H
04EC5 5C       LD   E,H
04EC6 2C       INC  L
04EC7 2C       INC  L
04EC8 2C       INC  L
04EC9 2C       INC  L
04ECA 4B       LD   C,E
04ECB 4A       LD   C,D
04ECC 2C       INC  L
04ECD 2C       INC  L
04ECE 2C       INC  L
04ECF 71       LD   (HL),C
04ED0 72       LD   (HL),D
04ED1 73       LD   (HL),E
04ED2 72       LD   (HL),D
04ED3 73       LD   (HL),E
04ED4 72       LD   (HL),D
04ED5 73       LD   (HL),E
04ED6 72       LD   (HL),D
04ED7 73       LD   (HL),E
04ED8 72       LD   (HL),D
04ED9 74       LD   (HL),H
04EDA 2C       INC  L
04EDB 2C       INC  L
04EDC 2C       INC  L
04EDD 2C       INC  L
04EDE 4B       LD   C,E
04EDF 4A       LD   C,D
04EE0 2C       INC  L
04EE1 2C       INC  L
04EE2 2C       INC  L
04EE3 5B       LD   E,E
04EE4 95       SUB  L
04EE5 6F       LD   L,A
04EE6 96       SUB  (HL)
04EE7 6F       LD   L,A
04EE8 97       SUB  A
04EE9 6F       LD   L,A
04EEA 98       SBC  A,B
04EEB 6F       LD   L,A
04EEC 99       SBC  A,C
04EED 5C       LD   E,H
04EEE 2C       INC  L
04EEF 2C       INC  L
04EF0 2C       INC  L
04EF1 2C       INC  L
04EF2 4B       LD   C,E
04EF3 4A       LD   C,D
04EF4 2C       INC  L
04EF5 2C       INC  L
04EF6 2C       INC  L
04EF7 2D       DEC  L
04EF8 4F       LD   C,A
04EF9 6B       LD   L,E
04EFA 4F       LD   C,A
04EFB 6B       LD   L,E
04EFC 4F       LD   C,A
04EFD 6B       LD   L,E
04EFE 4F       LD   C,A
04EFF 6B       LD   L,E
04F00 4F       LD   C,A
04F01 2E2C     LD   L,2C
04F03 2C       INC  L
04F04 2C       INC  L
04F05 2C       INC  L
04F06 4B       LD   C,E
04F07 4A       LD   C,D
04F08 2C       INC  L
04F09 2C       INC  L
04F0A 2C       INC  L
04F0B 50       LD   D,B
04F0C 51       LD   D,C
04F0D 51       LD   D,C
04F0E 51       LD   D,C
04F0F 51       LD   D,C
04F10 51       LD   D,C
04F11 51       LD   D,C
04F12 51       LD   D,C
04F13 51       LD   D,C
04F14 51       LD   D,C
04F15 52       LD   D,D
04F16 2C       INC  L
04F17 2C       INC  L
04F18 2C       INC  L
04F19 2C       INC  L
04F1A 4B       LD   C,E
04F1B 4A       LD   C,D
04F1C 2C       INC  L
04F1D 2C       INC  L
04F1E 2C       INC  L
04F1F 53       LD   D,E
04F20 1D       DEC  E
04F21 1819     JR   4F3C
04F23 25       DEC  H
04F24 1C       INC  E
04F25 0C       INC  C
04F26 181B     JR   4F43
04F28 0E54     LD   C,54
04F2A 2C       INC  L
04F2B 2C       INC  L
04F2C 2C       INC  L
04F2D 2C       INC  L
04F2E 4B       LD   C,E
04F2F 4A       LD   C,D
04F30 55       LD   D,L
04F31 56       LD   D,(HL)
04F32 70       LD   (HL),B
04F33 6D       LD   L,L
04F34 58       LD   E,B
04F35 58       LD   E,B
04F36 58       LD   E,B
04F37 58       LD   E,B
04F38 58       LD   E,B
04F39 58       LD   E,B
04F3A 58       LD   E,B
04F3B 58       LD   E,B
04F3C 58       LD   E,B
04F3D 6E       LD   L,(HL)
04F3E 56       LD   D,(HL)
04F3F 56       LD   D,(HL)
04F40 56       LD   D,(HL)
04F41 5A       LD   E,D
04F42 4B       LD   C,E
04F43 4A       LD   C,D
04F44 5B       LD   E,E
04F45 016F60   LD   BC,606F
04F48 60       LD   H,B
04F49 60       LD   H,B
04F4A 60       LD   H,B
04F4B 60       LD   H,B
04F4C 60       LD   H,B
04F4D 2F       CPL  
04F4E 2F       CPL  
04F4F 60       LD   H,B
04F50 60       LD   H,B
04F51 60       LD   H,B
04F52 60       LD   H,B
04F53 60       LD   H,B
04F54 60       LD   H,B
04F55 5C       LD   E,H
04F56 4B       LD   C,E
04F57 4A       LD   C,D
04F58 5B       LD   E,E
04F59 02       LD   (BC),A
04F5A 6F       LD   L,A
04F5B 60       LD   H,B
04F5C 60       LD   H,B
04F5D 60       LD   H,B
04F5E 60       LD   H,B
04F5F 60       LD   H,B
04F60 60       LD   H,B
04F61 2F       CPL  
04F62 2F       CPL  
04F63 60       LD   H,B
04F64 60       LD   H,B
04F65 60       LD   H,B
04F66 60       LD   H,B
04F67 60       LD   H,B
04F68 60       LD   H,B
04F69 5C       LD   E,H
04F6A 4B       LD   C,E
04F6B 4A       LD   C,D
04F6C 5B       LD   E,E
04F6D 03       INC  BC
04F6E 6F       LD   L,A
04F6F 60       LD   H,B
04F70 60       LD   H,B
04F71 60       LD   H,B
04F72 60       LD   H,B
04F73 60       LD   H,B
04F74 60       LD   H,B
04F75 2F       CPL  
04F76 2F       CPL  
04F77 60       LD   H,B
04F78 60       LD   H,B
04F79 60       LD   H,B
04F7A 60       LD   H,B
04F7B 60       LD   H,B
04F7C 60       LD   H,B
04F7D 5C       LD   E,H
04F7E 4B       LD   C,E
04F7F 4A       LD   C,D
04F80 2D       DEC  L
04F81 4F       LD   C,A
04F82 6B       LD   L,E
04F83 4F       LD   C,A
04F84 4F       LD   C,A
04F85 4F       LD   C,A
04F86 4F       LD   C,A
04F87 4F       LD   C,A
04F88 4F       LD   C,A
04F89 4F       LD   C,A
04F8A 4F       LD   C,A
04F8B 4F       LD   C,A
04F8C 4F       LD   C,A
04F8D 4F       LD   C,A
04F8E 4F       LD   C,A
04F8F 4F       LD   C,A
04F90 4F       LD   C,A
04F91 2E4B     LD   L,4B
04F93 4C       LD   C,H
04F94 4D       LD   C,L
04F95 4D       LD   C,L
04F96 4D       LD   C,L
04F97 4D       LD   C,L
04F98 4D       LD   C,L
04F99 4D       LD   C,L
04F9A 4D       LD   C,L
04F9B 4D       LD   C,L
04F9C 4D       LD   C,L
04F9D 4D       LD   C,L
04F9E 4D       LD   C,L
04F9F 4D       LD   C,L
04FA0 4D       LD   C,L
04FA1 4D       LD   C,L
04FA2 4D       LD   C,L
04FA3 4D       LD   C,L
04FA4 4D       LD   C,L
04FA5 4D       LD   C,L
04FA6 4E       LD   C,(HL)
04FA7 47       LD   B,A
04FA8 48       LD   C,B
04FA9 48       LD   C,B
04FAA 48       LD   C,B
04FAB 48       LD   C,B
04FAC 48       LD   C,B
04FAD 48       LD   C,B
04FAE 48       LD   C,B
04FAF 48       LD   C,B
04FB0 48       LD   C,B
04FB1 48       LD   C,B
04FB2 48       LD   C,B
04FB3 48       LD   C,B
04FB4 48       LD   C,B
04FB5 48       LD   C,B
04FB6 48       LD   C,B
04FB7 48       LD   C,B
04FB8 48       LD   C,B
04FB9 48       LD   C,B
04FBA 49       LD   C,C
04FBB 4A       LD   C,D
04FBC 2F       CPL  
04FBD 0B       DEC  BC
04FBE 25       DEC  H
04FBF 1D       DEC  E
04FC0 22       HL++ (HL),A
04FC1 19       ADD  HL,DE
04FC2 0E2F     LD   C,2F
04FC4 2C       INC  L
04FC5 2C       INC  L
04FC6 2C       INC  L
04FC7 2C       INC  L
04FC8 2C       INC  L
04FC9 2C       INC  L
04FCA 2C       INC  L
04FCB 2C       INC  L
04FCC 2C       INC  L
04FCD 2C       INC  L
04FCE 4B       LD   C,E
04FCF 4A       LD   C,D
04FD0 2C       INC  L
04FD1 2C       INC  L
04FD2 2C       INC  L
04FD3 2C       INC  L
04FD4 2C       INC  L
04FD5 2C       INC  L
04FD6 2C       INC  L
04FD7 2C       INC  L
04FD8 2C       INC  L
04FD9 2C       INC  L
04FDA 2C       INC  L
04FDB 2C       INC  L
04FDC 2C       INC  L
04FDD 2C       INC  L
04FDE 2C       INC  L
04FDF 2C       INC  L
04FE0 2C       INC  L
04FE1 2C       INC  L
04FE2 4B       LD   C,E
04FE3 4A       LD   C,D
04FE4 2C       INC  L
04FE5 2C       INC  L
04FE6 50       LD   D,B
04FE7 51       LD   D,C
04FE8 51       LD   D,C
04FE9 51       LD   D,C
04FEA 51       LD   D,C
04FEB 51       LD   D,C
04FEC 52       LD   D,D
04FED 2C       INC  L
04FEE 2C       INC  L
04FEF 50       LD   D,B
04FF0 51       LD   D,C
04FF1 51       LD   D,C
04FF2 51       LD   D,C
04FF3 51       LD   D,C
04FF4 52       LD   D,D
04FF5 2C       INC  L
04FF6 4B       LD   C,E
04FF7 4A       LD   C,D
04FF8 2C       INC  L
04FF9 2C       INC  L
04FFA 53       LD   D,E
04FFB 15       DEC  D
04FFC 0E1F     LD   C,1F
04FFE 0E15     LD   C,15
05000 54       LD   D,H
05001 2C       INC  L
05002 2C       INC  L
05003 53       LD   D,E
05004 111210   LD   DE,1012
05007 11542C   LD   DE,2C54
0500A 4B       LD   C,E
0500B 4A       LD   C,D
0500C 55       LD   D,L
0500D 56       LD   D,(HL)
0500E 57       LD   D,A
0500F 58       LD   E,B
05010 6C       LD   L,H
05011 58       LD   E,B
05012 6C       LD   L,H
05013 58       LD   E,B
05014 59       LD   E,C
05015 56       LD   D,(HL)
05016 5A       LD   E,D
05017 75       LD   (HL),L
05018 58       LD   E,B
05019 6C       LD   L,H
0501A 58       LD   E,B
0501B 6C       LD   L,H
0501C 6E       LD   L,(HL)
0501D 5A       LD   E,D
0501E 4B       LD   C,E
0501F 4A       LD   C,D
05020 5B       LD   E,E
05021 90       SUB  B
05022 6F       LD   L,A
05023 91       SUB  C
05024 6F       LD   L,A
05025 92       SUB  D
05026 6F       LD   L,A
05027 93       SUB  E
05028 6F       LD   L,A
05029 94       SUB  H
0502A 5C       LD   E,H
0502B 5B       LD   E,E
0502C 90       SUB  B
0502D 6F       LD   L,A
0502E 91       SUB  C
0502F 6F       LD   L,A
05030 92       SUB  D
05031 5C       LD   E,H
05032 4B       LD   C,E
05033 4A       LD   C,D
05034 71       LD   (HL),C
05035 72       LD   (HL),D
05036 73       LD   (HL),E
05037 72       LD   (HL),D
05038 73       LD   (HL),E
05039 72       LD   (HL),D
0503A 73       LD   (HL),E
0503B 72       LD   (HL),D
0503C 73       LD   (HL),E
0503D 72       LD   (HL),D
0503E 74       LD   (HL),H
0503F 71       LD   (HL),C
05040 72       LD   (HL),D
05041 73       LD   (HL),E
05042 72       LD   (HL),D
05043 73       LD   (HL),E
05044 72       LD   (HL),D
05045 74       LD   (HL),H
05046 4B       LD   C,E
05047 4A       LD   C,D
05048 5B       LD   E,E
05049 95       SUB  L
0504A 6F       LD   L,A
0504B 96       SUB  (HL)
0504C 6F       LD   L,A
0504D 97       SUB  A
0504E 6F       LD   L,A
0504F 98       SBC  A,B
05050 6F       LD   L,A
05051 99       SBC  A,C
05052 5C       LD   E,H
05053 5B       LD   E,E
05054 93       SUB  E
05055 6F       LD   L,A
05056 94       SUB  H
05057 6F       LD   L,A
05058 95       SUB  L
05059 5C       LD   E,H
0505A 4B       LD   C,E
0505B 4A       LD   C,D
0505C 2D       DEC  L
0505D 4F       LD   C,A
0505E 6B       LD   L,E
0505F 4F       LD   C,A
05060 6B       LD   L,E
05061 4F       LD   C,A
05062 6B       LD   L,E
05063 4F       LD   C,A
05064 6B       LD   L,E
05065 4F       LD   C,A
05066 2E2D     LD   L,2D
05068 4F       LD   C,A
05069 6B       LD   L,E
0506A 4F       LD   C,A
0506B 6B       LD   L,E
0506C 4F       LD   C,A
0506D 2E4B     LD   L,4B
0506F 4A       LD   C,D
05070 2C       INC  L
05071 2C       INC  L
05072 2C       INC  L
05073 50       LD   D,B
05074 51       LD   D,C
05075 51       LD   D,C
05076 51       LD   D,C
05077 51       LD   D,C
05078 51       LD   D,C
05079 51       LD   D,C
0507A 51       LD   D,C
0507B 51       LD   D,C
0507C 51       LD   D,C
0507D 52       LD   D,D
0507E 2C       INC  L
0507F 2C       INC  L
05080 2C       INC  L
05081 2C       INC  L
05082 4B       LD   C,E
05083 4A       LD   C,D
05084 2C       INC  L
05085 2C       INC  L
05086 2C       INC  L
05087 53       LD   D,E
05088 1D       DEC  E
05089 1819     JR   50A4
0508B 25       DEC  H
0508C 1C       INC  E
0508D 0C       INC  C
0508E 181B     JR   50AB
05090 0E54     LD   C,54
05092 2C       INC  L
05093 2C       INC  L
05094 2C       INC  L
05095 2C       INC  L
05096 4B       LD   C,E
05097 4A       LD   C,D
05098 55       LD   D,L
05099 56       LD   D,(HL)
0509A 70       LD   (HL),B
0509B 6D       LD   L,L
0509C 58       LD   E,B
0509D 58       LD   E,B
0509E 58       LD   E,B
0509F 58       LD   E,B
050A0 58       LD   E,B
050A1 58       LD   E,B
050A2 58       LD   E,B
050A3 58       LD   E,B
050A4 58       LD   E,B
050A5 6E       LD   L,(HL)
050A6 56       LD   D,(HL)
050A7 56       LD   D,(HL)
050A8 56       LD   D,(HL)
050A9 5A       LD   E,D
050AA 4B       LD   C,E
050AB 4A       LD   C,D
050AC 5B       LD   E,E
050AD 016F60   LD   BC,606F
050B0 60       LD   H,B
050B1 60       LD   H,B
050B2 60       LD   H,B
050B3 60       LD   H,B
050B4 60       LD   H,B
050B5 2F       CPL  
050B6 2F       CPL  
050B7 60       LD   H,B
050B8 60       LD   H,B
050B9 60       LD   H,B
050BA 60       LD   H,B
050BB 60       LD   H,B
050BC 60       LD   H,B
050BD 5C       LD   E,H
050BE 4B       LD   C,E
050BF 4A       LD   C,D
050C0 5B       LD   E,E
050C1 02       LD   (BC),A
050C2 6F       LD   L,A
050C3 60       LD   H,B
050C4 60       LD   H,B
050C5 60       LD   H,B
050C6 60       LD   H,B
050C7 60       LD   H,B
050C8 60       LD   H,B
050C9 2F       CPL  
050CA 2F       CPL  
050CB 60       LD   H,B
050CC 60       LD   H,B
050CD 60       LD   H,B
050CE 60       LD   H,B
050CF 60       LD   H,B
050D0 60       LD   H,B
050D1 5C       LD   E,H
050D2 4B       LD   C,E
050D3 4A       LD   C,D
050D4 5B       LD   E,E
050D5 03       INC  BC
050D6 6F       LD   L,A
050D7 60       LD   H,B
050D8 60       LD   H,B
050D9 60       LD   H,B
050DA 60       LD   H,B
050DB 60       LD   H,B
050DC 60       LD   H,B
050DD 2F       CPL  
050DE 2F       CPL  
050DF 60       LD   H,B
050E0 60       LD   H,B
050E1 60       LD   H,B
050E2 60       LD   H,B
050E3 60       LD   H,B
050E4 60       LD   H,B
050E5 5C       LD   E,H
050E6 4B       LD   C,E
050E7 4A       LD   C,D
050E8 2D       DEC  L
050E9 4F       LD   C,A
050EA 6B       LD   L,E
050EB 4F       LD   C,A
050EC 4F       LD   C,A
050ED 4F       LD   C,A
050EE 4F       LD   C,A
050EF 4F       LD   C,A
050F0 4F       LD   C,A
050F1 4F       LD   C,A
050F2 4F       LD   C,A
050F3 4F       LD   C,A
050F4 4F       LD   C,A
050F5 4F       LD   C,A
050F6 4F       LD   C,A
050F7 4F       LD   C,A
050F8 4F       LD   C,A
050F9 2E4B     LD   L,4B
050FB 4C       LD   C,H
050FC 4D       LD   C,L
050FD 4D       LD   C,L
050FE 4D       LD   C,L
050FF 4D       LD   C,L
05100 4D       LD   C,L
05101 4D       LD   C,L
05102 4D       LD   C,L
05103 4D       LD   C,L
05104 4D       LD   C,L
05105 4D       LD   C,L
05106 4D       LD   C,L
05107 4D       LD   C,L
05108 4D       LD   C,L
05109 4D       LD   C,L
0510A 4D       LD   C,L
0510B 4D       LD   C,L
0510C 4D       LD   C,L
0510D 4D       LD   C,L
0510E 4E       LD   C,(HL)
0510F CDCDCD   CALL CDCD
05112 CDCDCD   CALL CDCD
05115 CDCDCD   CALL CDCD
05118 CD8CC9   CALL C98C
0511B CA8C8C   JP   Z,8C8C
0511E 8C       ADC  A,H
0511F 8C       ADC  A,H
05120 8C       ADC  A,H
05121 8C       ADC  A,H
05122 8C       ADC  A,H
05123 8C       ADC  A,H
05124 CBCC     SET  1,H
05126 8C       ADC  A,H
05127 8C       ADC  A,H
05128 8C       ADC  A,H
05129 8C       ADC  A,H
0512A 8C       ADC  A,H
0512B 8C       ADC  A,H
0512C CED7     ADC  A,D7
0512E D7       RST  10
0512F D7       RST  10
05130 D7       RST  10
05131 D7       RST  10
05132 D7       RST  10
05133 D7       RST  10
05134 D7       RST  10
05135 D7       RST  10
05136 CF       RST  08
05137 2F       CPL  
05138 2F       CPL  
05139 2F       CPL  
0513A 2F       CPL  
0513B 2F       CPL  
0513C 2F       CPL  
0513D 2F       CPL  
0513E 2F       CPL  
0513F 2F       CPL  
05140 D0       RET  NC
05141 2F       CPL  
05142 2F       CPL  
05143 2F       CPL  
05144 2F       CPL  
05145 2F       CPL  
05146 2F       CPL  
05147 2F       CPL  
05148 2F       CPL  
05149 D1       POP  DE
0514A D22F2F   JP   NC,2F2F
0514D 2F       CPL  
0514E 2F       CPL  
0514F 2F       CPL  
05150 2F       CPL  
05151 2F       CPL  
05152 2F       CPL  
05153 D3       ???? 
05154 D47C7C   CALL NC,7C7C
05157 7C       LD   A,H
05158 7C       LD   A,H
05159 7C       LD   A,H
0515A 7C       LD   A,H
0515B 2F       CPL  
0515C 2F       CPL  
0515D D5       PUSH DE
0515E D67D     SUB  7D
05160 7D       LD   A,L
05161 7D       LD   A,L
05162 7D       LD   A,L
05163 2F       CPL  
05164 2F       CPL  
05165 2F       CPL  
05166 2F       CPL  
05167 D8       RET  C
05168 2F       CPL  
05169 7B       LD   A,E
0516A 7B       LD   A,E
0516B 7B       LD   A,E
0516C 7B       LD   A,E
0516D 2F       CPL  
0516E 2F       CPL  
0516F 2F       CPL  
05170 2F       CPL  
05171 D8       RET  C
05172 2F       CPL  
05173 7C       LD   A,H
05174 7C       LD   A,H
05175 7C       LD   A,H
05176 7C       LD   A,H
05177 2F       CPL  
05178 2F       CPL  
05179 2F       CPL  
0517A 2F       CPL  
0517B D8       RET  C
0517C 2F       CPL  
0517D 2F       CPL  
0517E 2F       CPL  
0517F 2F       CPL  
05180 2F       CPL  
05181 2F       CPL  
05182 2F       CPL  
05183 2F       CPL  
05184 2F       CPL  
05185 D8       RET  C
05186 2F       CPL  
05187 2F       CPL  
05188 2F       CPL  
05189 2F       CPL  
0518A 2F       CPL  
0518B 2F       CPL  
0518C 2F       CPL  
0518D 7C       LD   A,H
0518E 7C       LD   A,H
0518F 7C       LD   A,H
05190 7C       LD   A,H
05191 2F       CPL  
05192 2F       CPL  
05193 2F       CPL  
05194 2F       CPL  
05195 2F       CPL  
05196 2F       CPL  
05197 2F       CPL  
05198 2F       CPL  
05199 2F       CPL  
0519A 7C       LD   A,H
0519B 7D       LD   A,L
0519C 7D       LD   A,L
0519D 2F       CPL  
0519E 2F       CPL  
0519F 2F       CPL  
051A0 2F       CPL  
051A1 2F       CPL  
051A2 2F       CPL  
051A3 2F       CPL  
051A4 7D       LD   A,L
051A5 2F       CPL  
051A6 2F       CPL  
051A7 2F       CPL  
051A8 D9       RETI 
051A9 2F       CPL  
051AA 2F       CPL  
051AB 2F       CPL  
051AC 2F       CPL  
051AD 2F       CPL  
051AE 7B       LD   A,E
051AF B7       OR   A
051B0 B8       CP   B
051B1 D9       RETI 
051B2 B7       OR   A
051B3 2F       CPL  
051B4 7C       LD   A,H
051B5 7C       LD   A,H
051B6 7C       LD   A,H
051B7 7C       LD   A,H
051B8 7C       LD   A,H
051B9 7D       LD   A,L
051BA 7D       LD   A,L
051BB 7D       LD   A,L
051BC 7D       LD   A,L
051BD 7D       LD   A,L
051BE 7D       LD   A,L
051BF 7D       LD   A,L
051C0 7D       LD   A,L
051C1 7D       LD   A,L
051C2 7D       LD   A,L
051C3 FF       RST  38
051C4 4A       LD   C,D
051C5 4A       LD   C,D
051C6 4A       LD   C,D
051C7 4A       LD   C,D
051C8 4A       LD   C,D
051C9 4A       LD   C,D
051CA 59       LD   E,C
051CB 69       LD   L,C
051CC 69       LD   L,C
051CD 69       LD   L,C
051CE 69       LD   L,C
051CF 69       LD   L,C
051D0 69       LD   L,C
051D1 49       LD   C,C
051D2 4A       LD   C,D
051D3 4A       LD   C,D
051D4 4A       LD   C,D
051D5 4A       LD   C,D
051D6 4A       LD   C,D
051D7 4A       LD   C,D
051D8 5A       LD   E,D
051D9 5A       LD   E,D
051DA 5A       LD   E,D
051DB 5A       LD   E,D
051DC 5A       LD   E,D
051DD 5A       LD   E,D
051DE 85       ADD  A,L
051DF 85       ADD  A,L
051E0 85       ADD  A,L
051E1 85       ADD  A,L
051E2 85       ADD  A,L
051E3 85       ADD  A,L
051E4 85       ADD  A,L
051E5 85       ADD  A,L
051E6 5A       LD   E,D
051E7 5A       LD   E,D
051E8 3839     JR   C,5223
051EA 385A     JR   C,5246
051EC 6A       LD   L,D
051ED 6A       LD   L,D
051EE 6A       LD   L,D
051EF 6A       LD   L,D
051F0 6A       LD   L,D
051F1 6A       LD   L,D
051F2 6A       LD   L,D
051F3 6A       LD   L,D
051F4 6A       LD   L,D
051F5 6A       LD   L,D
051F6 6A       LD   L,D
051F7 6A       LD   L,D
051F8 6A       LD   L,D
051F9 6A       LD   L,D
051FA 6A       LD   L,D
051FB 6A       LD   L,D
051FC 6A       LD   L,D
051FD 6A       LD   L,D
051FE 6A       LD   L,D
051FF 6A       LD   L,D
05200 07       RLCA 
05201 07       RLCA 
05202 07       RLCA 
05203 07       RLCA 
05204 07       RLCA 
05205 07       RLCA 
05206 07       RLCA 
05207 07       RLCA 
05208 07       RLCA 
05209 07       RLCA 
0520A 07       RLCA 
0520B 07       RLCA 
0520C 07       RLCA 
0520D 07       RLCA 
0520E 07       RLCA 
0520F 07       RLCA 
05210 07       RLCA 
05211 07       RLCA 
05212 07       RLCA 
05213 07       RLCA 
05214 47       LD   B,A
05215 48       LD   C,B
05216 48       LD   C,B
05217 48       LD   C,B
05218 48       LD   C,B
05219 48       LD   C,B
0521A 48       LD   C,B
0521B 48       LD   C,B
0521C 48       LD   C,B
0521D 48       LD   C,B
0521E 48       LD   C,B
0521F 48       LD   C,B
05220 48       LD   C,B
05221 48       LD   C,B
05222 48       LD   C,B
05223 48       LD   C,B
05224 48       LD   C,B
05225 48       LD   C,B
05226 48       LD   C,B
05227 49       LD   C,C
05228 4A       LD   C,D
05229 2C       INC  L
0522A 2C       INC  L
0522B 2C       INC  L
0522C 2C       INC  L
0522D 2C       INC  L
0522E 2C       INC  L
0522F 2C       INC  L
05230 2C       INC  L
05231 2C       INC  L
05232 2C       INC  L
05233 2C       INC  L
05234 2C       INC  L
05235 2C       INC  L
05236 2C       INC  L
05237 2C       INC  L
05238 2C       INC  L
05239 2C       INC  L
0523A 2C       INC  L
0523B 4B       LD   C,E
0523C 4A       LD   C,D
0523D 2C       INC  L
0523E 2C       INC  L
0523F 160A     LD   D,0A
05241 1B       DEC  DE
05242 12       LD   (DE),A
05243 182F     JR   5274
05245 1F       RRA  
05246 1C       INC  E
05247 24       INC  H
05248 15       DEC  D
05249 1E12     LD   E,12
0524B 1012     DJNZ 525F
0524D 2C       INC  L
0524E 2C       INC  L
0524F 4B       LD   C,E
05250 4A       LD   C,D
05251 2C       INC  L
05252 2C       INC  L
05253 2C       INC  L
05254 2C       INC  L
05255 2C       INC  L
05256 2C       INC  L
05257 2C       INC  L
05258 2C       INC  L
05259 2C       INC  L
0525A 50       LD   D,B
0525B 51       LD   D,C
0525C 51       LD   D,C
0525D 51       LD   D,C
0525E 51       LD   D,C
0525F 52       LD   D,D
05260 2C       INC  L
05261 2C       INC  L
05262 2C       INC  L
05263 4B       LD   C,E
05264 4A       LD   C,D
05265 2C       INC  L
05266 2C       INC  L
05267 2C       INC  L
05268 2C       INC  L
05269 2C       INC  L
0526A 2C       INC  L
0526B 2C       INC  L
0526C 2C       INC  L
0526D 2C       INC  L
0526E 53       LD   D,E
0526F 111210   LD   DE,1012
05272 11542C   LD   DE,2C54
05275 2C       INC  L
05276 2C       INC  L
05277 4B       LD   C,E
05278 4A       LD   C,D
05279 2C       INC  L
0527A 2C       INC  L
0527B 55       LD   D,L
0527C 56       LD   D,(HL)
0527D 56       LD   D,(HL)
0527E 5A       LD   E,D
0527F 2C       INC  L
05280 2C       INC  L
05281 2C       INC  L
05282 75       LD   (HL),L
05283 58       LD   E,B
05284 6C       LD   L,H
05285 58       LD   E,B
05286 6C       LD   L,H
05287 6E       LD   L,(HL)
05288 5A       LD   E,D
05289 2C       INC  L
0528A 2C       INC  L
0528B 4B       LD   C,E
0528C 4A       LD   C,D
0528D 2C       INC  L
0528E 2C       INC  L
0528F 5B       LD   E,E
05290 2F       CPL  
05291 2F       CPL  
05292 5C       LD   E,H
05293 2C       INC  L
05294 2C       INC  L
05295 2C       INC  L
05296 5B       LD   E,E
05297 90       SUB  B
05298 6F       LD   L,A
05299 91       SUB  C
0529A 6F       LD   L,A
0529B 92       SUB  D
0529C 5C       LD   E,H
0529D 2C       INC  L
0529E 2C       INC  L
0529F 4B       LD   C,E
052A0 4A       LD   C,D
052A1 2C       INC  L
052A2 2C       INC  L
052A3 5B       LD   E,E
052A4 2F       CPL  
052A5 2F       CPL  
052A6 5C       LD   E,H
052A7 2C       INC  L
052A8 2C       INC  L
052A9 2C       INC  L
052AA 71       LD   (HL),C
052AB 72       LD   (HL),D
052AC 73       LD   (HL),E
052AD 72       LD   (HL),D
052AE 73       LD   (HL),E
052AF 72       LD   (HL),D
052B0 74       LD   (HL),H
052B1 2C       INC  L
052B2 2C       INC  L
052B3 4B       LD   C,E
052B4 4A       LD   C,D
052B5 2C       INC  L
052B6 2C       INC  L
052B7 2D       DEC  L
052B8 4F       LD   C,A
052B9 4F       LD   C,A
052BA 2E2C     LD   L,2C
052BC 2C       INC  L
052BD 2C       INC  L
052BE 5B       LD   E,E
052BF 93       SUB  E
052C0 6F       LD   L,A
052C1 94       SUB  H
052C2 6F       LD   L,A
052C3 95       SUB  L
052C4 5C       LD   E,H
052C5 2C       INC  L
052C6 2C       INC  L
052C7 4B       LD   C,E
052C8 4A       LD   C,D
052C9 2C       INC  L
052CA 2C       INC  L
052CB 160A     LD   D,0A
052CD 1B       DEC  DE
052CE 12       LD   (DE),A
052CF 182C     JR   52FD
052D1 2C       INC  L
052D2 2D       DEC  L
052D3 4F       LD   C,A
052D4 6B       LD   L,E
052D5 4F       LD   C,A
052D6 6B       LD   L,E
052D7 4F       LD   C,A
052D8 2E2C     LD   L,2C
052DA 2C       INC  L
052DB 4B       LD   C,E
052DC 4A       LD   C,D
052DD 2C       INC  L
052DE 2C       INC  L
052DF 2C       INC  L
052E0 2C       INC  L
052E1 2C       INC  L
052E2 2C       INC  L
052E3 2C       INC  L
052E4 2C       INC  L
052E5 2C       INC  L
052E6 50       LD   D,B
052E7 51       LD   D,C
052E8 51       LD   D,C
052E9 51       LD   D,C
052EA 51       LD   D,C
052EB 52       LD   D,D
052EC 2C       INC  L
052ED 2C       INC  L
052EE 2C       INC  L
052EF 4B       LD   C,E
052F0 4A       LD   C,D
052F1 2C       INC  L
052F2 2C       INC  L
052F3 2C       INC  L
052F4 2C       INC  L
052F5 2C       INC  L
052F6 2C       INC  L
052F7 2C       INC  L
052F8 2C       INC  L
052F9 2C       INC  L
052FA 53       LD   D,E
052FB 111210   LD   DE,1012
052FE 11542C   LD   DE,2C54
05301 2C       INC  L
05302 2C       INC  L
05303 4B       LD   C,E
05304 4A       LD   C,D
05305 2C       INC  L
05306 2C       INC  L
05307 55       LD   D,L
05308 56       LD   D,(HL)
05309 56       LD   D,(HL)
0530A 5A       LD   E,D
0530B 2C       INC  L
0530C 2C       INC  L
0530D 2C       INC  L
0530E 75       LD   (HL),L
0530F 58       LD   E,B
05310 6C       LD   L,H
05311 58       LD   E,B
05312 6C       LD   L,H
05313 6E       LD   L,(HL)
05314 5A       LD   E,D
05315 2C       INC  L
05316 2C       INC  L
05317 4B       LD   C,E
05318 4A       LD   C,D
05319 2C       INC  L
0531A 2C       INC  L
0531B 5B       LD   E,E
0531C 2F       CPL  
0531D 2F       CPL  
0531E 5C       LD   E,H
0531F 2C       INC  L
05320 2C       INC  L
05321 2C       INC  L
05322 5B       LD   E,E
05323 90       SUB  B
05324 6F       LD   L,A
05325 91       SUB  C
05326 6F       LD   L,A
05327 92       SUB  D
05328 5C       LD   E,H
05329 2C       INC  L
0532A 2C       INC  L
0532B 4B       LD   C,E
0532C 4A       LD   C,D
0532D 2C       INC  L
0532E 2C       INC  L
0532F 5B       LD   E,E
05330 2F       CPL  
05331 2F       CPL  
05332 5C       LD   E,H
05333 2C       INC  L
05334 2C       INC  L
05335 2C       INC  L
05336 71       LD   (HL),C
05337 72       LD   (HL),D
05338 73       LD   (HL),E
05339 72       LD   (HL),D
0533A 73       LD   (HL),E
0533B 72       LD   (HL),D
0533C 74       LD   (HL),H
0533D 2C       INC  L
0533E 2C       INC  L
0533F 4B       LD   C,E
05340 4A       LD   C,D
05341 2C       INC  L
05342 2C       INC  L
05343 2D       DEC  L
05344 4F       LD   C,A
05345 4F       LD   C,A
05346 2E2C     LD   L,2C
05348 2C       INC  L
05349 2C       INC  L
0534A 5B       LD   E,E
0534B 93       SUB  E
0534C 6F       LD   L,A
0534D 94       SUB  H
0534E 6F       LD   L,A
0534F 95       SUB  L
05350 5C       LD   E,H
05351 2C       INC  L
05352 2C       INC  L
05353 4B       LD   C,E
05354 4A       LD   C,D
05355 2C       INC  L
05356 2C       INC  L
05357 15       DEC  D
05358 1E12     LD   E,12
0535A 1012     DJNZ 536E
0535C 2C       INC  L
0535D 2C       INC  L
0535E 2D       DEC  L
0535F 4F       LD   C,A
05360 6B       LD   L,E
05361 4F       LD   C,A
05362 6B       LD   L,E
05363 4F       LD   C,A
05364 2E2C     LD   L,2C
05366 2C       INC  L
05367 4B       LD   C,E
05368 4C       LD   C,H
05369 4D       LD   C,L
0536A 4D       LD   C,L
0536B 4D       LD   C,L
0536C 4D       LD   C,L
0536D 4D       LD   C,L
0536E 4D       LD   C,L
0536F 4D       LD   C,L
05370 4D       LD   C,L
05371 4D       LD   C,L
05372 4D       LD   C,L
05373 4D       LD   C,L
05374 4D       LD   C,L
05375 4D       LD   C,L
05376 4D       LD   C,L
05377 4D       LD   C,L
05378 4D       LD   C,L
05379 4D       LD   C,L
0537A 4D       LD   C,L
0537B 4E       LD   C,(HL)
0537C 8E       ADC  A,(HL)
0537D B2       OR   D
0537E 2F       CPL  
0537F 2F       CPL  
05380 2F       CPL  
05381 2F       CPL  
05382 2F       CPL  
05383 2F       CPL  
05384 2F       CPL  
05385 2F       CPL  
05386 2F       CPL  
05387 2F       CPL  
05388 B3       OR   E
05389 3031     JR   NC,53BC
0538B 313131   LD   SP,3131
0538E 31328E   LD   SP,8E32
05391 B0       OR   B
05392 2F       CPL  
05393 2F       CPL  
05394 2F       CPL  
05395 2F       CPL  
05396 2F       CPL  
05397 2F       CPL  
05398 2F       CPL  
05399 2F       CPL  
0539A 2F       CPL  
0539B 2F       CPL  
0539C B5       OR   L
0539D 362F     LD   (HL),2F
0539F 2F       CPL  
053A0 2F       CPL  
053A1 2F       CPL  
053A2 2F       CPL  
053A3 37       SCF  
053A4 8E       ADC  A,(HL)
053A5 B0       OR   B
053A6 2F       CPL  
053A7 2F       CPL  
053A8 2F       CPL  
053A9 2F       CPL  
053AA 2F       CPL  
053AB 2F       CPL  
053AC 2F       CPL  
053AD 2F       CPL  
053AE 2F       CPL  
053AF 2F       CPL  
053B0 B5       OR   L
053B1 362F     LD   (HL),2F
053B3 2F       CPL  
053B4 2F       CPL  
053B5 2F       CPL  
053B6 2F       CPL  
053B7 37       SCF  
053B8 8E       ADC  A,(HL)
053B9 B0       OR   B
053BA 2F       CPL  
053BB 2F       CPL  
053BC 2F       CPL  
053BD 2F       CPL  
053BE 2F       CPL  
053BF 2F       CPL  
053C0 2F       CPL  
053C1 2F       CPL  
053C2 2F       CPL  
053C3 2F       CPL  
053C4 B5       OR   L
053C5 40       LD   B,B
053C6 42       LD   B,D
053C7 42       LD   B,D
053C8 42       LD   B,D
053C9 42       LD   B,D
053CA 42       LD   B,D
053CB 41       LD   B,C
053CC 8E       ADC  A,(HL)
053CD B0       OR   B
053CE 2F       CPL  
053CF 2F       CPL  
053D0 2F       CPL  
053D1 2F       CPL  
053D2 2F       CPL  
053D3 2F       CPL  
053D4 2F       CPL  
053D5 2F       CPL  
053D6 2F       CPL  
053D7 2F       CPL  
053D8 B5       OR   L
053D9 3611     LD   (HL),11
053DB 12       LD   (DE),A
053DC 1011     DJNZ 53EF
053DE 2F       CPL  
053DF 37       SCF  
053E0 8E       ADC  A,(HL)
053E1 B0       OR   B
053E2 2F       CPL  
053E3 2F       CPL  
053E4 2F       CPL  
053E5 2F       CPL  
053E6 2F       CPL  
053E7 2F       CPL  
053E8 2F       CPL  
053E9 2F       CPL  
053EA 2F       CPL  
053EB 2F       CPL  
053EC B5       OR   L
053ED 362F     LD   (HL),2F
053EF 2F       CPL  
053F0 2F       CPL  
053F1 2F       CPL  
053F2 2F       CPL  
053F3 37       SCF  
053F4 8E       ADC  A,(HL)
053F5 B0       OR   B
053F6 2F       CPL  
053F7 2F       CPL  
053F8 2F       CPL  
053F9 2F       CPL  
053FA 2F       CPL  
053FB 2F       CPL  
053FC 2F       CPL  
053FD 2F       CPL  
053FE 2F       CPL  
053FF 2F       CPL  
05400 B5       OR   L
05401 33       INC  SP
05402 34       INC  (HL)
05403 34       INC  (HL)
05404 34       INC  (HL)
05405 34       INC  (HL)
05406 34       INC  (HL)
05407 35       DEC  (HL)
05408 8E       ADC  A,(HL)
05409 B0       OR   B
0540A 2F       CPL  
0540B 2F       CPL  
0540C 2F       CPL  
0540D 2F       CPL  
0540E 2F       CPL  
0540F 2F       CPL  
05410 2F       CPL  
05411 2F       CPL  
05412 2F       CPL  
05413 2F       CPL  
05414 B5       OR   L
05415 2B       DEC  HL
05416 8E       ADC  A,(HL)
05417 8E       ADC  A,(HL)
05418 8E       ADC  A,(HL)
05419 8E       ADC  A,(HL)
0541A 8E       ADC  A,(HL)
0541B 8E       ADC  A,(HL)
0541C 8E       ADC  A,(HL)
0541D B0       OR   B
0541E 2F       CPL  
0541F 2F       CPL  
05420 2F       CPL  
05421 2F       CPL  
05422 2F       CPL  
05423 2F       CPL  
05424 2F       CPL  
05425 2F       CPL  
05426 2F       CPL  
05427 2F       CPL  
05428 B5       OR   L
05429 3031     JR   NC,545C
0542B 313131   LD   SP,3131
0542E 31328E   LD   SP,8E32
05431 B0       OR   B
05432 2F       CPL  
05433 2F       CPL  
05434 2F       CPL  
05435 2F       CPL  
05436 2F       CPL  
05437 2F       CPL  
05438 2F       CPL  
05439 2F       CPL  
0543A 2F       CPL  
0543B 2F       CPL  
0543C B5       OR   L
0543D 3615     LD   (HL),15
0543F 12       LD   (DE),A
05440 17       RLA  
05441 0E1C     LD   C,1C
05443 37       SCF  
05444 8E       ADC  A,(HL)
05445 B0       OR   B
05446 2F       CPL  
05447 2F       CPL  
05448 2F       CPL  
05449 2F       CPL  
0544A 2F       CPL  
0544B 2F       CPL  
0544C 2F       CPL  
0544D 2F       CPL  
0544E 2F       CPL  
0544F 2F       CPL  
05450 B5       OR   L
05451 362F     LD   (HL),2F
05453 2F       CPL  
05454 2F       CPL  
05455 2F       CPL  
05456 2F       CPL  
05457 37       SCF  
05458 8E       ADC  A,(HL)
05459 B0       OR   B
0545A 2F       CPL  
0545B 2F       CPL  
0545C 2F       CPL  
0545D 2F       CPL  
0545E 2F       CPL  
0545F 2F       CPL  
05460 2F       CPL  
05461 2F       CPL  
05462 2F       CPL  
05463 2F       CPL  
05464 B5       OR   L
05465 33       INC  SP
05466 34       INC  (HL)
05467 34       INC  (HL)
05468 34       INC  (HL)
05469 34       INC  (HL)
0546A 34       INC  (HL)
0546B 35       DEC  (HL)
0546C 8E       ADC  A,(HL)
0546D B0       OR   B
0546E 2F       CPL  
0546F 2F       CPL  
05470 2F       CPL  
05471 2F       CPL  
05472 2F       CPL  
05473 2F       CPL  
05474 2F       CPL  
05475 2F       CPL  
05476 2F       CPL  
05477 2F       CPL  
05478 B5       OR   L
05479 2B       DEC  HL
0547A 3839     JR   C,54B5
0547C 39       ADD  HL,SP
0547D 39       ADD  HL,SP
0547E 39       ADD  HL,SP
0547F 3A       HL-- A,(HL)
05480 8E       ADC  A,(HL)
05481 B0       OR   B
05482 2F       CPL  
05483 2F       CPL  
05484 2F       CPL  
05485 2F       CPL  
05486 2F       CPL  
05487 2F       CPL  
05488 2F       CPL  
05489 2F       CPL  
0548A 2F       CPL  
0548B 2F       CPL  
0548C B5       OR   L
0548D 2B       DEC  HL
0548E 3B       DEC  SP
0548F 2F       CPL  
05490 2F       CPL  
05491 2F       CPL  
05492 2F       CPL  
05493 3C       INC  A
05494 8E       ADC  A,(HL)
05495 B0       OR   B
05496 2F       CPL  
05497 2F       CPL  
05498 2F       CPL  
05499 2F       CPL  
0549A 2F       CPL  
0549B 2F       CPL  
0549C 2F       CPL  
0549D 2F       CPL  
0549E 2F       CPL  
0549F 2F       CPL  
054A0 B5       OR   L
054A1 2B       DEC  HL
054A2 3B       DEC  SP
054A3 2F       CPL  
054A4 2F       CPL  
054A5 2F       CPL  
054A6 2F       CPL  
054A7 3C       INC  A
054A8 8E       ADC  A,(HL)
054A9 B0       OR   B
054AA 2F       CPL  
054AB 2F       CPL  
054AC 2F       CPL  
054AD 2F       CPL  
054AE 2F       CPL  
054AF 2F       CPL  
054B0 2F       CPL  
054B1 2F       CPL  
054B2 2F       CPL  
054B3 2F       CPL  
054B4 B5       OR   L
054B5 2B       DEC  HL
054B6 3B       DEC  SP
054B7 2F       CPL  
054B8 2F       CPL  
054B9 2F       CPL  
054BA 2F       CPL  
054BB 3C       INC  A
054BC 8E       ADC  A,(HL)
054BD B0       OR   B
054BE 2F       CPL  
054BF 2F       CPL  
054C0 2F       CPL  
054C1 2F       CPL  
054C2 2F       CPL  
054C3 2F       CPL  
054C4 2F       CPL  
054C5 2F       CPL  
054C6 2F       CPL  
054C7 2F       CPL  
054C8 B5       OR   L
054C9 2B       DEC  HL
054CA 3B       DEC  SP
054CB 2F       CPL  
054CC 2F       CPL  
054CD 2F       CPL  
054CE 2F       CPL  
054CF 3C       INC  A
054D0 8E       ADC  A,(HL)
054D1 B1       OR   C
054D2 2F       CPL  
054D3 2F       CPL  
054D4 2F       CPL  
054D5 2F       CPL  
054D6 2F       CPL  
054D7 2F       CPL  
054D8 2F       CPL  
054D9 2F       CPL  
054DA 2F       CPL  
054DB 2F       CPL  
054DC B4       OR   H
054DD 2B       DEC  HL
054DE 3D       DEC  A
054DF 3E3E     LD   A,3E
054E1 3E3E     LD   A,3E
054E3 3F       CCF  
054E4 07       RLCA 
054E5 07       RLCA 
054E6 07       RLCA 
054E7 07       RLCA 
054E8 07       RLCA 
054E9 07       RLCA 
054EA 84       ADD  A,H
054EB 87       ADD  A,A
054EC 87       ADD  A,A
054ED 8C       ADC  A,H
054EE 87       ADD  A,A
054EF 87       ADD  A,A
054F0 8C       ADC  A,H
054F1 87       ADD  A,A
054F2 87       ADD  A,A
054F3 8C       ADC  A,H
054F4 87       ADD  A,A
054F5 87       ADD  A,A
054F6 86       ADD  A,(HL)
054F7 07       RLCA 
054F8 07       RLCA 
054F9 1E1E     LD   E,1E
054FB 1E1E     LD   E,1E
054FD 1E79     LD   E,79
054FF 2F       CPL  
05500 2F       CPL  
05501 8D       ADC  A,L
05502 2F       CPL  
05503 2F       CPL  
05504 8D       ADC  A,L
05505 2F       CPL  
05506 2F       CPL  
05507 8D       ADC  A,L
05508 2F       CPL  
05509 2F       CPL  
0550A 88       ADC  A,B
0550B 07       RLCA 
0550C 07       RLCA 
0550D B4       OR   H
0550E B5       OR   L
0550F BB       CP   E
05510 2EBC     LD   L,BC
05512 79       LD   A,C
05513 2F       CPL  
05514 2F       CPL  
05515 8D       ADC  A,L
05516 2F       CPL  
05517 2F       CPL  
05518 8D       ADC  A,L
05519 2F       CPL  
0551A 2F       CPL  
0551B 8D       ADC  A,L
0551C 2F       CPL  
0551D 2F       CPL  
0551E 88       ADC  A,B
0551F 07       RLCA 
05520 07       RLCA 
05521 BF       CP   A
05522 BF       CP   A
05523 BF       CP   A
05524 BF       CP   A
05525 BF       CP   A
05526 89       ADC  A,C
05527 8A       ADC  A,D
05528 8A       ADC  A,D
05529 8E       ADC  A,(HL)
0552A 8A       ADC  A,D
0552B 8A       ADC  A,D
0552C 8E       ADC  A,(HL)
0552D 8A       ADC  A,D
0552E 8A       ADC  A,D
0552F 8E       ADC  A,(HL)
05530 8A       ADC  A,D
05531 8A       ADC  A,D
05532 8B       ADC  A,E
05533 07       RLCA 
05534 0606     LD   B,06
05536 0606     LD   B,06
05538 0606     LD   B,06
0553A 0606     LD   B,06
0553C 0606     LD   B,06
0553E 0606     LD   B,06
05540 0606     LD   B,06
05542 0606     LD   B,06
05544 0606     LD   B,06
05546 0606     LD   B,06
05548 1616     LD   D,16
0554A 1616     LD   D,16
0554C 1616     LD   D,16
0554E 1616     LD   D,16
05550 1616     LD   D,16
05552 1616     LD   D,16
05554 1616     LD   D,16
05556 1616     LD   D,16
05558 1616     LD   D,16
0555A 1616     LD   D,16
0555C 07       RLCA 
0555D 07       RLCA 
0555E 07       RLCA 
0555F 07       RLCA 
05560 07       RLCA 
05561 07       RLCA 
05562 84       ADD  A,H
05563 87       ADD  A,A
05564 87       ADD  A,A
05565 8C       ADC  A,H
05566 87       ADD  A,A
05567 87       ADD  A,A
05568 8C       ADC  A,H
05569 87       ADD  A,A
0556A 87       ADD  A,A
0556B 8C       ADC  A,H
0556C 87       ADD  A,A
0556D 87       ADD  A,A
0556E 86       ADD  A,(HL)
0556F 07       RLCA 
05570 07       RLCA 
05571 1E1E     LD   E,1E
05573 1E1E     LD   E,1E
05575 1E79     LD   E,79
05577 2F       CPL  
05578 2F       CPL  
05579 8D       ADC  A,L
0557A 2F       CPL  
0557B 2F       CPL  
0557C 8D       ADC  A,L
0557D 2F       CPL  
0557E 2F       CPL  
0557F 8D       ADC  A,L
05580 2F       CPL  
05581 2F       CPL  
05582 88       ADC  A,B
05583 07       RLCA 
05584 07       RLCA 
05585 BD       CP   L
05586 B2       OR   D
05587 2EBE     LD   L,BE
05589 2E79     LD   L,79
0558B 2F       CPL  
0558C 2F       CPL  
0558D 8D       ADC  A,L
0558E 2F       CPL  
0558F 2F       CPL  
05590 8D       ADC  A,L
05591 2F       CPL  
05592 2F       CPL  
05593 8D       ADC  A,L
05594 2F       CPL  
05595 2F       CPL  
05596 88       ADC  A,B
05597 07       RLCA 
05598 07       RLCA 
05599 BF       CP   A
0559A BF       CP   A
0559B BF       CP   A
0559C BF       CP   A
0559D BF       CP   A
0559E 89       ADC  A,C
0559F 8A       ADC  A,D
055A0 8A       ADC  A,D
055A1 8E       ADC  A,(HL)
055A2 8A       ADC  A,D
055A3 8A       ADC  A,D
055A4 8E       ADC  A,(HL)
055A5 8A       ADC  A,D
055A6 8A       ADC  A,D
055A7 8E       ADC  A,(HL)
055A8 8A       ADC  A,D
055A9 8A       ADC  A,D
055AA 8B       ADC  A,E
055AB 07       RLCA 
055AC 010101   LD   BC,0101
055AF 010101   LD   BC,0101
055B2 02       LD   (BC),A
055B3 02       LD   (BC),A
055B4 03       INC  BC
055B5 03       INC  BC
055B6 010101   LD   BC,0101
055B9 010202   LD   BC,0202
055BC 00       NOP  
055BD 00       NOP  
055BE 00       NOP  
055BF 00       NOP  
055C0 00       NOP  
055C1 00       NOP  
055C2 00       NOP  
055C3 00       NOP  
055C4 07       RLCA 
055C5 07       RLCA 
055C6 181F     JR   55E7
055C8 213E47   LD   HL,473E
055CB 7F       LD   A,A
055CC F2FE12   JP   P,12FE
055CF 1E12     LD   E,12
055D1 1E12     LD   E,12
055D3 1E7E     LD   E,7E
055D5 7E       LD   A,(HL)
055D6 FF       RST  38
055D7 83       ADD  A,E
055D8 FF       RST  38
055D9 81       ADD  A,C
055DA FF       RST  38
055DB FF       RST  38
055DC 00       NOP  
055DD 00       NOP  
055DE 00       NOP  
055DF 00       NOP  
055E0 00       NOP  
055E1 00       NOP  
055E2 00       NOP  
055E3 00       NOP  
055E4 07       RLCA 
055E5 07       RLCA 
055E6 181F     JR   5607
055E8 213E47   LD   HL,473E
055EB 7F       LD   A,A
055EC 04       INC  B
055ED FC02FE   CALL M,FE02
055F0 02       LD   (BC),A
055F1 FE07     CP   07
055F3 FD       DB   FD
055F4 07       RLCA 
055F5 FD       DB   FD
055F6 1F       RRA  
055F7 FF       RST  38
055F8 FF       RST  38
055F9 FF       RST  38
055FA FF       RST  38
055FB FA0000   LD   A,(0000)
055FE 00       NOP  
055FF 00       NOP  
05600 00       NOP  
05601 00       NOP  
05602 00       NOP  
05603 00       NOP  
05604 00       NOP  
05605 00       NOP  
05606 00       NOP  
05607 00       NOP  
05608 07       RLCA 
05609 07       RLCA 
0560A 181F     JR   562B
0560C FF       RST  38
0560D FF       RST  38
0560E 77       LD   (HL),A
0560F 11FF11   LD   DE,11FF
05612 FF       RST  38
05613 FF       RST  38
05614 DD       DB   DD
05615 44       LD   B,H
05616 FF       RST  38
05617 44       LD   B,H
05618 FF       RST  38
05619 FF       RST  38
0561A 77       LD   (HL),A
0561B 11FFFF   LD   DE,FFFF
0561E FF       RST  38
0561F FF       RST  38
05620 FF       RST  38
05621 FF       RST  38
05622 FF       RST  38
05623 FF       RST  38
05624 FF       RST  38
05625 FF       RST  38
05626 FF       RST  38
05627 FF       RST  38
05628 FF       RST  38
05629 FF       RST  38
0562A FF       RST  38
0562B FF       RST  38
0562C 00       NOP  
0562D 00       NOP  
0562E 03       INC  BC
0562F 03       INC  BC
05630 05       DEC  B
05631 04       INC  B
05632 03       INC  BC
05633 03       INC  BC
05634 00       NOP  
05635 00       NOP  
05636 1818     JR   5650
05638 2C       INC  L
05639 24       INC  H
0563A 1A       LD   A,(DE)
0563B 1A       LD   A,(DE)
0563C 08       EX   AF,AF
0563D 08       EX   AF,AF
0563E 40       LD   B,B
0563F 40       LD   B,B
05640 07       RLCA 
05641 07       RLCA 
05642 181F     JR   5663
05644 A0       AND  B
05645 BF       CP   A
05646 3B       DEC  SP
05647 3F       CCF  
05648 7C       LD   A,H
05649 44       LD   B,H
0564A 7C       LD   A,H
0564B 44       LD   B,H
0564C 1010     DJNZ 565E
0564E 02       LD   (BC),A
0564F 02       LD   (BC),A
05650 E0E0     OUT  (E0),A
05652 18F8     JR   564C
05654 05       DEC  B
05655 FD       DB   FD
05656 8C       ADC  A,H
05657 FC7848   CALL M,4878
0565A 6C       LD   L,H
0565B 74       LD   (HL),H
0565C 00       NOP  
0565D 00       NOP  
0565E 07       RLCA 
0565F 07       RLCA 
05660 181F     JR   5681
05662 203F     JR   NZ,56A3
05664 303F     JR   NC,56A5
05666 1F       RRA  
05667 1D       DEC  E
05668 3E22     LD   A,22
0566A 3E22     LD   A,22
0566C 80       ADD  A,B
0566D 80       ADD  A,B
0566E 80       ADD  A,B
0566F 80       ADD  A,B
05670 80       ADD  A,B
05671 80       ADD  A,B
05672 80       ADD  A,B
05673 80       ADD  A,B
05674 00       NOP  
05675 00       NOP  
05676 C0       RET  NZ
05677 C0       RET  NZ
05678 E0E0     OUT  (E0),A
0567A E0E0     OUT  (E0),A
0567C 00       NOP  
0567D 00       NOP  
0567E 7C       LD   A,H
0567F 7C       LD   A,H
05680 66       LD   H,(HL)
05681 66       LD   H,(HL)
05682 66       LD   H,(HL)
05683 66       LD   H,(HL)
05684 7C       LD   A,H
05685 7C       LD   A,H
05686 60       LD   H,B
05687 60       LD   H,B
05688 60       LD   H,B
05689 60       LD   H,B
0568A 00       NOP  
0568B 00       NOP  
0568C 00       NOP  
0568D 00       NOP  
0568E 3C       INC  A
0568F 3C       INC  A
05690 60       LD   H,B
05691 60       LD   H,B
05692 3C       INC  A
05693 3C       INC  A
05694 0E0E     LD   C,0E
05696 4E       LD   C,(HL)
05697 4E       LD   C,(HL)
05698 3C       INC  A
05699 3C       INC  A
0569A 00       NOP  
0569B 00       NOP  
0569C 07       RLCA 
0569D 07       RLCA 
0569E 1F       RRA  
0569F 183E     JR   56DF
056A1 207F     JR   NZ,5722
056A3 4F       LD   C,A
056A4 7F       LD   A,A
056A5 5F       LD   E,A
056A6 70       LD   (HL),B
056A7 70       LD   (HL),B
056A8 A2       AND  D
056A9 A2       AND  D
056AA B0       OR   B
056AB B0       OR   B
056AC 04       INC  B
056AD 04       INC  B
056AE 07       RLCA 
056AF 04       INC  B
056B0 04       INC  B
056B1 04       INC  B
056B2 04       INC  B
056B3 0D       DEC  C
056B4 04       INC  B
056B5 0D       DEC  C
056B6 04       INC  B
056B7 04       INC  B
056B8 04       INC  B
056B9 04       INC  B
056BA 03       INC  BC
056BB 02       LD   (BC),A
056BC 5F       LD   E,A
056BD 7F       LD   A,A
056BE 39       ADD  HL,SP
056BF 307B     JR   NC,573C
056C1 62       LD   H,D
056C2 FB       EI   
056C3 B2       OR   D
056C4 FF       RST  38
056C5 A0       AND  B
056C6 FF       RST  38
056C7 C27F54   JP   NZ,547F
056CA 7F       LD   A,A
056CB 5C       LD   E,H
056CC 00       NOP  
056CD 00       NOP  
056CE 00       NOP  
056CF 00       NOP  
056D0 00       NOP  
056D1 00       NOP  
056D2 03       INC  BC
056D3 03       INC  BC
056D4 04       INC  B
056D5 04       INC  B
056D6 08       EX   AF,AF
056D7 08       EX   AF,AF
056D8 09       ADD  HL,BC
056D9 09       ADD  HL,BC
056DA 04       INC  B
056DB 04       INC  B
056DC 5F       LD   E,A
056DD 7F       LD   A,A
056DE 39       ADD  HL,SP
056DF 307B     JR   NC,575C
056E1 62       LD   H,D
056E2 FB       EI   
056E3 B2       OR   D
056E4 FF       RST  38
056E5 A0       AND  B
056E6 FF       RST  38
056E7 C27F54   JP   NZ,547F
056EA 7F       LD   A,A
056EB 5C       LD   E,H
056EC 18F8     JR   56E6
056EE 04       INC  B
056EF FC02FE   CALL M,FE02
056F2 02       LD   (BC),A
056F3 FE07     CP   07
056F5 FD       DB   FD
056F6 07       RLCA 
056F7 FD       DB   FD
056F8 FF       RST  38
056F9 FF       RST  38
056FA FF       RST  38
056FB FA203F   LD   A,(3F20)
056FE 40       LD   B,B
056FF 7F       LD   A,A
05700 40       LD   B,B
05701 7F       LD   A,A
05702 E0BF     OUT  (BF),A
05704 E0BF     OUT  (BF),A
05706 F8       RET  M
05707 FF       RST  38
05708 7F       LD   A,A
05709 7F       LD   A,A
0570A 7F       LD   A,A
0570B 5F       LD   E,A
0570C FF       RST  38
0570D 11FFFF   LD   DE,FFFF
05710 DD       DB   DD
05711 44       LD   B,H
05712 FF       RST  38
05713 44       LD   B,H
05714 FF       RST  38
05715 FF       RST  38
05716 77       LD   (HL),A
05717 11FF11   LD   DE,11FF
0571A FF       RST  38
0571B FF       RST  38
0571C 00       NOP  
0571D 00       NOP  
0571E 00       NOP  
0571F 00       NOP  
05720 00       NOP  
05721 00       NOP  
05722 00       NOP  
05723 00       NOP  
05724 00       NOP  
05725 00       NOP  
05726 00       NOP  
05727 00       NOP  
05728 80       ADD  A,B
05729 80       ADD  A,B
0572A C0       RET  NZ
0572B 40       LD   B,B
0572C 00       NOP  
0572D 00       NOP  
0572E 00       NOP  
0572F 00       NOP  
05730 00       NOP  
05731 00       NOP  
05732 04       INC  B
05733 04       INC  B
05734 08       EX   AF,AF
05735 08       EX   AF,AF
05736 1C       INC  E
05737 14       INC  D
05738 14       INC  D
05739 14       INC  D
0573A 08       EX   AF,AF
0573B 08       EX   AF,AF
0573C 181F     JR   575D
0573E 203F     JR   NZ,577F
05740 40       LD   B,B
05741 7F       LD   A,A
05742 40       LD   B,B
05743 7F       LD   A,A
05744 E0BF     OUT  (BF),A
05746 E0BF     OUT  (BF),A
05748 7F       LD   A,A
05749 7F       LD   A,A
0574A 7F       LD   A,A
0574B 5F       LD   E,A
0574C DD       DB   DD
0574D 44       LD   B,H
0574E FF       RST  38
0574F 44       LD   B,H
05750 FF       RST  38
05751 FF       RST  38
05752 77       LD   (HL),A
05753 11FF11   LD   DE,11FF
05756 FF       RST  38
05757 FF       RST  38
05758 DD       DB   DD
05759 44       LD   B,H
0575A FF       RST  38
0575B 44       LD   B,H
0575C 00       NOP  
0575D 00       NOP  
0575E 00       NOP  
0575F 00       NOP  
05760 00       NOP  
05761 00       NOP  
05762 2020     JR   NZ,5784
05764 1010     DJNZ 5776
05766 3828     JR   C,5790
05768 2828     JR   Z,5792
0576A 90       SUB  B
0576B 90       SUB  B
0576C 00       NOP  
0576D 00       NOP  
0576E 46       LD   B,(HL)
0576F 46       LD   B,(HL)
05770 46       LD   B,(HL)
05771 46       LD   B,(HL)
05772 7E       LD   A,(HL)
05773 7E       LD   A,(HL)
05774 46       LD   B,(HL)
05775 46       LD   B,(HL)
05776 46       LD   B,(HL)
05777 46       LD   B,(HL)
05778 46       LD   B,(HL)
05779 46       LD   B,(HL)
0577A 00       NOP  
0577B 00       NOP  
0577C 00       NOP  
0577D 00       NOP  
0577E 7E       LD   A,(HL)
0577F 7E       LD   A,(HL)
05780 1818     JR   579A
05782 1818     JR   579C
05784 1818     JR   579E
05786 1818     JR   57A0
05788 1818     JR   57A2
0578A 00       NOP  
0578B 00       NOP  
0578C FF       RST  38
0578D FF       RST  38
0578E FF       RST  38
0578F FF       RST  38
05790 FF       RST  38
05791 FF       RST  38
05792 FF       RST  38
05793 FF       RST  38
05794 FF       RST  38
05795 FF       RST  38
05796 FF       RST  38
05797 FF       RST  38
05798 00       NOP  
05799 00       NOP  
0579A 00       NOP  
0579B EEB4     XOR  B4
0579D B4       OR   H
0579E 64       LD   H,H
0579F 64       LD   H,H
057A0 3C       INC  A
057A1 3C       INC  A
057A2 2E2E     LD   L,2E
057A4 27       DAA  
057A5 27       DAA  
057A6 70       LD   (HL),B
057A7 70       LD   (HL),B
057A8 FC9CF7   CALL M,F79C
057AB 9F       SBC  A,A
057AC 00       NOP  
057AD 00       NOP  
057AE 00       NOP  
057AF 00       NOP  
057B0 00       NOP  
057B1 00       NOP  
057B2 010101   LD   BC,0101
057B5 010202   LD   BC,0202
057B8 02       LD   (BC),A
057B9 02       LD   (BC),A
057BA 02       LD   (BC),A
057BB 02       LD   (BC),A
057BC 3F       CCF  
057BD 2E7F     LD   L,7F
057BF 63       LD   H,E
057C0 FF       RST  38
057C1 98       SBC  A,B
057C2 F7       RST  30
057C3 1F       RRA  
057C4 F7       RST  30
057C5 1C       INC  E
057C6 F7       RST  30
057C7 D7       RST  10
057C8 34       INC  (HL)
057C9 3F       CCF  
057CA AC       XOR  H
057CB BF       CP   A
057CC 03       INC  BC
057CD 03       INC  BC
057CE 010101   LD   BC,0101
057D1 010000   LD   BC,0000
057D4 00       NOP  
057D5 00       NOP  
057D6 0606     LD   B,06
057D8 05       DEC  B
057D9 05       DEC  B
057DA 07       RLCA 
057DB 07       RLCA 
057DC FF       RST  38
057DD AE       XOR  (HL)
057DE FF       RST  38
057DF 23       INC  HL
057E0 FF       RST  38
057E1 18F7     JR   57DA
057E3 9F       SBC  A,A
057E4 F7       RST  30
057E5 9C       SBC  A,H
057E6 77       LD   (HL),A
057E7 57       LD   D,A
057E8 34       INC  (HL)
057E9 3F       CCF  
057EA 6C       LD   L,H
057EB 7F       LD   A,A
057EC 00       NOP  
057ED 00       NOP  
057EE 00       NOP  
057EF 00       NOP  
057F0 00       NOP  
057F1 00       NOP  
057F2 010101   LD   BC,0101
057F5 010202   LD   BC,0202
057F8 02       LD   (BC),A
057F9 02       LD   (BC),A
057FA 02       LD   (BC),A
057FB 02       LD   (BC),A
057FC 3F       CCF  
057FD 2F       CPL  
057FE 7F       LD   A,A
057FF 7C       LD   A,H
05800 F7       RST  30
05801 9C       SBC  A,H
05802 F3       DI   
05803 1F       RRA  
05804 F01F     IN   A,(1F)
05806 F0DF     IN   A,(DF)
05808 303F     JR   NC,5849
0580A A0       AND  B
0580B BF       CP   A
0580C FF       RST  38
0580D F4FF3E   CALL P,3EFF
05810 EF       RST  28
05811 38CF     JR   C,57E2
05813 F8       RET  M
05814 0F       RRCA 
05815 FB       EI   
05816 0EFA     LD   C,FA
05818 0C       INC  C
05819 FC04FC   CALL M,FC04
0581C E020     OUT  (20),A
0581E E020     OUT  (20),A
05820 E020     OUT  (20),A
05822 C0       RET  NZ
05823 40       LD   B,B
05824 80       ADD  A,B
05825 80       ADD  A,B
05826 00       NOP  
05827 00       NOP  
05828 00       NOP  
05829 00       NOP  
0582A 00       NOP  
0582B 00       NOP  
0582C 00       NOP  
0582D 00       NOP  
0582E 00       NOP  
0582F 00       NOP  
05830 00       NOP  
05831 00       NOP  
05832 00       NOP  
05833 00       NOP  
05834 010101   LD   BC,0101
05837 010202   LD   BC,0202
0583A 02       LD   (BC),A
0583B 02       LD   (BC),A
0583C 3F       CCF  
0583D 2F       CPL  
0583E 3F       CCF  
0583F 3C       INC  A
05840 77       LD   (HL),A
05841 5C       LD   E,H
05842 F3       DI   
05843 9F       SBC  A,A
05844 F01F     IN   A,(1F)
05846 F01F     IN   A,(1F)
05848 F0FF     IN   A,(FF)
0584A 203F     JR   NZ,588B
0584C FF       RST  38
0584D F4FF3E   CALL P,3EFF
05850 EF       RST  28
05851 38CF     JR   C,5822
05853 F9       LD   SP,HL
05854 0EFA     LD   C,FA
05856 0EFA     LD   C,FA
05858 0C       INC  C
05859 FC04FC   CALL M,FC04
0585C C0       RET  NZ
0585D 40       LD   B,B
0585E C0       RET  NZ
0585F 40       LD   B,B
05860 C0       RET  NZ
05861 40       LD   B,B
05862 80       ADD  A,B
05863 80       ADD  A,B
05864 00       NOP  
05865 00       NOP  
05866 00       NOP  
05867 00       NOP  
05868 00       NOP  
05869 00       NOP  
0586A 00       NOP  
0586B 00       NOP  
0586C F7       RST  30
0586D 1C       INC  E
0586E F7       RST  30
0586F 34       INC  (HL)
05870 F7       RST  30
05871 BF       CP   A
05872 6C       LD   L,H
05873 7F       LD   A,A
05874 101F     DJNZ 5895
05876 50       LD   D,B
05877 5F       LD   E,A
05878 32       HL-- (HL),A
05879 3F       CCF  
0587A F1       POP  AF
0587B FF       RST  38
0587C 00       NOP  
0587D 00       NOP  
0587E 46       LD   B,(HL)
0587F 46       LD   B,(HL)
05880 46       LD   B,(HL)
05881 46       LD   B,(HL)
05882 56       LD   D,(HL)
05883 56       LD   D,(HL)
05884 7E       LD   A,(HL)
05885 7E       LD   A,(HL)
05886 6E       LD   L,(HL)
05887 6E       LD   L,(HL)
05888 46       LD   B,(HL)
05889 46       LD   B,(HL)
0588A 00       NOP  
0588B 00       NOP  
0588C 00       NOP  
0588D 00       NOP  
0588E 3C       INC  A
0588F 3C       INC  A
05890 1818     JR   58AA
05892 1818     JR   58AC
05894 1818     JR   58AE
05896 1818     JR   58B0
05898 3C       INC  A
05899 3C       INC  A
0589A 00       NOP  
0589B 00       NOP  
0589C 00       NOP  
0589D 00       NOP  
0589E 00       NOP  
0589F 00       NOP  
058A0 00       NOP  
058A1 00       NOP  
058A2 00       NOP  
058A3 00       NOP  
058A4 00       NOP  
058A5 00       NOP  
058A6 00       NOP  
058A7 00       NOP  
058A8 00       NOP  
058A9 00       NOP  
058AA 00       NOP  
058AB 00       NOP  
058AC 02       LD   (BC),A
058AD 02       LD   (BC),A
058AE 010100   LD   BC,0001
058B1 00       NOP  
058B2 00       NOP  
058B3 00       NOP  
058B4 00       NOP  
058B5 00       NOP  
058B6 00       NOP  
058B7 00       NOP  
058B8 00       NOP  
058B9 00       NOP  
058BA 00       NOP  
058BB 00       NOP  
058BC 40       LD   B,B
058BD 7F       LD   A,A
058BE C0       RET  NZ
058BF FF       RST  38
058C0 203F     JR   NZ,5901
058C2 22       HL++ (HL),A
058C3 3F       CCF  
058C4 111F72   LD   DE,721F
058C7 7E       LD   A,(HL)
058C8 BF       CP   A
058C9 BF       CP   A
058CA FF       RST  38
058CB FF       RST  38
058CC 07       RLCA 
058CD 07       RLCA 
058CE 0607     LD   B,07
058D0 0607     LD   B,07
058D2 0607     LD   B,07
058D4 07       RLCA 
058D5 07       RLCA 
058D6 00       NOP  
058D7 00       NOP  
058D8 00       NOP  
058D9 00       NOP  
058DA 00       NOP  
058DB 00       NOP  
058DC C0       RET  NZ
058DD FF       RST  38
058DE 00       NOP  
058DF FF       RST  38
058E0 00       NOP  
058E1 FF       RST  38
058E2 02       LD   (BC),A
058E3 FF       RST  38
058E4 FF       RST  38
058E5 FF       RST  38
058E6 00       NOP  
058E7 00       NOP  
058E8 00       NOP  
058E9 00       NOP  
058EA 00       NOP  
058EB 00       NOP  
058EC 02       LD   (BC),A
058ED 02       LD   (BC),A
058EE 010100   LD   BC,0001
058F1 00       NOP  
058F2 00       NOP  
058F3 00       NOP  
058F4 00       NOP  
058F5 00       NOP  
058F6 00       NOP  
058F7 00       NOP  
058F8 00       NOP  
058F9 00       NOP  
058FA 00       NOP  
058FB 00       NOP  
058FC 40       LD   B,B
058FD 7F       LD   A,A
058FE C0       RET  NZ
058FF FF       RST  38
05900 203F     JR   NZ,5941
05902 203F     JR   NZ,5943
05904 111F72   LD   DE,721F
05907 7E       LD   A,(HL)
05908 FF       RST  38
05909 FF       RST  38
0590A FF       RST  38
0590B FF       RST  38
0590C 02       LD   (BC),A
0590D FE02     CP   02
0590F FE04     CP   04
05911 FC04FC   CALL M,FC04
05914 88       ADC  A,B
05915 F8       RET  M
05916 4E       LD   C,(HL)
05917 7E       LD   A,(HL)
05918 FF       RST  38
05919 FF       RST  38
0591A FF       RST  38
0591B FF       RST  38
0591C 00       NOP  
0591D 00       NOP  
0591E 00       NOP  
0591F 00       NOP  
05920 80       ADD  A,B
05921 80       ADD  A,B
05922 40       LD   B,B
05923 40       LD   B,B
05924 00       NOP  
05925 00       NOP  
05926 00       NOP  
05927 00       NOP  
05928 00       NOP  
05929 00       NOP  
0592A 07       RLCA 
0592B 07       RLCA 
0592C 00       NOP  
0592D 00       NOP  
0592E 00       NOP  
0592F 00       NOP  
05930 FF       RST  38
05931 00       NOP  
05932 FD       DB   FD
05933 02       LD   (BC),A
05934 CD3209   CALL 0932
05937 F608     OR   08
05939 F7       RST  30
0593A 00       NOP  
0593B FF       RST  38
0593C 00       NOP  
0593D 00       NOP  
0593E 00       NOP  
0593F 00       NOP  
05940 FF       RST  38
05941 00       NOP  
05942 FF       RST  38
05943 00       NOP  
05944 FF       RST  38
05945 00       NOP  
05946 FC03CC   CALL M,CC03
05949 33       INC  SP
0594A 08       EX   AF,AF
0594B F7       RST  30
0594C 7C       LD   A,H
0594D 44       LD   B,H
0594E 3F       CCF  
0594F 3F       CCF  
05950 101F     DJNZ 5971
05952 101F     DJNZ 5973
05954 12       LD   (DE),A
05955 1F       RRA  
05956 19       ADD  HL,DE
05957 1F       RRA  
05958 3F       CCF  
05959 3F       CCF  
0595A 3E3E     LD   A,3E
0595C CEF2     ADC  A,F2
0595E 8E       ADC  A,(HL)
0595F DA09F9   JP   C,F909
05962 09       ADD  HL,BC
05963 F9       LD   SP,HL
05964 4E       LD   C,(HL)
05965 FE98     CP   98
05967 F8       RET  M
05968 FCFC7C   CALL M,7CFC
0596B 7C       LD   A,H
0596C 07       RLCA 
0596D 07       RLCA 
0596E 1F       RRA  
0596F 183E     JR   59AF
05971 207F     JR   NZ,59F2
05973 4F       LD   C,A
05974 7F       LD   A,A
05975 5F       LD   E,A
05976 70       LD   (HL),B
05977 70       LD   (HL),B
05978 A2       AND  D
05979 A2       AND  D
0597A B0       OR   B
0597B B0       OR   B
0597C 00       NOP  
0597D 00       NOP  
0597E 46       LD   B,(HL)
0597F 46       LD   B,(HL)
05980 66       LD   H,(HL)
05981 66       LD   H,(HL)
05982 76       HALT 
05983 76       HALT 
05984 5E       LD   E,(HL)
05985 5E       LD   E,(HL)
05986 4E       LD   C,(HL)
05987 4E       LD   C,(HL)
05988 46       LD   B,(HL)
05989 46       LD   B,(HL)
0598A 00       NOP  
0598B 00       NOP  
0598C 00       NOP  
0598D 00       NOP  
0598E 1818     JR   59A8
05990 1818     JR   59AA
05992 1818     JR   59AC
05994 1818     JR   59AE
05996 00       NOP  
05997 00       NOP  
05998 1818     JR   59B2
0599A 00       NOP  
0599B 00       NOP  
0599C 12       LD   (DE),A
0599D 1E12     LD   E,12
0599F 1E12     LD   E,12
059A1 1E12     LD   E,12
059A3 1E7E     LD   E,7E
059A5 7E       LD   A,(HL)
059A6 BF       CP   A
059A7 83       ADD  A,E
059A8 FF       RST  38
059A9 81       ADD  A,C
059AA FF       RST  38
059AB FF       RST  38
059AC 00       NOP  
059AD 00       NOP  
059AE E0E0     OUT  (E0),A
059B0 18F8     JR   59AA
059B2 04       INC  B
059B3 FC0CFC   CALL M,FC0C
059B6 F8       RET  M
059B7 C8       RET  Z
059B8 2C       INC  L
059B9 34       INC  (HL)
059BA 2E32     LD   L,32
059BC 00       NOP  
059BD 00       NOP  
059BE 46       LD   B,(HL)
059BF 46       LD   B,(HL)
059C0 46       LD   B,(HL)
059C1 46       LD   B,(HL)
059C2 46       LD   B,(HL)
059C3 46       LD   B,(HL)
059C4 46       LD   B,(HL)
059C5 46       LD   B,(HL)
059C6 2C       INC  L
059C7 2C       INC  L
059C8 1818     JR   59E2
059CA 00       NOP  
059CB 00       NOP  
059CC 00       NOP  
059CD 00       NOP  
059CE 3636     LD   (HL),36
059D0 5F       LD   E,A
059D1 49       LD   C,C
059D2 5F       LD   E,A
059D3 41       LD   B,C
059D4 7F       LD   A,A
059D5 41       LD   B,C
059D6 3E22     LD   A,22
059D8 1C       INC  E
059D9 14       INC  D
059DA 08       EX   AF,AF
059DB 08       EX   AF,AF
059DC FE02     CP   02
059DE FD       DB   FD
059DF 05       DEC  B
059E0 FD       DB   FD
059E1 05       DEC  B
059E2 FF       RST  38
059E3 1F       RRA  
059E4 FF       RST  38
059E5 FCFFFE   CALL M,FEFF
059E8 EF       RST  28
059E9 38EF     JR   C,59DA
059EB 39       ADD  HL,SP
059EC 00       NOP  
059ED 04       INC  B
059EE 00       NOP  
059EF 04       INC  B
059F0 00       NOP  
059F1 04       INC  B
059F2 010501   LD   BC,0105
059F5 05       DEC  B
059F6 03       INC  BC
059F7 07       RLCA 
059F8 0606     LD   B,06
059FA 0C       INC  C
059FB 0C       INC  C
059FC CAC0C8   JP   Z,C8C0
059FF C0       RET  NZ
05A00 CAC088   JP   Z,88C0
05A03 80       ADD  A,B
05A04 88       ADC  A,B
05A05 87       ADD  A,A
05A06 08       EX   AF,AF
05A07 00       NOP  
05A08 0A       LD   A,(BC)
05A09 00       NOP  
05A0A 08       EX   AF,AF
05A0B 00       NOP  
05A0C 6F       LD   L,A
05A0D 13       INC  DE
05A0E 2F       CPL  
05A0F 13       INC  DE
05A10 6F       LD   L,A
05A11 13       INC  DE
05A12 2F       CPL  
05A13 112DD1   LD   DE,D12D
05A16 2C       INC  L
05A17 106C     DJNZ 5A85
05A19 102C     DJNZ 5A47
05A1B 10A0     DJNZ 59BD
05A1D 20A0     JR   NZ,59BF
05A1F 20A0     JR   NZ,59C1
05A21 20A0     JR   NZ,59C3
05A23 A0       AND  B
05A24 A0       AND  B
05A25 A0       AND  B
05A26 E0E0     OUT  (E0),A
05A28 60       LD   H,B
05A29 60       LD   H,B
05A2A 3030     JR   NC,5A5C
05A2C 08       EX   AF,AF
05A2D A8       XOR  B
05A2E 08       EX   AF,AF
05A2F 1808     JR   5A39
05A31 A8       XOR  B
05A32 08       EX   AF,AF
05A33 48       LD   C,B
05A34 08       EX   AF,AF
05A35 A8       XOR  B
05A36 08       EX   AF,AF
05A37 1808     JR   5A41
05A39 A8       XOR  B
05A3A 08       EX   AF,AF
05A3B 48       LD   C,B
05A3C 00       NOP  
05A3D FE00     CP   00
05A3F FF       RST  38
05A40 7F       LD   A,A
05A41 FF       RST  38
05A42 7F       LD   A,A
05A43 C1       POP  BC
05A44 7F       LD   A,A
05A45 C1       POP  BC
05A46 7F       LD   A,A
05A47 EB       EX   DE,HL
05A48 7F       LD   A,A
05A49 C1       POP  BC
05A4A 01FF00   LD   BC,00FF
05A4D 00       NOP  
05A4E 00       NOP  
05A4F 00       NOP  
05A50 00       NOP  
05A51 00       NOP  
05A52 FF       RST  38
05A53 00       NOP  
05A54 00       NOP  
05A55 00       NOP  
05A56 FF       RST  38
05A57 00       NOP  
05A58 00       NOP  
05A59 00       NOP  
05A5A FF       RST  38
05A5B 00       NOP  
05A5C 1010     DJNZ 5A6E
05A5E 0B       DEC  BC
05A5F 0B       DEC  BC
05A60 07       RLCA 
05A61 04       INC  B
05A62 07       RLCA 
05A63 04       INC  B
05A64 03       INC  BC
05A65 02       LD   (BC),A
05A66 010100   LD   BC,0001
05A69 00       NOP  
05A6A 00       NOP  
05A6B 00       NOP  
05A6C B4       OR   H
05A6D B4       OR   H
05A6E E4E4BC   CALL PO,BCE4
05A71 BC       CP   H
05A72 EE6E     XOR  6E
05A74 E7       RST  20
05A75 27       DAA  
05A76 F010     IN   A,(10)
05A78 FC9C77   CALL M,779C
05A7B 5F       LD   E,A
05A7C 00       NOP  
05A7D 00       NOP  
05A7E 00       NOP  
05A7F 00       NOP  
05A80 07       RLCA 
05A81 07       RLCA 
05A82 1F       RRA  
05A83 183F     JR   5AC4
05A85 207F     JR   NZ,5B06
05A87 40       LD   B,B
05A88 7F       LD   A,A
05A89 40       LD   B,B
05A8A 7F       LD   A,A
05A8B 40       LD   B,B
05A8C 00       NOP  
05A8D 00       NOP  
05A8E 00       NOP  
05A8F 00       NOP  
05A90 00       NOP  
05A91 00       NOP  
05A92 80       ADD  A,B
05A93 80       ADD  A,B
05A94 C0       RET  NZ
05A95 40       LD   B,B
05A96 C0       RET  NZ
05A97 40       LD   B,B
05A98 C0       RET  NZ
05A99 40       LD   B,B
05A9A 80       ADD  A,B
05A9B 80       ADD  A,B
05A9C 02       LD   (BC),A
05A9D 03       INC  BC
05A9E 05       DEC  B
05A9F 04       INC  B
05AA0 07       RLCA 
05AA1 04       INC  B
05AA2 04       INC  B
05AA3 07       RLCA 
05AA4 04       INC  B
05AA5 07       RLCA 
05AA6 04       INC  B
05AA7 0604     LD   B,04
05AA9 05       DEC  B
05AAA 04       INC  B
05AAB 07       RLCA 
05AAC CEFA     ADC  A,FA
05AAE 0C       INC  C
05AAF FC08F8   CALL M,F808
05AB2 08       EX   AF,AF
05AB3 F8       RET  M
05AB4 08       EX   AF,AF
05AB5 F8       RET  M
05AB6 08       EX   AF,AF
05AB7 F8       RET  M
05AB8 08       EX   AF,AF
05AB9 F8       RET  M
05ABA 88       ADC  A,B
05ABB F8       RET  M
05ABC 00       NOP  
05ABD 3C       INC  A
05ABE 00       NOP  
05ABF 7E       LD   A,(HL)
05AC0 1067     DJNZ 5B29
05AC2 24       INC  H
05AC3 C324C3   JP   C324
05AC6 24       INC  H
05AC7 C324C3   JP   C324
05ACA 34       INC  (HL)
05ACB C3003C   JP   3C00
05ACE 00       NOP  
05ACF 66       LD   H,(HL)
05AD0 00       NOP  
05AD1 E7       RST  20
05AD2 2C       INC  L
05AD3 C33CC3   JP   C33C
05AD6 3C       INC  A
05AD7 C33C42   JP   423C
05ADA 1866     JR   5B42
05ADC 00       NOP  
05ADD 00       NOP  
05ADE 00       NOP  
05ADF 00       NOP  
05AE0 00       NOP  
05AE1 00       NOP  
05AE2 2020     JR   NZ,5B04
05AE4 90       SUB  B
05AE5 90       SUB  B
05AE6 B8       CP   B
05AE7 A8       XOR  B
05AE8 A8       XOR  B
05AE9 A8       XOR  B
05AEA 1010     DJNZ 5AFC
05AEC 0A       LD   A,(BC)
05AED 1006     DJNZ 5AF5
05AEF 08       EX   AF,AF
05AF0 02       LD   (BC),A
05AF1 04       INC  B
05AF2 00       NOP  
05AF3 04       INC  B
05AF4 00       NOP  
05AF5 04       INC  B
05AF6 00       NOP  
05AF7 04       INC  B
05AF8 00       NOP  
05AF9 04       INC  B
05AFA 00       NOP  
05AFB 04       INC  B
05AFC 17       RLA  
05AFD 50       LD   D,B
05AFE 2860     JR   Z,5B60
05B00 2A       HL++ A,(HL)
05B01 60       LD   H,B
05B02 2860     JR   Z,5B64
05B04 2A       HL++ A,(HL)
05B05 60       LD   H,B
05B06 2860     JR   Z,5B68
05B08 2867     JR   Z,5B71
05B0A 68       LD   L,B
05B0B 60       LD   H,B
05B0C DE2B     SBC  A,2B
05B0E 2E17     LD   L,17
05B10 6E       LD   L,(HL)
05B11 17       RLA  
05B12 2E17     LD   L,17
05B14 6E       LD   L,(HL)
05B15 17       RLA  
05B16 2E17     LD   L,17
05B18 2ED7     LD   L,D7
05B1A 2E17     LD   L,17
05B1C 98       SBC  A,B
05B1D 48       LD   C,B
05B1E B0       OR   B
05B1F 50       LD   D,B
05B20 A0       AND  B
05B21 60       LD   H,B
05B22 A0       AND  B
05B23 20A0     JR   NZ,5AC5
05B25 20A0     JR   NZ,5AC7
05B27 20A0     JR   NZ,5AC9
05B29 20A0     JR   NZ,5ACB
05B2B 2008     JR   NZ,5B35
05B2D A8       XOR  B
05B2E 08       EX   AF,AF
05B2F 1808     JR   5B39
05B31 A8       XOR  B
05B32 08       EX   AF,AF
05B33 48       LD   C,B
05B34 08       EX   AF,AF
05B35 B8       CP   B
05B36 08       EX   AF,AF
05B37 3F       CCF  
05B38 08       EX   AF,AF
05B39 BF       CP   A
05B3A 09       ADD  HL,BC
05B3B 7F       LD   A,A
05B3C 00       NOP  
05B3D 7F       LD   A,A
05B3E 00       NOP  
05B3F FF       RST  38
05B40 7E       LD   A,(HL)
05B41 FF       RST  38
05B42 7E       LD   A,(HL)
05B43 C1       POP  BC
05B44 7E       LD   A,(HL)
05B45 C1       POP  BC
05B46 7E       LD   A,(HL)
05B47 EB       EX   DE,HL
05B48 7E       LD   A,(HL)
05B49 C1       POP  BC
05B4A 00       NOP  
05B4B FF       RST  38
05B4C 00       NOP  
05B4D 00       NOP  
05B4E 00       NOP  
05B4F 00       NOP  
05B50 FF       RST  38
05B51 00       NOP  
05B52 FF       RST  38
05B53 00       NOP  
05B54 FF       RST  38
05B55 00       NOP  
05B56 FF       RST  38
05B57 00       NOP  
05B58 FF       RST  38
05B59 00       NOP  
05B5A FF       RST  38
05B5B 00       NOP  
05B5C 00       NOP  
05B5D 00       NOP  
05B5E 3838     JR   C,5B98
05B60 34       INC  (HL)
05B61 24       INC  H
05B62 3C       INC  A
05B63 24       INC  H
05B64 3F       CCF  
05B65 27       DAA  
05B66 3C       INC  A
05B67 27       DAA  
05B68 3C       INC  A
05B69 27       DAA  
05B6A 3F       CCF  
05B6B 2F       CPL  
05B6C 37       SCF  
05B6D 3C       INC  A
05B6E 17       RLA  
05B6F 14       INC  D
05B70 17       RLA  
05B71 1F       RRA  
05B72 1C       INC  E
05B73 1F       RRA  
05B74 F0FF     IN   A,(FF)
05B76 00       NOP  
05B77 FF       RST  38
05B78 02       LD   (BC),A
05B79 FF       RST  38
05B7A FF       RST  38
05B7B FF       RST  38
05B7C BF       CP   A
05B7D A0       AND  B
05B7E BF       CP   A
05B7F A0       AND  B
05B80 BF       CP   A
05B81 B8       CP   B
05B82 7F       LD   A,A
05B83 7F       LD   A,A
05B84 2F       CPL  
05B85 2F       CPL  
05B86 7F       LD   A,A
05B87 7F       LD   A,A
05B88 F7       RST  30
05B89 9C       SBC  A,H
05B8A F7       RST  30
05B8B 9C       SBC  A,H
05B8C FD       DB   FD
05B8D 05       DEC  B
05B8E FD       DB   FD
05B8F 05       DEC  B
05B90 FD       DB   FD
05B91 1D       DEC  E
05B92 FF       RST  38
05B93 FF       RST  38
05B94 F7       RST  30
05B95 F4FFFE   CALL P,FEFF
05B98 EF       RST  28
05B99 38EF     JR   C,5B8A
05B9B 3801     JR   C,5B9E
05B9D 010101   LD   BC,0101
05BA0 010102   LD   BC,0201
05BA3 02       LD   (BC),A
05BA4 02       LD   (BC),A
05BA5 02       LD   (BC),A
05BA6 02       LD   (BC),A
05BA7 02       LD   (BC),A
05BA8 010100   LD   BC,0001
05BAB 00       NOP  
05BAC 02       LD   (BC),A
05BAD 02       LD   (BC),A
05BAE 02       LD   (BC),A
05BAF 02       LD   (BC),A
05BB0 010100   LD   BC,0001
05BB3 00       NOP  
05BB4 00       NOP  
05BB5 00       NOP  
05BB6 00       NOP  
05BB7 00       NOP  
05BB8 00       NOP  
05BB9 00       NOP  
05BBA 00       NOP  
05BBB 00       NOP  
05BBC 34       INC  (HL)
05BBD C33C43   JP   433C
05BC0 3C       INC  A
05BC1 43       LD   B,E
05BC2 1866     JR   5C2A
05BC4 1866     JR   5C2C
05BC6 08       EX   AF,AF
05BC7 76       HALT 
05BC8 08       EX   AF,AF
05BC9 3608     LD   (HL),08
05BCB 34       INC  (HL)
05BCC 1826     JR   5BF4
05BCE 1824     JR   5BF4
05BD0 1824     JR   5BF6
05BD2 08       EX   AF,AF
05BD3 34       INC  (HL)
05BD4 00       NOP  
05BD5 1800     JR   5BD7
05BD7 08       EX   AF,AF
05BD8 00       NOP  
05BD9 08       EX   AF,AF
05BDA 00       NOP  
05BDB 08       EX   AF,AF
05BDC 00       NOP  
05BDD 00       NOP  
05BDE 0F       RRCA 
05BDF 0F       RRCA 
05BE0 1F       RRA  
05BE1 103C     DJNZ 5C1F
05BE3 2070     JR   NZ,5C55
05BE5 40       LD   B,B
05BE6 73       LD   (HL),E
05BE7 43       LD   B,E
05BE8 67       LD   H,A
05BE9 4C       LD   C,H
05BEA 3F       CCF  
05BEB 2800     JR   Z,5BED
05BED 00       NOP  
05BEE 80       ADD  A,B
05BEF 80       ADD  A,B
05BF0 DC5C3E   CALL C,3E5C
05BF3 22       HL++ (HL),A
05BF4 32       HL-- (HL),A
05BF5 E2       OUT  (C),A
05BF6 B1       OR   C
05BF7 C1       POP  BC
05BF8 C34B27   JP   274B
05BFB 7C       LD   A,H
05BFC 00       NOP  
05BFD 00       NOP  
05BFE 00       NOP  
05BFF 00       NOP  
05C00 00       NOP  
05C01 00       NOP  
05C02 00       NOP  
05C03 00       NOP  
05C04 E0E0     OUT  (E0),A
05C06 D0       RET  NC
05C07 10D0     DJNZ 5BD9
05C09 D0       RET  NC
05C0A E020     OUT  (20),A
05C0C 5C       LD   E,H
05C0D 50       LD   D,B
05C0E 7C       LD   A,H
05C0F 50       LD   D,B
05C10 39       ADD  HL,SP
05C11 307C     JR   NC,5C8F
05C13 4C       LD   C,H
05C14 EE82     XOR  82
05C16 C0       RET  NZ
05C17 84       ADD  A,H
05C18 60       LD   H,B
05C19 43       LD   B,E
05C1A 31261F   LD   SP,1F26
05C1D 3C       INC  A
05C1E BB       CP   E
05C1F 62       LD   H,D
05C20 F1       POP  AF
05C21 41       LD   B,C
05C22 61       LD   H,C
05C23 41       LD   B,C
05C24 C303F7   JP   F703
05C27 04       INC  B
05C28 EE08     XOR  08
05C2A 9C       SBC  A,H
05C2B 60       LD   H,B
05C2C 90       SUB  B
05C2D 1008     DJNZ 5C37
05C2F 08       EX   AF,AF
05C30 1818     JR   5C4A
05C32 3C       INC  A
05C33 64       LD   H,H
05C34 F2C2E3   JP   P,E3C2
05C37 60       LD   H,B
05C38 39       ADD  HL,SP
05C39 20F2     JR   NZ,5C2D
05C3B 00       NOP  
05C3C 00       NOP  
05C3D FF       RST  38
05C3E 00       NOP  
05C3F FF       RST  38
05C40 FF       RST  38
05C41 FF       RST  38
05C42 FF       RST  38
05C43 00       NOP  
05C44 FF       RST  38
05C45 00       NOP  
05C46 FF       RST  38
05C47 00       NOP  
05C48 00       NOP  
05C49 FF       RST  38
05C4A 00       NOP  
05C4B FF       RST  38
05C4C FF       RST  38
05C4D FF       RST  38
05C4E FF       RST  38
05C4F 00       NOP  
05C50 FF       RST  38
05C51 FF       RST  38
05C52 00       NOP  
05C53 FF       RST  38
05C54 00       NOP  
05C55 FF       RST  38
05C56 FF       RST  38
05C57 FF       RST  38
05C58 FF       RST  38
05C59 FF       RST  38
05C5A FF       RST  38
05C5B FF       RST  38
05C5C 3838     JR   C,5C96
05C5E 00       NOP  
05C5F 00       NOP  
05C60 00       NOP  
05C61 00       NOP  
05C62 00       NOP  
05C63 00       NOP  
05C64 00       NOP  
05C65 00       NOP  
05C66 00       NOP  
05C67 00       NOP  
05C68 00       NOP  
05C69 00       NOP  
05C6A 00       NOP  
05C6B 00       NOP  
05C6C 00       NOP  
05C6D 00       NOP  
05C6E 00       NOP  
05C6F 00       NOP  
05C70 00       NOP  
05C71 00       NOP  
05C72 00       NOP  
05C73 00       NOP  
05C74 0E0E     LD   C,0E
05C76 111111   LD   DE,1111
05C79 111212   LD   DE,1212
05C7C F3       DI   
05C7D 1F       RRA  
05C7E F03F     IN   A,(3F)
05C80 F0BF     IN   A,(BF)
05C82 60       LD   H,B
05C83 7F       LD   A,A
05C84 101F     DJNZ 5CA5
05C86 50       LD   D,B
05C87 5F       LD   E,A
05C88 303F     JR   NC,5CC9
05C8A F1       POP  AF
05C8B FF       RST  38
05C8C CF       RST  08
05C8D FB       EI   
05C8E 0C       INC  C
05C8F FC08F8   CALL M,F808
05C92 08       EX   AF,AF
05C93 F8       RET  M
05C94 08       EX   AF,AF
05C95 F8       RET  M
05C96 08       EX   AF,AF
05C97 F8       RET  M
05C98 08       EX   AF,AF
05C99 F8       RET  M
05C9A 88       ADC  A,B
05C9B F8       RET  M
05C9C 4E       LD   C,(HL)
05C9D 7A       LD   A,D
05C9E C9       RET  
05C9F D9       RETI 
05CA0 09       ADD  HL,BC
05CA1 F9       LD   SP,HL
05CA2 0EFE     LD   C,FE
05CA4 48       LD   C,B
05CA5 F8       RET  M
05CA6 98       SBC  A,B
05CA7 F8       RET  M
05CA8 FCFC7C   CALL M,7CFC
05CAB 7C       LD   A,H
05CAC A0       AND  B
05CAD BF       CP   A
05CAE 40       LD   B,B
05CAF 7F       LD   A,A
05CB0 E0FF     OUT  (FF),A
05CB2 203F     JR   NZ,5CF3
05CB4 111F72   LD   DE,721F
05CB7 7E       LD   A,(HL)
05CB8 FF       RST  38
05CB9 FF       RST  38
05CBA FF       RST  38
05CBB FF       RST  38
05CBC 00       NOP  
05CBD 3C       INC  A
05CBE 00       NOP  
05CBF 1C       INC  E
05CC0 00       NOP  
05CC1 1C       INC  E
05CC2 00       NOP  
05CC3 1800     JR   5CC5
05CC5 08       EX   AF,AF
05CC6 00       NOP  
05CC7 00       NOP  
05CC8 00       NOP  
05CC9 00       NOP  
05CCA 00       NOP  
05CCB 00       NOP  
05CCC 00       NOP  
05CCD FF       RST  38
05CCE 00       NOP  
05CCF AB       XOR  E
05CD0 00       NOP  
05CD1 55       LD   D,L
05CD2 00       NOP  
05CD3 FF       RST  38
05CD4 00       NOP  
05CD5 00       NOP  
05CD6 00       NOP  
05CD7 00       NOP  
05CD8 00       NOP  
05CD9 00       NOP  
05CDA 00       NOP  
05CDB 00       NOP  
05CDC 00       NOP  
05CDD 15       DEC  D
05CDE 00       NOP  
05CDF 1800     JR   5CE1
05CE1 15       DEC  D
05CE2 00       NOP  
05CE3 12       LD   (DE),A
05CE4 00       NOP  
05CE5 15       DEC  D
05CE6 00       NOP  
05CE7 1800     JR   5CE9
05CE9 15       DEC  D
05CEA 00       NOP  
05CEB 12       LD   (DE),A
05CEC 40       LD   B,B
05CED 40       LD   B,B
05CEE 40       LD   B,B
05CEF C0       RET  NZ
05CF0 40       LD   B,B
05CF1 40       LD   B,B
05CF2 40       LD   B,B
05CF3 40       LD   B,B
05CF4 40       LD   B,B
05CF5 40       LD   B,B
05CF6 40       LD   B,B
05CF7 C0       RET  NZ
05CF8 40       LD   B,B
05CF9 40       LD   B,B
05CFA 40       LD   B,B
05CFB 40       LD   B,B
05CFC 0E32     LD   C,32
05CFE 0E32     LD   C,32
05D00 0E32     LD   C,32
05D02 0E32     LD   C,32
05D04 0F       RRCA 
05D05 33       INC  SP
05D06 8F       ADC  A,A
05D07 B3       OR   E
05D08 CEF3     ADC  A,F3
05D0A EE73     XOR  73
05D0C 00       NOP  
05D0D 00       NOP  
05D0E 00       NOP  
05D0F 00       NOP  
05D10 00       NOP  
05D11 00       NOP  
05D12 00       NOP  
05D13 00       NOP  
05D14 00       NOP  
05D15 00       NOP  
05D16 00       NOP  
05D17 00       NOP  
05D18 80       ADD  A,B
05D19 80       ADD  A,B
05D1A C0       RET  NZ
05D1B 40       LD   B,B
05D1C 00       NOP  
05D1D 00       NOP  
05D1E 00       NOP  
05D1F 00       NOP  
05D20 80       ADD  A,B
05D21 80       ADD  A,B
05D22 47       LD   B,A
05D23 47       LD   B,A
05D24 1F       RRA  
05D25 183F     JR   5D66
05D27 207F     JR   NZ,5DA8
05D29 40       LD   B,B
05D2A 7F       LD   A,A
05D2B 40       LD   B,B
05D2C 7F       LD   A,A
05D2D 40       LD   B,B
05D2E BF       CP   A
05D2F A0       AND  B
05D30 BF       CP   A
05D31 A0       AND  B
05D32 BF       CP   A
05D33 B8       CP   B
05D34 7F       LD   A,A
05D35 7F       LD   A,A
05D36 3F       CCF  
05D37 3F       CCF  
05D38 77       LD   (HL),A
05D39 7C       LD   A,H
05D3A F7       RST  30
05D3B 9C       SBC  A,H
05D3C F2E6F2   JP   P,F2E6
05D3F E6F2     AND  F2
05D41 E6F2     AND  F2
05D43 E6F2     AND  F2
05D45 E6F2     AND  F2
05D47 E6F2     AND  F2
05D49 E6F2     AND  F2
05D4B E600     AND  00
05D4D 00       NOP  
05D4E 010101   LD   BC,0101
05D51 010101   LD   BC,0101
05D54 02       LD   (BC),A
05D55 02       LD   (BC),A
05D56 02       LD   (BC),A
05D57 02       LD   (BC),A
05D58 02       LD   (BC),A
05D59 02       LD   (BC),A
05D5A 0101F3   LD   BC,F301
05D5D 9F       SBC  A,A
05D5E F01F     IN   A,(1F)
05D60 F03F     IN   A,(3F)
05D62 E0BF     OUT  (BF),A
05D64 70       LD   (HL),B
05D65 7F       LD   A,A
05D66 101F     DJNZ 5D87
05D68 50       LD   D,B
05D69 5F       LD   E,A
05D6A 313F3E   LD   SP,3E3F
05D6D 22       HL++ (HL),A
05D6E 1F       RRA  
05D6F 1F       RRA  
05D70 101F     DJNZ 5D91
05D72 101F     DJNZ 5D93
05D74 12       LD   (DE),A
05D75 1F       RRA  
05D76 19       ADD  HL,DE
05D77 1F       RRA  
05D78 3F       CCF  
05D79 3F       CCF  
05D7A 3E3E     LD   A,3E
05D7C 12       LD   (DE),A
05D7D 1E12     LD   E,12
05D7F 1E12     LD   E,12
05D81 1E12     LD   E,12
05D83 1E7E     LD   E,7E
05D85 7E       LD   A,(HL)
05D86 FF       RST  38
05D87 83       ADD  A,E
05D88 FF       RST  38
05D89 81       ADD  A,C
05D8A FF       RST  38
05D8B FF       RST  38
05D8C 010101   LD   BC,0101
05D8F 010101   LD   BC,0101
05D92 02       LD   (BC),A
05D93 02       LD   (BC),A
05D94 02       LD   (BC),A
05D95 02       LD   (BC),A
05D96 02       LD   (BC),A
05D97 02       LD   (BC),A
05D98 010100   LD   BC,0001
05D9B 00       NOP  
05D9C 60       LD   H,B
05D9D E080     OUT  (80),A
05D9F 80       ADD  A,B
05DA0 80       ADD  A,B
05DA1 80       ADD  A,B
05DA2 80       ADD  A,B
05DA3 80       ADD  A,B
05DA4 80       ADD  A,B
05DA5 80       ADD  A,B
05DA6 80       ADD  A,B
05DA7 80       ADD  A,B
05DA8 80       ADD  A,B
05DA9 80       ADD  A,B
05DAA 80       ADD  A,B
05DAB 80       ADD  A,B
05DAC 07       RLCA 
05DAD 04       INC  B
05DAE 07       RLCA 
05DAF 04       INC  B
05DB0 07       RLCA 
05DB1 04       INC  B
05DB2 07       RLCA 
05DB3 04       INC  B
05DB4 07       RLCA 
05DB5 04       INC  B
05DB6 07       RLCA 
05DB7 04       INC  B
05DB8 07       RLCA 
05DB9 04       INC  B
05DBA 07       RLCA 
05DBB 04       INC  B
05DBC 0B       DEC  BC
05DBD 09       ADD  HL,BC
05DBE 0B       DEC  BC
05DBF 0A       LD   A,(BC)
05DC0 0F       RRCA 
05DC1 0A       LD   A,(BC)
05DC2 17       RLA  
05DC3 12       LD   (DE),A
05DC4 17       RLA  
05DC5 1C       INC  E
05DC6 14       INC  D
05DC7 17       RLA  
05DC8 17       RLA  
05DC9 14       INC  D
05DCA 2F       CPL  
05DCB 24       INC  H
05DCC 00       NOP  
05DCD 00       NOP  
05DCE 70       LD   (HL),B
05DCF 70       LD   (HL),B
05DD0 8F       ADC  A,A
05DD1 8F       ADC  A,A
05DD2 98       SBC  A,B
05DD3 9F       SBC  A,A
05DD4 E0FF     OUT  (FF),A
05DD6 F09F     IN   A,(9F)
05DD8 78       LD   A,B
05DD9 57       LD   D,A
05DDA 7F       LD   A,A
05DDB 4C       LD   C,H
05DDC 3B       DEC  SP
05DDD 2F       CPL  
05DDE D0       RET  NC
05DDF DF       RST  18
05DE0 F0FF     IN   A,(FF)
05DE2 C0       RET  NZ
05DE3 FF       RST  38
05DE4 C0       RET  NZ
05DE5 FF       RST  38
05DE6 FF       RST  38
05DE7 FF       RST  38
05DE8 00       NOP  
05DE9 00       NOP  
05DEA 00       NOP  
05DEB 00       NOP  
05DEC FF       RST  38
05DED FF       RST  38
05DEE FF       RST  38
05DEF FF       RST  38
05DF0 FF       RST  38
05DF1 FF       RST  38
05DF2 FF       RST  38
05DF3 F8       RET  M
05DF4 F8       RET  M
05DF5 F0F2     IN   A,(F2)
05DF7 E1       POP  HL
05DF8 F5       PUSH AF
05DF9 E3       EX   (SP),HL
05DFA F2E6FF   JP   P,FFE6
05DFD FF       RST  38
05DFE FF       RST  38
05DFF 81       ADD  A,C
05E00 C381DF   JP   DF81
05E03 85       ADD  A,L
05E04 DF       RST  18
05E05 85       ADD  A,L
05E06 FF       RST  38
05E07 BD       CP   L
05E08 FF       RST  38
05E09 81       ADD  A,C
05E0A FF       RST  38
05E0B FF       RST  38
05E0C FF       RST  38
05E0D FF       RST  38
05E0E FF       RST  38
05E0F FF       RST  38
05E10 FF       RST  38
05E11 FF       RST  38
05E12 FF       RST  38
05E13 1F       RRA  
05E14 1F       RRA  
05E15 0F       RRCA 
05E16 4F       LD   C,A
05E17 87       ADD  A,A
05E18 AF       XOR  A
05E19 C7       RST  00
05E1A 4F       LD   C,A
05E1B 67       LD   H,A
05E1C FF       RST  38
05E1D FF       RST  38
05E1E FF       RST  38
05E1F FF       RST  38
05E20 FF       RST  38
05E21 FF       RST  38
05E22 FF       RST  38
05E23 00       NOP  
05E24 00       NOP  
05E25 00       NOP  
05E26 00       NOP  
05E27 FF       RST  38
05E28 FF       RST  38
05E29 FF       RST  38
05E2A 00       NOP  
05E2B 00       NOP  
05E2C 4F       LD   C,A
05E2D 67       LD   H,A
05E2E 4F       LD   C,A
05E2F 67       LD   H,A
05E30 4F       LD   C,A
05E31 67       LD   H,A
05E32 4F       LD   C,A
05E33 67       LD   H,A
05E34 4F       LD   C,A
05E35 67       LD   H,A
05E36 4F       LD   C,A
05E37 67       LD   H,A
05E38 4F       LD   C,A
05E39 67       LD   H,A
05E3A 4F       LD   C,A
05E3B 67       LD   H,A
05E3C F2E6F5   JP   P,F5E6
05E3F E3       EX   (SP),HL
05E40 F2E1F8   JP   P,F8E1
05E43 F0FF     IN   A,(FF)
05E45 F8       RET  M
05E46 FF       RST  38
05E47 FF       RST  38
05E48 FF       RST  38
05E49 FF       RST  38
05E4A FF       RST  38
05E4B FF       RST  38
05E4C 00       NOP  
05E4D 00       NOP  
05E4E FF       RST  38
05E4F FF       RST  38
05E50 00       NOP  
05E51 FF       RST  38
05E52 00       NOP  
05E53 00       NOP  
05E54 FF       RST  38
05E55 00       NOP  
05E56 FF       RST  38
05E57 FF       RST  38
05E58 FF       RST  38
05E59 FF       RST  38
05E5A FF       RST  38
05E5B FF       RST  38
05E5C 4F       LD   C,A
05E5D 67       LD   H,A
05E5E AF       XOR  A
05E5F C7       RST  00
05E60 4F       LD   C,A
05E61 87       ADD  A,A
05E62 1F       RRA  
05E63 0F       RRCA 
05E64 FF       RST  38
05E65 1F       RRA  
05E66 FF       RST  38
05E67 FF       RST  38
05E68 FF       RST  38
05E69 FF       RST  38
05E6A FF       RST  38
05E6B FF       RST  38
05E6C FF       RST  38
05E6D FF       RST  38
05E6E FF       RST  38
05E6F FF       RST  38
05E70 FF       RST  38
05E71 FF       RST  38
05E72 FF       RST  38
05E73 00       NOP  
05E74 00       NOP  
05E75 00       NOP  
05E76 00       NOP  
05E77 EF       RST  28
05E78 E7       RST  20
05E79 CF       RST  08
05E7A 24       INC  H
05E7B 0C       INC  C
05E7C 24       INC  H
05E7D 0C       INC  C
05E7E 24       INC  H
05E7F 0C       INC  C
05E80 24       INC  H
05E81 0C       INC  C
05E82 24       INC  H
05E83 0C       INC  C
05E84 24       INC  H
05E85 0C       INC  C
05E86 24       INC  H
05E87 0C       INC  C
05E88 24       INC  H
05E89 0C       INC  C
05E8A 24       INC  H
05E8B 0C       INC  C
05E8C 24       INC  H
05E8D 0C       INC  C
05E8E E7       RST  20
05E8F CF       RST  08
05E90 00       NOP  
05E91 EF       RST  28
05E92 00       NOP  
05E93 00       NOP  
05E94 FF       RST  38
05E95 00       NOP  
05E96 FF       RST  38
05E97 FF       RST  38
05E98 FF       RST  38
05E99 FF       RST  38
05E9A FF       RST  38
05E9B FF       RST  38
05E9C 07       RLCA 
05E9D 07       RLCA 
05E9E 181F     JR   5EBF
05EA0 213E47   LD   HL,473E
05EA3 7F       LD   A,A
05EA4 5F       LD   E,A
05EA5 7F       LD   A,A
05EA6 39       ADD  HL,SP
05EA7 307B     JR   NC,5F24
05EA9 62       LD   H,D
05EAA FB       EI   
05EAB B2       OR   D
05EAC E0E0     OUT  (E0),A
05EAE 18F8     JR   5EA8
05EB0 84       ADD  A,H
05EB1 7C       LD   A,H
05EB2 E2       OUT  (C),A
05EB3 FEFA     CP   FA
05EB5 FE9C     CP   9C
05EB7 0C       INC  C
05EB8 DE46     SBC  A,46
05EBA DF       RST  18
05EBB 4D       LD   C,L
05EBC FF       RST  38
05EBD A0       AND  B
05EBE FF       RST  38
05EBF C27F54   JP   NZ,547F
05EC2 7F       LD   A,A
05EC3 5C       LD   E,H
05EC4 3F       CCF  
05EC5 2E3F     LD   L,3F
05EC7 23       INC  HL
05EC8 1F       RRA  
05EC9 1807     JR   5ED2
05ECB 07       RLCA 
05ECC FF       RST  38
05ECD 05       DEC  B
05ECE FF       RST  38
05ECF 43       LD   B,E
05ED0 FE2A     CP   2A
05ED2 FE3A     CP   3A
05ED4 FC74FC   CALL M,FC74
05ED7 C4F818   CALL NZ,18F8
05EDA E0E0     OUT  (E0),A
05EDC 07       RLCA 
05EDD 07       RLCA 
05EDE 1F       RRA  
05EDF 183E     JR   5F1F
05EE1 207F     JR   NZ,5F62
05EE3 4F       LD   C,A
05EE4 7F       LD   A,A
05EE5 5F       LD   E,A
05EE6 70       LD   (HL),B
05EE7 70       LD   (HL),B
05EE8 A2       AND  D
05EE9 A2       AND  D
05EEA B0       OR   B
05EEB B0       OR   B
05EEC E0E0     OUT  (E0),A
05EEE F8       RET  M
05EEF 187C     JR   5F6D
05EF1 04       INC  B
05EF2 FEF2     CP   F2
05EF4 FEFA     CP   FA
05EF6 0E0E     LD   C,0E
05EF8 45       LD   B,L
05EF9 45       LD   B,L
05EFA 0D       DEC  C
05EFB 0D       DEC  C
05EFC B4       OR   H
05EFD B4       OR   H
05EFE 64       LD   H,H
05EFF 64       LD   H,H
05F00 3C       INC  A
05F01 3C       INC  A
05F02 2E2E     LD   L,2E
05F04 27       DAA  
05F05 27       DAA  
05F06 1010     DJNZ 5F18
05F08 0C       INC  C
05F09 0C       INC  C
05F0A 03       INC  BC
05F0B 03       INC  BC
05F0C 2D       DEC  L
05F0D 2D       DEC  L
05F0E 2626     LD   H,26
05F10 3C       INC  A
05F11 3C       INC  A
05F12 74       LD   (HL),H
05F13 74       LD   (HL),H
05F14 E4E408   CALL PO,08E4
05F17 08       EX   AF,AF
05F18 3030     JR   NC,5F4A
05F1A C0       RET  NZ
05F1B C0       RET  NZ
05F1C 2F       CPL  
05F1D 24       INC  H
05F1E 2F       CPL  
05F1F 24       INC  H
05F20 2F       CPL  
05F21 24       INC  H
05F22 2F       CPL  
05F23 24       INC  H
05F24 67       LD   H,A
05F25 7C       LD   A,H
05F26 BC       CP   H
05F27 A7       AND  A
05F28 FF       RST  38
05F29 E41B1B   CALL PO,1B1B
05F2C 00       NOP  
05F2D 00       NOP  
05F2E 00       NOP  
05F2F 00       NOP  
05F30 010101   LD   BC,0101
05F33 010303   LD   BC,0303
05F36 03       INC  BC
05F37 03       INC  BC
05F38 03       INC  BC
05F39 02       LD   (BC),A
05F3A 07       RLCA 
05F3B 04       INC  B
05F3C 04       INC  B
05F3D 07       RLCA 
05F3E 07       RLCA 
05F3F 04       INC  B
05F40 07       RLCA 
05F41 04       INC  B
05F42 04       INC  B
05F43 04       INC  B
05F44 0606     LD   B,06
05F46 05       DEC  B
05F47 05       DEC  B
05F48 05       DEC  B
05F49 05       DEC  B
05F4A 0606     LD   B,06
05F4C 07       RLCA 
05F4D 04       INC  B
05F4E 07       RLCA 
05F4F 04       INC  B
05F50 04       INC  B
05F51 07       RLCA 
05F52 04       INC  B
05F53 04       INC  B
05F54 04       INC  B
05F55 04       INC  B
05F56 07       RLCA 
05F57 07       RLCA 
05F58 07       RLCA 
05F59 07       RLCA 
05F5A 0606     LD   B,06
05F5C 0606     LD   B,06
05F5E 0606     LD   B,06
05F60 04       INC  B
05F61 04       INC  B
05F62 07       RLCA 
05F63 07       RLCA 
05F64 05       DEC  B
05F65 05       DEC  B
05F66 03       INC  BC
05F67 03       INC  BC
05F68 05       DEC  B
05F69 05       DEC  B
05F6A 0E0E     LD   C,0E
05F6C 0F       RRCA 
05F6D 1F       RRA  
05F6E 011001   LD   BC,0110
05F71 1001     DJNZ 5F74
05F73 1001     DJNZ 5F76
05F75 08       EX   AF,AF
05F76 010704   LD   BC,0407
05F79 09       ADD  HL,BC
05F7A 00       NOP  
05F7B 0F       RRCA 
05F7C 08       EX   AF,AF
05F7D 01F8F1   LD   BC,F1F8
05F80 4E       LD   C,(HL)
05F81 C1       POP  BC
05F82 02       LD   (BC),A
05F83 C7       RST  00
05F84 8C       ADC  A,H
05F85 BD       CP   L
05F86 84       ADD  A,H
05F87 AD       XOR  L
05F88 62       LD   H,D
05F89 CF       RST  08
05F8A 7E       LD   A,(HL)
05F8B FEEC     CP   EC
05F8D 90       SUB  B
05F8E EF       RST  28
05F8F 9F       SBC  A,A
05F90 FAF7DA   LD   A,(DAF7)
05F93 E7       RST  20
05F94 BD       CP   L
05F95 BD       CP   L
05F96 B5       OR   L
05F97 AD       XOR  L
05F98 D2EF7F   JP   NC,7FEF
05F9B 7F       LD   A,A
05F9C F8       RET  M
05F9D F8       RET  M
05F9E 18E8     JR   5F88
05FA0 3888     JR   C,5F2A
05FA2 B8       CP   B
05FA3 08       EX   AF,AF
05FA4 B0       OR   B
05FA5 10E0     DJNZ 5F87
05FA7 E0D0     OUT  (D0),A
05FA9 30F0     JR   NC,5F9B
05FAB F018     IN   A,(18)
05FAD 1830     JR   5FDF
05FAF 3060     JR   NC,6011
05FB1 60       LD   H,B
05FB2 C0       RET  NZ
05FB3 C0       RET  NZ
05FB4 C0       RET  NZ
05FB5 C0       RET  NZ
05FB6 FF       RST  38
05FB7 FF       RST  38
05FB8 83       ADD  A,E
05FB9 83       ADD  A,E
05FBA 60       LD   H,B
05FBB 62       LD   H,D
05FBC 0A       LD   A,(BC)
05FBD 00       NOP  
05FBE 08       EX   AF,AF
05FBF 00       NOP  
05FC0 08       EX   AF,AF
05FC1 07       RLCA 
05FC2 08       EX   AF,AF
05FC3 00       NOP  
05FC4 08       EX   AF,AF
05FC5 01F8F1   LD   BC,F1F8
05FC8 F8       RET  M
05FC9 F1       POP  AF
05FCA 08       EX   AF,AF
05FCB 016C10   LD   BC,106C
05FCE 2C       INC  L
05FCF 102C     DJNZ 5FFD
05FD1 D1       POP  DE
05FD2 2C       INC  L
05FD3 11AC90   LD   DE,90AC
05FD6 EF       RST  28
05FD7 9F       SBC  A,A
05FD8 EF       RST  28
05FD9 9F       SBC  A,A
05FDA EC9018   CALL PE,1890
05FDD 180C     JR   5FEB
05FDF 0C       INC  C
05FE0 06C6     LD   B,C6
05FE2 03       INC  BC
05FE3 C30303   JP   0303
05FE6 FF       RST  38
05FE7 FF       RST  38
05FE8 C1       POP  BC
05FE9 C1       POP  BC
05FEA 0646     LD   B,46
05FEC 00       NOP  
05FED 04       INC  B
05FEE 00       NOP  
05FEF 0C       INC  C
05FF0 02       LD   (BC),A
05FF1 1002     DJNZ 5FF5
05FF3 1002     DJNZ 5FF7
05FF5 1002     DJNZ 5FF9
05FF7 1002     DJNZ 5FFB
05FF9 1002     DJNZ 5FFD
05FFB 100C     DJNZ 6009
05FFD 4C       LD   C,H
05FFE 0C       INC  C
05FFF 4C       LD   C,H
06000 09       ADD  HL,BC
06001 49       LD   C,C
06002 0B       DEC  BC
06003 4B       LD   C,E
06004 0A       LD   A,(BC)
06005 4A       LD   C,D
06006 1050     DJNZ 6058
06008 12       LD   (DE),A
06009 52       LD   D,D
0600A 1050     DJNZ 605C
0600C 7E       LD   A,(HL)
0600D 33       INC  SP
0600E 7E       LD   A,(HL)
0600F 33       INC  SP
06010 BE       CP   (HL)
06011 93       SUB  E
06012 FED3     CP   D3
06014 7E       LD   A,(HL)
06015 53       LD   D,E
06016 3E0B     LD   A,0B
06018 7E       LD   A,(HL)
06019 4B       LD   C,E
0601A 3E0B     LD   A,0B
0601C A0       AND  B
0601D 2090     JR   NZ,5FAF
0601F 3098     JR   NC,5FB9
06021 48       LD   C,B
06022 98       SBC  A,B
06023 48       LD   C,B
06024 98       SBC  A,B
06025 48       LD   C,B
06026 98       SBC  A,B
06027 48       LD   C,B
06028 98       SBC  A,B
06029 48       LD   C,B
0602A 98       SBC  A,B
0602B 48       LD   C,B
0602C 00       NOP  
0602D 00       NOP  
0602E 00       NOP  
0602F 00       NOP  
06030 00       NOP  
06031 00       NOP  
06032 00       NOP  
06033 00       NOP  
06034 010101   LD   BC,0101
06037 010202   LD   BC,0202
0603A 02       LD   (BC),A
0603B 02       LD   (BC),A
0603C 02       LD   (BC),A
0603D 02       LD   (BC),A
0603E 02       LD   (BC),A
0603F 02       LD   (BC),A
06040 02       LD   (BC),A
06041 02       LD   (BC),A
06042 00       NOP  
06043 010202   LD   BC,0202
06046 02       LD   (BC),A
06047 02       LD   (BC),A
06048 02       LD   (BC),A
06049 02       LD   (BC),A
0604A 02       LD   (BC),A
0604B 03       INC  BC
0604C 02       LD   (BC),A
0604D 03       INC  BC
0604E 02       LD   (BC),A
0604F 02       LD   (BC),A
06050 02       LD   (BC),A
06051 02       LD   (BC),A
06052 02       LD   (BC),A
06053 03       INC  BC
06054 02       LD   (BC),A
06055 02       LD   (BC),A
06056 0606     LD   B,06
06058 0E0A     LD   C,0A
0605A 0E0A     LD   C,0A
0605C 0B       DEC  BC
0605D 0A       LD   A,(BC)
0605E 0B       DEC  BC
0605F 0A       LD   A,(BC)
06060 0F       RRCA 
06061 0A       LD   A,(BC)
06062 0A       LD   A,(BC)
06063 0A       LD   A,(BC)
06064 0606     LD   B,06
06066 0A       LD   A,(BC)
06067 0A       LD   A,(BC)
06068 1A       LD   A,(DE)
06069 12       LD   (DE),A
0606A 1F       RRA  
0606B 1F       RRA  
0606C 00       NOP  
0606D 00       NOP  
0606E 00       NOP  
0606F 00       NOP  
06070 1F       RRA  
06071 1F       RRA  
06072 3F       CCF  
06073 207F     JR   NZ,60F4
06075 47       LD   B,A
06076 7C       LD   A,H
06077 4C       LD   C,H
06078 7C       LD   A,H
06079 4C       LD   C,H
0607A 7C       LD   A,H
0607B 4C       LD   C,H
0607C 00       NOP  
0607D 00       NOP  
0607E 00       NOP  
0607F 00       NOP  
06080 E0E0     OUT  (E0),A
06082 F030     IN   A,(30)
06084 F8       RET  M
06085 18F8     JR   607F
06087 98       SBC  A,B
06088 F8       RET  M
06089 98       SBC  A,B
0608A F8       RET  M
0608B 98       SBC  A,B
0608C 7F       LD   A,A
0608D 4F       LD   C,A
0608E 7F       LD   A,A
0608F 40       LD   B,B
06090 7F       LD   A,A
06091 4F       LD   C,A
06092 7C       LD   A,H
06093 4C       LD   C,H
06094 7C       LD   A,H
06095 4C       LD   C,H
06096 7C       LD   A,H
06097 7C       LD   A,H
06098 00       NOP  
06099 00       NOP  
0609A 00       NOP  
0609B 00       NOP  
0609C F8       RET  M
0609D 98       SBC  A,B
0609E F8       RET  M
0609F 18F8     JR   6099
060A1 98       SBC  A,B
060A2 F8       RET  M
060A3 98       SBC  A,B
060A4 F8       RET  M
060A5 98       SBC  A,B
060A6 F8       RET  M
060A7 F8       RET  M
060A8 00       NOP  
060A9 00       NOP  
060AA 00       NOP  
060AB 00       NOP  
060AC 00       NOP  
060AD 00       NOP  
060AE 7C       LD   A,H
060AF 7C       LD   A,H
060B0 4E       LD   C,(HL)
060B1 4E       LD   C,(HL)
060B2 4E       LD   C,(HL)
060B3 4E       LD   C,(HL)
060B4 4E       LD   C,(HL)
060B5 4E       LD   C,(HL)
060B6 4E       LD   C,(HL)
060B7 4E       LD   C,(HL)
060B8 7C       LD   A,H
060B9 7C       LD   A,H
060BA 00       NOP  
060BB 00       NOP  
060BC 00       NOP  
060BD 00       NOP  
060BE 7E       LD   A,(HL)
060BF 7E       LD   A,(HL)
060C0 60       LD   H,B
060C1 60       LD   H,B
060C2 7C       LD   A,H
060C3 7C       LD   A,H
060C4 60       LD   H,B
060C5 60       LD   H,B
060C6 60       LD   H,B
060C7 60       LD   H,B
060C8 7E       LD   A,(HL)
060C9 7E       LD   A,(HL)
060CA 00       NOP  
060CB 00       NOP  
060CC 00       NOP  
060CD 00       NOP  
060CE 46       LD   B,(HL)
060CF 46       LD   B,(HL)
060D0 46       LD   B,(HL)
060D1 46       LD   B,(HL)
060D2 46       LD   B,(HL)
060D3 46       LD   B,(HL)
060D4 46       LD   B,(HL)
060D5 46       LD   B,(HL)
060D6 4E       LD   C,(HL)
060D7 4E       LD   C,(HL)
060D8 3C       INC  A
060D9 3C       INC  A
060DA 00       NOP  
060DB 00       NOP  
060DC 00       NOP  
060DD 00       NOP  
060DE 3C       INC  A
060DF 3C       INC  A
060E0 66       LD   H,(HL)
060E1 66       LD   H,(HL)
060E2 60       LD   H,B
060E3 60       LD   H,B
060E4 60       LD   H,B
060E5 60       LD   H,B
060E6 66       LD   H,(HL)
060E7 66       LD   H,(HL)
060E8 3C       INC  A
060E9 3C       INC  A
060EA 00       NOP  
060EB 00       NOP  
060EC 00       NOP  
060ED 00       NOP  
060EE 46       LD   B,(HL)
060EF 46       LD   B,(HL)
060F0 6E       LD   L,(HL)
060F1 6E       LD   L,(HL)
060F2 7E       LD   A,(HL)
060F3 7E       LD   A,(HL)
060F4 56       LD   D,(HL)
060F5 56       LD   D,(HL)
060F6 46       LD   B,(HL)
060F7 46       LD   B,(HL)
060F8 46       LD   B,(HL)
060F9 46       LD   B,(HL)
060FA 00       NOP  
060FB 00       NOP  
060FC 00       NOP  
060FD 00       NOP  
060FE 3C       INC  A
060FF 3C       INC  A
06100 4E       LD   C,(HL)
06101 4E       LD   C,(HL)
06102 4E       LD   C,(HL)
06103 4E       LD   C,(HL)
06104 7E       LD   A,(HL)
06105 7E       LD   A,(HL)
06106 4E       LD   C,(HL)
06107 4E       LD   C,(HL)
06108 4E       LD   C,(HL)
06109 4E       LD   C,(HL)
0610A 00       NOP  
0610B 00       NOP  
0610C FF       RST  38
0610D 00       NOP  
0610E 00       NOP  
0610F 00       NOP  
06110 00       NOP  
06111 00       NOP  
06112 00       NOP  
06113 00       NOP  
06114 00       NOP  
06115 00       NOP  
06116 00       NOP  
06117 00       NOP  
06118 00       NOP  
06119 00       NOP  
0611A 00       NOP  
0611B 00       NOP  
0611C 00       NOP  
0611D 00       NOP  
0611E 00       NOP  
0611F 00       NOP  
06120 00       NOP  
06121 00       NOP  
06122 00       NOP  
06123 00       NOP  
06124 0101FF   LD   BC,FF01
06127 0101FF   LD   BC,FF01
0612A FF       RST  38
0612B FF       RST  38
0612C 00       NOP  
0612D 00       NOP  
0612E 00       NOP  
0612F 00       NOP  
06130 00       NOP  
06131 00       NOP  
06132 00       NOP  
06133 00       NOP  
06134 F0F0     IN   A,(F0)
06136 F0B0     IN   A,(B0)
06138 F0B0     IN   A,(B0)
0613A F0F0     IN   A,(F0)
0613C 00       NOP  
0613D 00       NOP  
0613E 00       NOP  
0613F 00       NOP  
06140 07       RLCA 
06141 07       RLCA 
06142 181F     JR   6163
06144 203F     JR   NZ,6185
06146 303F     JR   NC,6187
06148 1817     JR   6161
0614A 3F       CCF  
0614B 2C       INC  L
0614C 7B       LD   A,E
0614D 4F       LD   C,A
0614E 70       LD   (HL),B
0614F 5F       LD   E,A
06150 90       SUB  B
06151 9F       SBC  A,A
06152 90       SUB  B
06153 9F       SBC  A,A
06154 70       LD   (HL),B
06155 7F       LD   A,A
06156 111F3E   LD   DE,3E1F
06159 3E3E     LD   A,3E
0615B 3E00     LD   A,00
0615D 00       NOP  
0615E 7C       LD   A,H
0615F 7C       LD   A,H
06160 66       LD   H,(HL)
06161 66       LD   H,(HL)
06162 66       LD   H,(HL)
06163 66       LD   H,(HL)
06164 7C       LD   A,H
06165 7C       LD   A,H
06166 68       LD   L,B
06167 68       LD   L,B
06168 66       LD   H,(HL)
06169 66       LD   H,(HL)
0616A 00       NOP  
0616B 00       NOP  
0616C 00       NOP  
0616D 00       NOP  
0616E 3C       INC  A
0616F 3C       INC  A
06170 66       LD   H,(HL)
06171 66       LD   H,(HL)
06172 66       LD   H,(HL)
06173 66       LD   H,(HL)
06174 66       LD   H,(HL)
06175 66       LD   H,(HL)
06176 66       LD   H,(HL)
06177 66       LD   H,(HL)
06178 3C       INC  A
06179 3C       INC  A
0617A 00       NOP  
0617B 00       NOP  
0617C 00       NOP  
0617D 00       NOP  
0617E 60       LD   H,B
0617F 60       LD   H,B
06180 60       LD   H,B
06181 60       LD   H,B
06182 60       LD   H,B
06183 60       LD   H,B
06184 60       LD   H,B
06185 60       LD   H,B
06186 60       LD   H,B
06187 60       LD   H,B
06188 7E       LD   A,(HL)
06189 7E       LD   A,(HL)
0618A 00       NOP  
0618B 00       NOP  
0618C 00       NOP  
0618D 00       NOP  
0618E 3C       INC  A
0618F 3C       INC  A
06190 66       LD   H,(HL)
06191 66       LD   H,(HL)
06192 60       LD   H,B
06193 60       LD   H,B
06194 6E       LD   L,(HL)
06195 6E       LD   L,(HL)
06196 66       LD   H,(HL)
06197 66       LD   H,(HL)
06198 3E3E     LD   A,3E
0619A 00       NOP  
0619B 00       NOP  
0619C 00       NOP  
0619D EE00     XOR  00
0619F 00       NOP  
061A0 FF       RST  38
061A1 FF       RST  38
061A2 FF       RST  38
061A3 FF       RST  38
061A4 FF       RST  38
061A5 FF       RST  38
061A6 FF       RST  38
061A7 FF       RST  38
061A8 FF       RST  38
061A9 FF       RST  38
061AA FF       RST  38
061AB FF       RST  38
061AC 00       NOP  
061AD 010002   LD   BC,0200
061B0 00       NOP  
061B1 02       LD   (BC),A
061B2 00       NOP  
061B3 04       INC  B
061B4 00       NOP  
061B5 08       EX   AF,AF
061B6 00       NOP  
061B7 08       EX   AF,AF
061B8 00       NOP  
061B9 1000     DJNZ 61BB
061BB 1080     DJNZ 613D
061BD 80       ADD  A,B
061BE C0       RET  NZ
061BF 40       LD   B,B
061C0 C0       RET  NZ
061C1 40       LD   B,B
061C2 E020     OUT  (20),A
061C4 3050     JR   NC,6216
061C6 3050     JR   NC,6218
061C8 3848     JR   C,6212
061CA 1828     JR   61F4
061CC 00       NOP  
061CD 00       NOP  
061CE 00       NOP  
061CF 00       NOP  
061D0 00       NOP  
061D1 00       NOP  
061D2 00       NOP  
061D3 00       NOP  
061D4 00       NOP  
061D5 03       INC  BC
061D6 00       NOP  
061D7 03       INC  BC
061D8 00       NOP  
061D9 02       LD   (BC),A
061DA 00       NOP  
061DB 02       LD   (BC),A
061DC 00       NOP  
061DD 00       NOP  
061DE 00       NOP  
061DF 00       NOP  
061E0 00       NOP  
061E1 00       NOP  
061E2 00       NOP  
061E3 00       NOP  
061E4 08       EX   AF,AF
061E5 F8       RET  M
061E6 08       EX   AF,AF
061E7 1808     JR   61F1
061E9 A8       XOR  B
061EA 08       EX   AF,AF
061EB 48       LD   C,B
061EC 00       NOP  
061ED 80       ADD  A,B
061EE 00       NOP  
061EF 80       ADD  A,B
061F0 00       NOP  
061F1 80       ADD  A,B
061F2 00       NOP  
061F3 80       ADD  A,B
061F4 00       NOP  
061F5 00       NOP  
061F6 00       NOP  
061F7 00       NOP  
061F8 00       NOP  
061F9 00       NOP  
061FA 00       NOP  
061FB 00       NOP  
061FC 00       NOP  
061FD 2000     JR   NZ,61FF
061FF 2000     JR   NZ,6201
06201 201F     JR   NZ,6222
06203 2000     JR   NZ,6205
06205 40       LD   B,B
06206 00       NOP  
06207 40       LD   B,B
06208 00       NOP  
06209 40       LD   B,B
0620A 00       NOP  
0620B 40       LD   B,B
0620C 1C       INC  E
0620D 24       INC  H
0620E 0C       INC  C
0620F 34       INC  (HL)
06210 0C       INC  C
06211 34       INC  (HL)
06212 04       INC  B
06213 FC0E32   CALL M,320E
06216 0E32     LD   C,32
06218 0E32     LD   C,32
0621A 0E32     LD   C,32
0621C 00       NOP  
0621D 00       NOP  
0621E 00       NOP  
0621F 00       NOP  
06220 00       NOP  
06221 00       NOP  
06222 00       NOP  
06223 00       NOP  
06224 00       NOP  
06225 00       NOP  
06226 00       NOP  
06227 00       NOP  
06228 00       NOP  
06229 00       NOP  
0622A 00       NOP  
0622B 00       NOP  
0622C 00       NOP  
0622D 00       NOP  
0622E 00       NOP  
0622F 00       NOP  
06230 00       NOP  
06231 00       NOP  
06232 00       NOP  
06233 00       NOP  
06234 00       NOP  
06235 1F       RRA  
06236 00       NOP  
06237 1800     JR   6239
06239 15       DEC  D
0623A 00       NOP  
0623B 12       LD   (DE),A
0623C 00       NOP  
0623D 00       NOP  
0623E 00       NOP  
0623F 00       NOP  
06240 00       NOP  
06241 00       NOP  
06242 00       NOP  
06243 00       NOP  
06244 40       LD   B,B
06245 C0       RET  NZ
06246 40       LD   B,B
06247 C0       RET  NZ
06248 40       LD   B,B
06249 40       LD   B,B
0624A 40       LD   B,B
0624B 40       LD   B,B
0624C 00       NOP  
0624D 02       LD   (BC),A
0624E 00       NOP  
0624F 03       INC  BC
06250 00       NOP  
06251 02       LD   (BC),A
06252 00       NOP  
06253 02       LD   (BC),A
06254 00       NOP  
06255 02       LD   (BC),A
06256 00       NOP  
06257 03       INC  BC
06258 00       NOP  
06259 02       LD   (BC),A
0625A 00       NOP  
0625B 02       LD   (BC),A
0625C 08       EX   AF,AF
0625D AF       XOR  A
0625E 08       EX   AF,AF
0625F 1A       LD   A,(DE)
06260 08       EX   AF,AF
06261 AD       XOR  L
06262 08       EX   AF,AF
06263 4F       LD   C,A
06264 08       EX   AF,AF
06265 A8       XOR  B
06266 08       EX   AF,AF
06267 1808     JR   6271
06269 A8       XOR  B
0626A 08       EX   AF,AF
0626B 48       LD   C,B
0626C 00       NOP  
0626D 00       NOP  
0626E 00       NOP  
0626F 00       NOP  
06270 00       NOP  
06271 00       NOP  
06272 00       NOP  
06273 00       NOP  
06274 00       NOP  
06275 00       NOP  
06276 00       NOP  
06277 00       NOP  
06278 00       NOP  
06279 010002   LD   BC,0200
0627C 00       NOP  
0627D 40       LD   B,B
0627E 15       DEC  D
0627F 40       LD   B,B
06280 15       DEC  D
06281 40       LD   B,B
06282 15       DEC  D
06283 40       LD   B,B
06284 15       DEC  D
06285 C0       RET  NZ
06286 15       DEC  D
06287 C1       POP  BC
06288 17       RLA  
06289 43       LD   B,E
0628A 1646     LD   D,46
0628C 24       INC  H
0628D 0C       INC  C
0628E 34       INC  (HL)
0628F 0C       INC  C
06290 34       INC  (HL)
06291 04       INC  B
06292 FC0E32   CALL M,320E
06295 0E32     LD   C,32
06297 0E32     LD   C,32
06299 0E32     LD   C,32
0629B 00       NOP  
0629C 00       NOP  
0629D 00       NOP  
0629E 00       NOP  
0629F 00       NOP  
062A0 00       NOP  
062A1 00       NOP  
062A2 00       NOP  
062A3 00       NOP  
062A4 00       NOP  
062A5 00       NOP  
062A6 00       NOP  
062A7 00       NOP  
062A8 00       NOP  
062A9 00       NOP  
062AA 00       NOP  
062AB 00       NOP  
062AC 00       NOP  
062AD 00       NOP  
062AE 00       NOP  
062AF 00       NOP  
062B0 00       NOP  
062B1 2A       HL++ A,(HL)
062B2 2001     JR   NZ,62B5
062B4 00       NOP  
062B5 1D       DEC  E
062B6 010900   LD   BC,0009
062B9 07       RLCA 
062BA 010B00   LD   BC,000B
062BD 03       INC  BC
062BE 2004     JR   NZ,62C4
062C0 00       NOP  
062C1 2020     JR   NZ,62E3
062C3 0600     LD   B,00
062C5 0A       LD   A,(BC)
062C6 80       ADD  A,B
062C7 17       RLA  
062C8 00       NOP  
062C9 0601     LD   B,01
062CB 0600     LD   B,00
062CD 04       INC  B
062CE 010500   LD   BC,0005
062D1 1E80     LD   E,80
062D3 0B       DEC  BC
062D4 00       NOP  
062D5 0680     LD   B,80
062D7 1C       INC  E
062D8 00       NOP  
062D9 0A       LD   A,(BC)
062DA 1008     DJNZ 62E4
062DC 110401   LD   DE,0104
062DF 02       LD   (BC),A
062E0 00       NOP  
062E1 04       INC  B
062E2 010600   LD   BC,0006
062E5 00       NOP  
062E6 1006     DJNZ 62EE
062E8 00       NOP  
062E9 04       INC  B
062EA 1005     DJNZ 62F1
062EC 00       NOP  
062ED 1A       LD   A,(DE)
062EE 80       ADD  A,B
062EF 24       INC  H
062F0 00       NOP  
062F1 15       DEC  D
062F2 010700   LD   BC,0007
062F5 2010     JR   NZ,6307
062F7 04       INC  B
062F8 00       NOP  
062F9 05       DEC  B
062FA 1003     DJNZ 62FF
062FC 00       NOP  
062FD 0D       DEC  C
062FE 1006     DJNZ 6306
06300 00       NOP  
06301 03       INC  BC
06302 1005     DJNZ 6309
06304 00       NOP  
06305 25       DEC  H
06306 80       ADD  A,B
06307 15       DEC  D
06308 00       NOP  
06309 1B       DEC  DE
0630A 1004     DJNZ 6310
0630C 00       NOP  
0630D 13       INC  DE
0630E 80       ADD  A,B
0630F 03       INC  BC
06310 00       NOP  
06311 1C       INC  E
06312 80       ADD  A,B
06313 19       ADD  HL,DE
06314 00       NOP  
06315 1A       LD   A,(DE)
06316 010600   LD   BC,0006
06319 0A       LD   A,(BC)
0631A 2001     JR   NZ,631D
0631C 00       NOP  
0631D 09       ADD  HL,BC
0631E 2002     JR   NZ,6322
06320 00       NOP  
06321 14       INC  D
06322 1003     DJNZ 6327
06324 00       NOP  
06325 0E80     LD   C,80
06327 1600     LD   D,00
06329 0A       LD   A,(BC)
0632A 100A     DJNZ 6336
0632C 110610   LD   DE,1006
0632F 1600     LD   D,00
06331 13       INC  DE
06332 80       ADD  A,B
06333 25       DEC  H
06334 00       NOP  
06335 1C       INC  E
06336 010600   LD   BC,0006
06339 03       INC  BC
0633A 2002     JR   NZ,633E
0633C 00       NOP  
0633D 0E20     LD   C,20
0633F 03       INC  BC
06340 00       NOP  
06341 04       INC  B
06342 2002     JR   NZ,6346
06344 00       NOP  
06345 03       INC  BC
06346 2005     JR   NZ,634D
06348 00       NOP  
06349 0D       DEC  C
0634A 80       ADD  A,B
0634B 210013   LD   HL,1300
0634E 010700   LD   BC,0007
06351 05       DEC  B
06352 010600   LD   BC,0006
06355 04       INC  B
06356 010500   LD   BC,0005
06359 0620     LD   B,20
0635B 03       INC  BC
0635C 00       NOP  
0635D 05       DEC  B
0635E 2002     JR   NZ,6362
06360 00       NOP  
06361 1C       INC  E
06362 2003     JR   NZ,6367
06364 00       NOP  
06365 0E80     LD   C,80
06367 12       LD   (DE),A
06368 00       NOP  
06369 0C       INC  C
0636A 1004     DJNZ 6370
0636C 00       NOP  
0636D 02       LD   (BC),A
0636E 010800   LD   BC,0008
06371 1001     DJNZ 6374
06373 08       EX   AF,AF
06374 00       NOP  
06375 1E80     LD   E,80
06377 19       ADD  HL,DE
06378 00       NOP  
06379 1010     DJNZ 638B
0637B 03       INC  BC
0637C 00       NOP  
0637D 04       INC  B
0637E 1005     DJNZ 6385
06380 00       NOP  
06381 24       INC  H
06382 80       ADD  A,B
06383 1C       INC  E
06384 00       NOP  
06385 05       DEC  B
06386 010500   LD   BC,0005
06389 112003   LD   DE,0320
0638C 00       NOP  
0638D 12       LD   (DE),A
0638E 80       ADD  A,B
0638F 2000     JR   NZ,6391
06391 0A       LD   A,(BC)
06392 1001     DJNZ 6395
06394 110601   LD   DE,0106
06397 00       NOP  
06398 00       NOP  
06399 04       INC  B
0639A 1004     DJNZ 63A0
0639C 00       NOP  
0639D 04       INC  B
0639E 1003     DJNZ 63A3
063A0 00       NOP  
063A1 02       LD   (BC),A
063A2 1019     DJNZ 63BD
063A4 00       NOP  
063A5 04       INC  B
063A6 1007     DJNZ 63AF
063A8 00       NOP  
063A9 0A       LD   A,(BC)
063AA 00       NOP  
063AB 00       NOP  
063AC 00       NOP  
063AD 00       NOP  
063AE 00       NOP  
063AF 00       NOP  
063B0 00       NOP  
063B1 4D       LD   C,L
063B2 2008     JR   NZ,63BC
063B4 210620   LD   HL,2006
063B7 0B       DEC  BC
063B8 00       NOP  
063B9 07       RLCA 
063BA 2006     JR   NZ,63C2
063BC 00       NOP  
063BD 64       LD   H,H
063BE 1000     DJNZ 63C0
063C0 110610   LD   DE,1006
063C3 05       DEC  B
063C4 00       NOP  
063C5 2F       CPL  
063C6 80       ADD  A,B
063C7 1600     LD   D,00
063C9 17       RLA  
063CA 2005     JR   NZ,63D1
063CC 00       NOP  
063CD 0620     LD   B,20
063CF 0600     LD   B,00
063D1 1080     DJNZ 6353
063D3 1800     JR   63D5
063D5 34       INC  (HL)
063D6 010500   LD   BC,0005
063D9 01100E   LD   BC,0E10
063DC 110610   LD   DE,1006
063DF 2000     JR   NZ,63E1
063E1 0A       LD   A,(BC)
063E2 80       ADD  A,B
063E3 0A       LD   A,(BC)
063E4 00       NOP  
063E5 2B       DEC  HL
063E6 2006     JR   NZ,63EE
063E8 00       NOP  
063E9 0620     LD   B,20
063EB 05       DEC  B
063EC 00       NOP  
063ED 05       DEC  B
063EE 2006     JR   NZ,63F6
063F0 00       NOP  
063F1 0A       LD   A,(BC)
063F2 80       ADD  A,B
063F3 0C       INC  C
063F4 00       NOP  
063F5 0A       LD   A,(BC)
063F6 010700   LD   BC,0007
063F9 02       LD   (BC),A
063FA 100B     DJNZ 6407
063FC 00       NOP  
063FD 05       DEC  B
063FE 1004     DJNZ 6404
06400 00       NOP  
06401 0D       DEC  C
06402 80       ADD  A,B
06403 1C       INC  E
06404 00       NOP  
06405 75       LD   (HL),L
06406 010600   LD   BC,0006
06409 0E80     LD   C,80
0640B 1F       RRA  
0640C 00       NOP  
0640D 1A       LD   A,(DE)
0640E 010600   LD   BC,0006
06411 00       NOP  
06412 1007     DJNZ 641B
06414 00       NOP  
06415 05       DEC  B
06416 1006     DJNZ 641E
06418 00       NOP  
06419 04       INC  B
0641A 1008     DJNZ 6424
0641C 00       NOP  
0641D 03       INC  BC
0641E 1008     DJNZ 6428
06420 00       NOP  
06421 0C       INC  C
06422 80       ADD  A,B
06423 0F       RRCA 
06424 00       NOP  
06425 0A       LD   A,(BC)
06426 010700   LD   BC,0007
06429 00       NOP  
0642A 103D     DJNZ 6469
0642C 00       NOP  
0642D 05       DEC  B
0642E 80       ADD  A,B
0642F 1F       RRA  
06430 00       NOP  
06431 00       NOP  
06432 00       NOP  
06433 00       NOP  
06434 00       NOP  
06435 00       NOP  
06436 00       NOP  
06437 00       NOP  
06438 00       NOP  
06439 00       NOP  
0643A 00       NOP  
0643B 00       NOP  
0643C 00       NOP  
0643D 00       NOP  
0643E 00       NOP  
0643F 00       NOP  
06440 00       NOP  
06441 00       NOP  
06442 00       NOP  
06443 00       NOP  
06444 00       NOP  
06445 00       NOP  
06446 00       NOP  
06447 00       NOP  
06448 00       NOP  
06449 00       NOP  
0644A 00       NOP  
0644B 00       NOP  
0644C 00       NOP  
0644D 00       NOP  
0644E 00       NOP  
0644F 00       NOP  
06450 1018     DJNZ 646A
06452 00       NOP  
06453 04       INC  B
06454 08       EX   AF,AF
06455 00       NOP  
06456 04       INC  B
06457 08       EX   AF,AF
06458 08       EX   AF,AF
06459 00       NOP  
0645A 04       INC  B
0645B 14       INC  D
0645C 1008     DJNZ 6466
0645E 1010     DJNZ 6470
06460 14       INC  D
06461 1814     JR   6477
06463 00       NOP  
06464 0C       INC  C
06465 04       INC  B
06466 1800     JR   6468
06468 14       INC  D
06469 14       INC  D
0646A 08       EX   AF,AF
0646B 04       INC  B
0646C 04       INC  B
0646D 0C       INC  C
0646E 00       NOP  
0646F 1804     JR   6475
06471 00       NOP  
06472 08       EX   AF,AF
06473 0C       INC  C
06474 0C       INC  C
06475 1800     JR   6477
06477 0C       INC  C
06478 08       EX   AF,AF
06479 00       NOP  
0647A 1810     JR   648C
0647C 14       INC  D
0647D 14       INC  D
0647E 1808     JR   6488
06480 AA       XOR  D
06481 65       LD   H,L
06482 C665     ADD  A,65
06484 FC6628   CALL M,2866
06487 66       LD   H,(HL)
06488 34       INC  (HL)
06489 67       LD   H,A
0648A AF       XOR  A
0648B 66       LD   H,(HL)
0648C F1       POP  AF
0648D 65       LD   H,L
0648E 54       LD   D,H
0648F 66       LD   H,(HL)
06490 B2       OR   D
06491 65       LD   H,L
06492 CE65     ADC  A,65
06494 14       INC  D
06495 67       LD   H,A
06496 CE65     ADC  A,65
06498 CE65     ADC  A,65
0649A C366F7   JP   F766
0649D 65       LD   H,L
0649E 60       LD   H,B
0649F 66       LD   H,(HL)
064A0 D467DC   CALL NC,DC67
064A3 67       LD   H,A
064A4 9D       SBC  A,L
064A5 67       LD   H,A
064A6 A5       AND  L
064A7 67       LD   H,A
064A8 E467E4   CALL PO,E467
064AB 67       LD   H,A
064AC E467AD   CALL PO,AD67
064AF 67       LD   H,A
064B0 3F       CCF  
064B1 6F       LD   L,A
064B2 4A       LD   C,D
064B3 6F       LD   L,A
064B4 55       LD   D,L
064B5 6F       LD   L,A
064B6 60       LD   H,B
064B7 6F       LD   L,A
064B8 6B       LD   L,E
064B9 6F       LD   L,A
064BA 76       HALT 
064BB 6F       LD   L,A
064BC 81       ADD  A,C
064BD 6F       LD   L,A
064BE 8C       ADC  A,H
064BF 6F       LD   L,A
064C0 97       SUB  A
064C1 6F       LD   L,A
064C2 A2       AND  D
064C3 6F       LD   L,A
064C4 AD       XOR  L
064C5 6F       LD   L,A
064C6 B8       CP   B
064C7 6F       LD   L,A
064C8 C36FCE   JP   CE6F
064CB 6F       LD   L,A
064CC D9       RETI 
064CD 6F       LD   L,A
064CE E46FEF   CALL PO,EF6F
064D1 6F       LD   L,A
064D2 C9       RET  
064D3 F5       PUSH AF
064D4 C5       PUSH BC
064D5 D5       PUSH DE
064D6 E5       PUSH HL
064D7 FA7FDF   LD   A,(DF7F)
064DA FE01     CP   01
064DC 2846     JR   Z,6524
064DE FE02     CP   02
064E0 287B     JR   Z,655D
064E2 FA7EDF   LD   A,(DF7E)
064E5 A7       AND  A
064E6 207B     JR   NZ,6563
064E8 F0E4     IN   A,(E4)
064EA A7       AND  A
064EB 280D     JR   Z,64FA
064ED AF       XOR  A
064EE EAE0DF   LD   (DFE0),A
064F1 EAE8DF   LD   (DFE8),A
064F4 EAF0DF   LD   (DFF0),A
064F7 EAF8DF   LD   (DFF8),A
064FA CDD264   CALL 64D2
064FD CDDD69   CALL 69DD
06500 CDFD69   CALL 69FD
06503 CD3C68   CALL 683C
06506 CD216A   CALL 6A21
06509 CD446C   CALL 6C44
0650C CD656A   CALL 6A65
0650F AF       XOR  A
06510 EAE0DF   LD   (DFE0),A
06513 EAE8DF   LD   (DFE8),A
06516 EAF0DF   LD   (DFF0),A
06519 EAF8DF   LD   (DFF8),A
0651C EA7FDF   LD   (DF7F),A
0651F E1       POP  HL
06520 D1       POP  DE
06521 C1       POP  BC
06522 F1       POP  AF
06523 C9       RET  
06524 CDC769   CALL 69C7
06527 AF       XOR  A
06528 EAE1DF   LD   (DFE1),A
0652B EAF1DF   LD   (DFF1),A
0652E EAF9DF   LD   (DFF9),A
06531 21BFDF   LD   HL,DFBF
06534 CBBE     RES  7,(HL)
06536 219FDF   LD   HL,DF9F
06539 CBBE     RES  7,(HL)
0653B 21AFDF   LD   HL,DFAF
0653E CBBE     RES  7,(HL)
06540 21CFDF   LD   HL,DFCF
06543 CBBE     RES  7,(HL)
06545 21E96E   LD   HL,6EE9
06548 CD9869   CALL 6998
0654B 3E30     LD   A,30
0654D EA7EDF   LD   (DF7E),A
06550 217B65   LD   HL,657B
06553 CD5D69   CALL 695D
06556 18B7     JR   650F
06558 217F65   LD   HL,657F
0655B 18F6     JR   6553
0655D AF       XOR  A
0655E EA7EDF   LD   (DF7E),A
06561 1885     JR   64E8
06563 217EDF   LD   HL,DF7E
06566 35       DEC  (HL)
06567 7E       LD   A,(HL)
06568 FE28     CP   28
0656A 28EC     JR   Z,6558
0656C FE20     CP   20
0656E 28E0     JR   Z,6550
06570 FE18     CP   18
06572 28E4     JR   Z,6558
06574 FE10     CP   10
06576 2097     JR   NZ,650F
06578 34       INC  (HL)
06579 1894     JR   650F
0657B B2       OR   D
0657C E3       EX   (SP),HL
0657D 83       ADD  A,E
0657E C7       RST  00
0657F B2       OR   D
06580 E3       EX   (SP),HL
06581 C1       POP  BC
06582 C7       RST  00
06583 FAF1DF   LD   A,(DFF1)
06586 FE01     CP   01
06588 C9       RET  
06589 FAE1DF   LD   A,(DFE1)
0658C FE05     CP   05
0658E C9       RET  
0658F FAE1DF   LD   A,(DFE1)
06592 FE07     CP   07
06594 C9       RET  
06595 FAE1DF   LD   A,(DFE1)
06598 FE08     CP   08
0659A C9       RET  
0659B 00       NOP  
0659C B5       OR   L
0659D D0       RET  NC
0659E 40       LD   B,B
0659F C7       RST  00
065A0 00       NOP  
065A1 B5       OR   L
065A2 2040     JR   NZ,65E4
065A4 C7       RST  00
065A5 00       NOP  
065A6 B6       OR   (HL)
065A7 A1       AND  C
065A8 80       ADD  A,B
065A9 C7       RST  00
065AA 3E05     LD   A,05
065AC 219B65   LD   HL,659B
065AF C33669   JP   6936
065B2 CD8B69   CALL 698B
065B5 A7       AND  A
065B6 C0       RET  NZ
065B7 21E4DF   LD   HL,DFE4
065BA 34       INC  (HL)
065BB 7E       LD   A,(HL)
065BC FE02     CP   02
065BE 2813     JR   Z,65D3
065C0 21A065   LD   HL,65A0
065C3 C35669   JP   6956
065C6 3E03     LD   A,03
065C8 21A565   LD   HL,65A5
065CB C33669   JP   6936
065CE CD8B69   CALL 698B
065D1 A7       AND  A
065D2 C0       RET  NZ
065D3 AF       XOR  A
065D4 EAE1DF   LD   (DFE1),A
065D7 E010     OUT  (10),A
065D9 3E08     LD   A,08
065DB E012     OUT  (12),A
065DD 3E80     LD   A,80
065DF E014     OUT  (14),A
065E1 219FDF   LD   HL,DF9F
065E4 CBBE     RES  7,(HL)
065E6 C9       RET  
065E7 00       NOP  
065E8 80       ADD  A,B
065E9 E1       POP  HL
065EA C1       POP  BC
065EB 87       ADD  A,A
065EC 00       NOP  
065ED 80       ADD  A,B
065EE E1       POP  HL
065EF AC       XOR  H
065F0 87       ADD  A,A
065F1 21E765   LD   HL,65E7
065F4 C33669   JP   6936
065F7 21E4DF   LD   HL,DFE4
065FA 34       INC  (HL)
065FB 7E       LD   A,(HL)
065FC FE04     CP   04
065FE 2817     JR   Z,6617
06600 FE0B     CP   0B
06602 2819     JR   Z,661D
06604 FE0F     CP   0F
06606 280F     JR   Z,6617
06608 FE18     CP   18
0660A CA0E66   JP   Z,660E
0660D C9       RET  
0660E 3E01     LD   A,01
06610 21F0DF   LD   HL,DFF0
06613 77       LD   (HL),A
06614 C3D365   JP   65D3
06617 21EC65   LD   HL,65EC
0661A C35669   JP   6956
0661D 21E765   LD   HL,65E7
06620 C35669   JP   6956
06623 48       LD   C,B
06624 BC       CP   H
06625 42       LD   B,D
06626 66       LD   H,(HL)
06627 87       ADD  A,A
06628 CD8365   CALL 6583
0662B C8       RET  Z
0662C CD9565   CALL 6595
0662F C8       RET  Z
06630 CD8F65   CALL 658F
06633 C8       RET  Z
06634 CD8965   CALL 6589
06637 C8       RET  Z
06638 3E02     LD   A,02
0663A 212366   LD   HL,6623
0663D C33669   JP   6936
06640 00       NOP  
06641 B0       OR   B
06642 F1       POP  AF
06643 B6       OR   (HL)
06644 C7       RST  00
06645 00       NOP  
06646 B0       OR   B
06647 F1       POP  AF
06648 C4C700   CALL NZ,00C7
0664B B0       OR   B
0664C F1       POP  AF
0664D CEC7     ADC  A,C7
0664F 00       NOP  
06650 B0       OR   B
06651 F1       POP  AF
06652 DB       ???? 
06653 C7       RST  00
06654 CD8F65   CALL 658F
06657 C8       RET  Z
06658 3E07     LD   A,07
0665A 214066   LD   HL,6640
0665D C33669   JP   6936
06660 CD8B69   CALL 698B
06663 A7       AND  A
06664 C0       RET  NZ
06665 21E4DF   LD   HL,DFE4
06668 34       INC  (HL)
06669 7E       LD   A,(HL)
0666A FE01     CP   01
0666C 2812     JR   Z,6680
0666E FE02     CP   02
06670 2813     JR   Z,6685
06672 FE03     CP   03
06674 2814     JR   Z,668A
06676 FE04     CP   04
06678 2815     JR   Z,668F
0667A FE05     CP   05
0667C CAD365   JP   Z,65D3
0667F C9       RET  
06680 214566   LD   HL,6645
06683 180D     JR   6692
06685 214A66   LD   HL,664A
06688 1808     JR   6692
0668A 214F66   LD   HL,664F
0668D 1803     JR   6692
0668F 214066   LD   HL,6640
06692 C35669   JP   6956
06695 3E80     LD   A,80
06697 E3       EX   (SP),HL
06698 00       NOP  
06699 C49383   CALL NZ,8393
0669C 83       ADD  A,E
0669D 73       LD   (HL),E
0669E 63       LD   H,E
0669F 53       LD   D,E
066A0 43       LD   B,E
066A1 33       INC  SP
066A2 23       INC  HL
066A3 13       INC  DE
066A4 00       NOP  
066A5 00       NOP  
066A6 23       INC  HL
066A7 43       LD   B,E
066A8 63       LD   H,E
066A9 83       ADD  A,E
066AA A3       AND  E
066AB C3D3E3   JP   E3D3
066AE FF       RST  38
066AF CD8365   CALL 6583
066B2 C8       RET  Z
066B3 CD9565   CALL 6595
066B6 C8       RET  Z
066B7 CD8F65   CALL 658F
066BA C8       RET  Z
066BB 3E06     LD   A,06
066BD 219566   LD   HL,6695
066C0 C33669   JP   6936
066C3 CD8B69   CALL 698B
066C6 A7       AND  A
066C7 C0       RET  NZ
066C8 21E4DF   LD   HL,DFE4
066CB 4E       LD   C,(HL)
066CC 34       INC  (HL)
066CD 0600     LD   B,00
066CF 219A66   LD   HL,669A
066D2 09       ADD  HL,BC
066D3 7E       LD   A,(HL)
066D4 A7       AND  A
066D5 CAD365   JP   Z,65D3
066D8 5F       LD   E,A
066D9 21A566   LD   HL,66A5
066DC 09       ADD  HL,BC
066DD 7E       LD   A,(HL)
066DE 57       LD   D,A
066DF 0686     LD   B,86
066E1 0E12     LD   C,12
066E3 7B       LD   A,E
066E4 E2       OUT  (C),A
066E5 0C       INC  C
066E6 7A       LD   A,D
066E7 E2       OUT  (C),A
066E8 0C       INC  C
066E9 78       LD   A,B
066EA E2       OUT  (C),A
066EB C9       RET  
066EC 3B       DEC  SP
066ED 80       ADD  A,B
066EE B2       OR   D
066EF 87       ADD  A,A
066F0 87       ADD  A,A
066F1 A2       AND  D
066F2 93       SUB  E
066F3 62       LD   H,D
066F4 43       LD   B,E
066F5 23       INC  HL
066F6 00       NOP  
066F7 80       ADD  A,B
066F8 40       LD   B,B
066F9 80       ADD  A,B
066FA 40       LD   B,B
066FB 80       ADD  A,B
066FC CD8365   CALL 6583
066FF C8       RET  Z
06700 CD9565   CALL 6595
06703 C8       RET  Z
06704 CD8F65   CALL 658F
06707 C8       RET  Z
06708 CD8965   CALL 6589
0670B C8       RET  Z
0670C 3E03     LD   A,03
0670E 21EC66   LD   HL,66EC
06711 C33669   JP   6936
06714 CD8B69   CALL 698B
06717 A7       AND  A
06718 C0       RET  NZ
06719 21E4DF   LD   HL,DFE4
0671C 4E       LD   C,(HL)
0671D 34       INC  (HL)
0671E 0600     LD   B,00
06720 21F166   LD   HL,66F1
06723 09       ADD  HL,BC
06724 7E       LD   A,(HL)
06725 A7       AND  A
06726 CAD365   JP   Z,65D3
06729 5F       LD   E,A
0672A 21F766   LD   HL,66F7
0672D 09       ADD  HL,BC
0672E 7E       LD   A,(HL)
0672F 57       LD   D,A
06730 0687     LD   B,87
06732 18AD     JR   66E1
06734 CD8F65   CALL 658F
06737 C8       RET  Z
06738 3E28     LD   A,28
0673A 214067   LD   HL,6740
0673D C33669   JP   6936
06740 B7       OR   A
06741 80       ADD  A,B
06742 90       SUB  B
06743 FF       RST  38
06744 83       ADD  A,E
06745 00       NOP  
06746 D1       POP  DE
06747 45       LD   B,L
06748 80       ADD  A,B
06749 00       NOP  
0674A F1       POP  AF
0674B 54       LD   D,H
0674C 80       ADD  A,B
0674D 00       NOP  
0674E D5       PUSH DE
0674F 65       LD   H,L
06750 80       ADD  A,B
06751 00       NOP  
06752 70       LD   (HL),B
06753 66       LD   H,(HL)
06754 80       ADD  A,B
06755 65       LD   H,L
06756 65       LD   H,L
06757 65       LD   H,L
06758 64       LD   H,H
06759 57       LD   D,A
0675A 56       LD   D,(HL)
0675B 55       LD   D,L
0675C 54       LD   D,H
0675D 54       LD   D,H
0675E 54       LD   D,H
0675F 54       LD   D,H
06760 54       LD   D,H
06761 47       LD   B,A
06762 46       LD   B,(HL)
06763 46       LD   B,(HL)
06764 45       LD   B,L
06765 45       LD   B,L
06766 45       LD   B,L
06767 44       LD   B,H
06768 44       LD   B,H
06769 44       LD   B,H
0676A 34       INC  (HL)
0676B 34       INC  (HL)
0676C 34       INC  (HL)
0676D 34       INC  (HL)
0676E 34       INC  (HL)
0676F 34       INC  (HL)
06770 34       INC  (HL)
06771 34       INC  (HL)
06772 34       INC  (HL)
06773 34       INC  (HL)
06774 34       INC  (HL)
06775 34       INC  (HL)
06776 34       INC  (HL)
06777 34       INC  (HL)
06778 34       INC  (HL)
06779 70       LD   (HL),B
0677A 60       LD   H,B
0677B 70       LD   (HL),B
0677C 70       LD   (HL),B
0677D 70       LD   (HL),B
0677E 80       ADD  A,B
0677F 90       SUB  B
06780 A0       AND  B
06781 D0       RET  NC
06782 F0E0     IN   A,(E0)
06784 D0       RET  NC
06785 C0       RET  NZ
06786 B0       OR   B
06787 A0       AND  B
06788 90       SUB  B
06789 80       ADD  A,B
0678A 70       LD   (HL),B
0678B 60       LD   H,B
0678C 50       LD   D,B
0678D 40       LD   B,B
0678E 3030     JR   NC,67C0
06790 2020     JR   NZ,67B2
06792 2020     JR   NZ,67B4
06794 2020     JR   NZ,67B6
06796 2020     JR   NZ,67B8
06798 2020     JR   NZ,67BA
0679A 2010     JR   NZ,67AC
0679C 103E     DJNZ 67DC
0679E 3021     JR   NC,67C1
067A0 4D       LD   C,L
067A1 67       LD   H,A
067A2 C33669   JP   6936
067A5 3E30     LD   A,30
067A7 215167   LD   HL,6751
067AA C33669   JP   6936
067AD CD8B69   CALL 698B
067B0 A7       AND  A
067B1 C0       RET  NZ
067B2 21FCDF   LD   HL,DFFC
067B5 7E       LD   A,(HL)
067B6 4F       LD   C,A
067B7 FE24     CP   24
067B9 CAE967   JP   Z,67E9
067BC 34       INC  (HL)
067BD 0600     LD   B,00
067BF C5       PUSH BC
067C0 215567   LD   HL,6755
067C3 09       ADD  HL,BC
067C4 7E       LD   A,(HL)
067C5 E022     OUT  (22),A
067C7 C1       POP  BC
067C8 217967   LD   HL,6779
067CB 09       ADD  HL,BC
067CC 7E       LD   A,(HL)
067CD E021     OUT  (21),A
067CF 3E80     LD   A,80
067D1 E023     OUT  (23),A
067D3 C9       RET  
067D4 3E20     LD   A,20
067D6 214967   LD   HL,6749
067D9 C33669   JP   6936
067DC 3E12     LD   A,12
067DE 214567   LD   HL,6745
067E1 C33669   JP   6936
067E4 CD8B69   CALL 698B
067E7 A7       AND  A
067E8 C0       RET  NZ
067E9 AF       XOR  A
067EA EAF9DF   LD   (DFF9),A
067ED 3E08     LD   A,08
067EF E021     OUT  (21),A
067F1 3E80     LD   A,80
067F3 E023     OUT  (23),A
067F5 21CFDF   LD   HL,DFCF
067F8 CBBE     RES  7,(HL)
067FA C9       RET  
067FB 80       ADD  A,B
067FC 3A       HL-- A,(HL)
067FD 2060     JR   NZ,685F
067FF C621     ADD  A,21
06801 D9       RETI 
06802 6E       LD   L,(HL)
06803 CD0D69   CALL 690D
06806 F004     IN   A,(04)
06808 E61F     AND  1F
0680A 47       LD   B,A
0680B 3ED0     LD   A,D0
0680D 80       ADD  A,B
0680E EAF5DF   LD   (DFF5),A
06811 21FB67   LD   HL,67FB
06814 C36469   JP   6964
06817 F004     IN   A,(04)
06819 E60F     AND  0F
0681B 47       LD   B,A
0681C 21F4DF   LD   HL,DFF4
0681F 34       INC  (HL)
06820 7E       LD   A,(HL)
06821 21F5DF   LD   HL,DFF5
06824 FE0E     CP   0E
06826 300A     JR   NC,6832
06828 34       INC  (HL)
06829 34       INC  (HL)
0682A 7E       LD   A,(HL)
0682B E6F0     AND  F0
0682D B0       OR   B
0682E 0E1D     LD   C,1D
06830 E2       OUT  (C),A
06831 C9       RET  
06832 FE1E     CP   1E
06834 CAE268   JP   Z,68E2
06837 35       DEC  (HL)
06838 35       DEC  (HL)
06839 35       DEC  (HL)
0683A 18EE     JR   682A
0683C FAF0DF   LD   A,(DFF0)
0683F FE01     CP   01
06841 CA6B68   JP   Z,686B
06844 FE02     CP   02
06846 CA0068   JP   Z,6800
06849 FAF1DF   LD   A,(DFF1)
0684C FE01     CP   01
0684E CAB668   JP   Z,68B6
06851 FE02     CP   02
06853 CA1768   JP   Z,6817
06856 C9       RET  
06857 80       ADD  A,B
06858 80       ADD  A,B
06859 209D     JR   NZ,67F8
0685B 87       ADD  A,A
0685C 80       ADD  A,B
0685D F8       RET  M
0685E 2098     JR   NZ,67F8
06860 87       ADD  A,A
06861 80       ADD  A,B
06862 FB       EI   
06863 2096     JR   NZ,67FB
06865 87       ADD  A,A
06866 80       ADD  A,B
06867 F620     OR   20
06869 95       SUB  L
0686A 87       ADD  A,A
0686B 21A96E   LD   HL,6EA9
0686E CD0D69   CALL 690D
06871 215A68   LD   HL,685A
06874 7E       LD   A,(HL)
06875 EAF6DF   LD   (DFF6),A
06878 3E01     LD   A,01
0687A EAF5DF   LD   (DFF5),A
0687D 215768   LD   HL,6857
06880 C36469   JP   6964
06883 3E00     LD   A,00
06885 EAF5DF   LD   (DFF5),A
06888 215F68   LD   HL,685F
0688B 7E       LD   A,(HL)
0688C EAF6DF   LD   (DFF6),A
0688F 215C68   LD   HL,685C
06892 18EC     JR   6880
06894 3E01     LD   A,01
06896 EAF5DF   LD   (DFF5),A
06899 216468   LD   HL,6864
0689C 7E       LD   A,(HL)
0689D EAF6DF   LD   (DFF6),A
068A0 216168   LD   HL,6861
068A3 18DB     JR   6880
068A5 3E02     LD   A,02
068A7 EAF5DF   LD   (DFF5),A
068AA 216968   LD   HL,6869
068AD 7E       LD   A,(HL)
068AE EAF6DF   LD   (DFF6),A
068B1 216668   LD   HL,6866
068B4 18CA     JR   6880
068B6 21F4DF   LD   HL,DFF4
068B9 34       INC  (HL)
068BA 2A       HL++ A,(HL)
068BB FE09     CP   09
068BD 28C4     JR   Z,6883
068BF FE13     CP   13
068C1 28D1     JR   Z,6894
068C3 FE17     CP   17
068C5 28DE     JR   Z,68A5
068C7 FE20     CP   20
068C9 2817     JR   Z,68E2
068CB 2A       HL++ A,(HL)
068CC FE00     CP   00
068CE C8       RET  Z
068CF FE01     CP   01
068D1 2805     JR   Z,68D8
068D3 FE02     CP   02
068D5 2805     JR   Z,68DC
068D7 C9       RET  
068D8 34       INC  (HL)
068D9 34       INC  (HL)
068DA 1802     JR   68DE
068DC 35       DEC  (HL)
068DD 35       DEC  (HL)
068DE 7E       LD   A,(HL)
068DF E01D     OUT  (1D),A
068E1 C9       RET  
068E2 AF       XOR  A
068E3 EAF1DF   LD   (DFF1),A
068E6 E01A     OUT  (1A),A
068E8 21BFDF   LD   HL,DFBF
068EB CBBE     RES  7,(HL)
068ED 219FDF   LD   HL,DF9F
068F0 CBBE     RES  7,(HL)
068F2 21AFDF   LD   HL,DFAF
068F5 CBBE     RES  7,(HL)
068F7 21CFDF   LD   HL,DFCF
068FA CBBE     RES  7,(HL)
068FC FAE9DF   LD   A,(DFE9)
068FF FE05     CP   05
06901 2805     JR   Z,6908
06903 21E96E   LD   HL,6EE9
06906 182A     JR   6932
06908 21C96E   LD   HL,6EC9
0690B 1825     JR   6932
0690D E5       PUSH HL
0690E EAF1DF   LD   (DFF1),A
06911 21BFDF   LD   HL,DFBF
06914 CBFE     SET  7,(HL)
06916 AF       XOR  A
06917 EAF4DF   LD   (DFF4),A
0691A EAF5DF   LD   (DFF5),A
0691D EAF6DF   LD   (DFF6),A
06920 E01A     OUT  (1A),A
06922 219FDF   LD   HL,DF9F
06925 CBFE     SET  7,(HL)
06927 21AFDF   LD   HL,DFAF
0692A CBFE     SET  7,(HL)
0692C 21CFDF   LD   HL,DFCF
0692F CBFE     SET  7,(HL)
06931 E1       POP  HL
06932 CD9869   CALL 6998
06935 C9       RET  
06936 F5       PUSH AF
06937 1D       DEC  E
06938 FA71DF   LD   A,(DF71)
0693B 12       LD   (DE),A
0693C 1C       INC  E
0693D F1       POP  AF
0693E 1C       INC  E
0693F 12       LD   (DE),A
06940 1D       DEC  E
06941 AF       XOR  A
06942 12       LD   (DE),A
06943 1C       INC  E
06944 1C       INC  E
06945 12       LD   (DE),A
06946 1C       INC  E
06947 12       LD   (DE),A
06948 7B       LD   A,E
06949 FEE5     CP   E5
0694B 2809     JR   Z,6956
0694D FEF5     CP   F5
0694F 2813     JR   Z,6964
06951 FEFD     CP   FD
06953 2816     JR   Z,696B
06955 C9       RET  
06956 C5       PUSH BC
06957 0E10     LD   C,10
06959 0605     LD   B,05
0695B 1813     JR   6970
0695D C5       PUSH BC
0695E 0E16     LD   C,16
06960 0604     LD   B,04
06962 180C     JR   6970
06964 C5       PUSH BC
06965 0E1A     LD   C,1A
06967 0605     LD   B,05
06969 1805     JR   6970
0696B C5       PUSH BC
0696C 0E20     LD   C,20
0696E 0604     LD   B,04
06970 2A       HL++ A,(HL)
06971 E2       OUT  (C),A
06972 0C       INC  C
06973 05       DEC  B
06974 20FA     JR   NZ,6970
06976 C1       POP  BC
06977 C9       RET  
06978 1C       INC  E
06979 EA71DF   LD   (DF71),A
0697C 1C       INC  E
0697D 3D       DEC  A
0697E CB27     SLA  A
06980 4F       LD   C,A
06981 0600     LD   B,00
06983 09       ADD  HL,BC
06984 4E       LD   C,(HL)
06985 23       INC  HL
06986 46       LD   B,(HL)
06987 69       LD   L,C
06988 60       LD   H,B
06989 7C       LD   A,H
0698A C9       RET  
0698B D5       PUSH DE
0698C 6B       LD   L,E
0698D 62       LD   H,D
0698E 34       INC  (HL)
0698F 2A       HL++ A,(HL)
06990 BE       CP   (HL)
06991 2003     JR   NZ,6996
06993 2D       DEC  L
06994 AF       XOR  A
06995 77       LD   (HL),A
06996 D1       POP  DE
06997 C9       RET  
06998 C5       PUSH BC
06999 0E30     LD   C,30
0699B 2A       HL++ A,(HL)
0699C E2       OUT  (C),A
0699D 0C       INC  C
0699E 79       LD   A,C
0699F FE40     CP   40
069A1 20F8     JR   NZ,699B
069A3 C1       POP  BC
069A4 C9       RET  
069A5 AF       XOR  A
069A6 EAE1DF   LD   (DFE1),A
069A9 EAE9DF   LD   (DFE9),A
069AC EAF1DF   LD   (DFF1),A
069AF EAF9DF   LD   (DFF9),A
069B2 EA9FDF   LD   (DF9F),A
069B5 EAAFDF   LD   (DFAF),A
069B8 EABFDF   LD   (DFBF),A
069BB EACFDF   LD   (DFCF),A
069BE 3EFF     LD   A,FF
069C0 E025     OUT  (25),A
069C2 3E03     LD   A,03
069C4 EA78DF   LD   (DF78),A
069C7 3E08     LD   A,08
069C9 E012     OUT  (12),A
069CB E017     OUT  (17),A
069CD E021     OUT  (21),A
069CF 3E80     LD   A,80
069D1 E014     OUT  (14),A
069D3 E019     OUT  (19),A
069D5 E023     OUT  (23),A
069D7 AF       XOR  A
069D8 E010     OUT  (10),A
069DA E01A     OUT  (1A),A
069DC C9       RET  
069DD 11E0DF   LD   DE,DFE0
069E0 1A       LD   A,(DE)
069E1 A7       AND  A
069E2 280C     JR   Z,69F0
069E4 219FDF   LD   HL,DF9F
069E7 CBFE     SET  7,(HL)
069E9 218064   LD   HL,6480
069EC CD7869   CALL 6978
069EF E9       JP   (HL)
069F0 1C       INC  E
069F1 1A       LD   A,(DE)
069F2 A7       AND  A
069F3 2807     JR   Z,69FC
069F5 219064   LD   HL,6490
069F8 CD7C69   CALL 697C
069FB E9       JP   (HL)
069FC C9       RET  
069FD 11F8DF   LD   DE,DFF8
06A00 1A       LD   A,(DE)
06A01 A7       AND  A
06A02 280C     JR   Z,6A10
06A04 21CFDF   LD   HL,DFCF
06A07 CBFE     SET  7,(HL)
06A09 21A064   LD   HL,64A0
06A0C CD7869   CALL 6978
06A0F E9       JP   (HL)
06A10 1C       INC  E
06A11 1A       LD   A,(DE)
06A12 A7       AND  A
06A13 2807     JR   Z,6A1C
06A15 21A864   LD   HL,64A8
06A18 CD7C69   CALL 697C
06A1B E9       JP   (HL)
06A1C C9       RET  
06A1D CDA569   CALL 69A5
06A20 C9       RET  
06A21 21E8DF   LD   HL,DFE8
06A24 2A       HL++ A,(HL)
06A25 A7       AND  A
06A26 C8       RET  Z
06A27 FEFF     CP   FF
06A29 28F2     JR   Z,6A1D
06A2B 77       LD   (HL),A
06A2C 47       LD   B,A
06A2D 21B064   LD   HL,64B0
06A30 E61F     AND  1F
06A32 CD7C69   CALL 697C
06A35 CD136B   CALL 6B13
06A38 CD3C6A   CALL 6A3C
06A3B C9       RET  
06A3C FAE9DF   LD   A,(DFE9)
06A3F A7       AND  A
06A40 C8       RET  Z
06A41 21BE6A   LD   HL,6ABE
06A44 3D       DEC  A
06A45 2806     JR   Z,6A4D
06A47 23       INC  HL
06A48 23       INC  HL
06A49 23       INC  HL
06A4A 23       INC  HL
06A4B 18F7     JR   6A44
06A4D 2A       HL++ A,(HL)
06A4E EA78DF   LD   (DF78),A
06A51 2A       HL++ A,(HL)
06A52 EA76DF   LD   (DF76),A
06A55 2A       HL++ A,(HL)
06A56 EA79DF   LD   (DF79),A
06A59 2A       HL++ A,(HL)
06A5A EA7ADF   LD   (DF7A),A
06A5D AF       XOR  A
06A5E EA75DF   LD   (DF75),A
06A61 EA77DF   LD   (DF77),A
06A64 C9       RET  
06A65 FAE9DF   LD   A,(DFE9)
06A68 A7       AND  A
06A69 283D     JR   Z,6AA8
06A6B 2175DF   LD   HL,DF75
06A6E FA78DF   LD   A,(DF78)
06A71 FE01     CP   01
06A73 2837     JR   Z,6AAC
06A75 FE03     CP   03
06A77 282F     JR   Z,6AA8
06A79 34       INC  (HL)
06A7A 2A       HL++ A,(HL)
06A7B BE       CP   (HL)
06A7C 2033     JR   NZ,6AB1
06A7E 2D       DEC  L
06A7F 3600     LD   (HL),00
06A81 2C       INC  L
06A82 2C       INC  L
06A83 34       INC  (HL)
06A84 FA79DF   LD   A,(DF79)
06A87 CB46     BIT  0,(HL)
06A89 CA8F6A   JP   Z,6A8F
06A8C FA7ADF   LD   A,(DF7A)
06A8F 47       LD   B,A
06A90 FAF1DF   LD   A,(DFF1)
06A93 A7       AND  A
06A94 2804     JR   Z,6A9A
06A96 CBD0     SET  2,B
06A98 CBF0     SET  6,B
06A9A FAF9DF   LD   A,(DFF9)
06A9D A7       AND  A
06A9E 2804     JR   Z,6AA4
06AA0 CBD8     SET  3,B
06AA2 CBF8     SET  7,B
06AA4 78       LD   A,B
06AA5 E025     OUT  (25),A
06AA7 C9       RET  
06AA8 3EFF     LD   A,FF
06AAA 18F9     JR   6AA5
06AAC FA79DF   LD   A,(DF79)
06AAF 18DE     JR   6A8F
06AB1 FAF9DF   LD   A,(DFF9)
06AB4 A7       AND  A
06AB5 20F1     JR   NZ,6AA8
06AB7 FAF1DF   LD   A,(DFF1)
06ABA A7       AND  A
06ABB 20EB     JR   NZ,6AA8
06ABD C9       RET  
06ABE 0124EF   LD   BC,EF24
06AC1 56       LD   D,(HL)
06AC2 0100E5   LD   BC,E500
06AC5 00       NOP  
06AC6 0120FD   LD   BC,FD20
06AC9 00       NOP  
06ACA 0120DE   LD   BC,DE20
06ACD F7       RST  30
06ACE 03       INC  BC
06ACF 187F     JR   6B50
06AD1 F7       RST  30
06AD2 03       INC  BC
06AD3 18F7     JR   6ACC
06AD5 7F       LD   A,A
06AD6 03       INC  BC
06AD7 48       LD   C,B
06AD8 DF       RST  18
06AD9 5B       LD   E,E
06ADA 0118DB   LD   BC,DB18
06ADD E7       RST  20
06ADE 0100FD   LD   BC,FD00
06AE1 F7       RST  30
06AE2 03       INC  BC
06AE3 207F     JR   NZ,6B64
06AE5 F7       RST  30
06AE6 0120ED   LD   BC,ED20
06AE9 F7       RST  30
06AEA 0120ED   LD   BC,ED20
06AED F7       RST  30
06AEE 0120ED   LD   BC,ED20
06AF1 F7       RST  30
06AF2 0120ED   LD   BC,ED20
06AF5 F7       RST  30
06AF6 0120ED   LD   BC,ED20
06AF9 F7       RST  30
06AFA 0120EF   LD   BC,EF20
06AFD F7       RST  30
06AFE 0120EF   LD   BC,EF20
06B01 F7       RST  30
06B02 2A       HL++ A,(HL)
06B03 4F       LD   C,A
06B04 7E       LD   A,(HL)
06B05 47       LD   B,A
06B06 0A       LD   A,(BC)
06B07 12       LD   (DE),A
06B08 1C       INC  E
06B09 03       INC  BC
06B0A 0A       LD   A,(BC)
06B0B 12       LD   (DE),A
06B0C C9       RET  
06B0D 2A       HL++ A,(HL)
06B0E 12       LD   (DE),A
06B0F 1C       INC  E
06B10 2A       HL++ A,(HL)
06B11 12       LD   (DE),A
06B12 C9       RET  
06B13 CDC769   CALL 69C7
06B16 AF       XOR  A
06B17 EA75DF   LD   (DF75),A
06B1A EA77DF   LD   (DF77),A
06B1D 1180DF   LD   DE,DF80
06B20 0600     LD   B,00
06B22 2A       HL++ A,(HL)
06B23 12       LD   (DE),A
06B24 1C       INC  E
06B25 CD0D6B   CALL 6B0D
06B28 1190DF   LD   DE,DF90
06B2B CD0D6B   CALL 6B0D
06B2E 11A0DF   LD   DE,DFA0
06B31 CD0D6B   CALL 6B0D
06B34 11B0DF   LD   DE,DFB0
06B37 CD0D6B   CALL 6B0D
06B3A 11C0DF   LD   DE,DFC0
06B3D CD0D6B   CALL 6B0D
06B40 2190DF   LD   HL,DF90
06B43 1194DF   LD   DE,DF94
06B46 CD026B   CALL 6B02
06B49 21A0DF   LD   HL,DFA0
06B4C 11A4DF   LD   DE,DFA4
06B4F CD026B   CALL 6B02
06B52 21B0DF   LD   HL,DFB0
06B55 11B4DF   LD   DE,DFB4
06B58 CD026B   CALL 6B02
06B5B 21C0DF   LD   HL,DFC0
06B5E 11C4DF   LD   DE,DFC4
06B61 CD026B   CALL 6B02
06B64 011004   LD   BC,0410
06B67 2192DF   LD   HL,DF92
06B6A 3601     LD   (HL),01
06B6C 79       LD   A,C
06B6D 85       ADD  A,L
06B6E 6F       LD   L,A
06B6F 05       DEC  B
06B70 20F8     JR   NZ,6B6A
06B72 AF       XOR  A
06B73 EA9EDF   LD   (DF9E),A
06B76 EAAEDF   LD   (DFAE),A
06B79 EABEDF   LD   (DFBE),A
06B7C C9       RET  
06B7D E5       PUSH HL
06B7E AF       XOR  A
06B7F E01A     OUT  (1A),A
06B81 6B       LD   L,E
06B82 62       LD   H,D
06B83 CD9869   CALL 6998
06B86 E1       POP  HL
06B87 182A     JR   6BB3
06B89 CDB96B   CALL 6BB9
06B8C CDCE6B   CALL 6BCE
06B8F 5F       LD   E,A
06B90 CDB96B   CALL 6BB9
06B93 CDCE6B   CALL 6BCE
06B96 57       LD   D,A
06B97 CDB96B   CALL 6BB9
06B9A CDCE6B   CALL 6BCE
06B9D 4F       LD   C,A
06B9E 2C       INC  L
06B9F 2C       INC  L
06BA0 73       LD   (HL),E
06BA1 2C       INC  L
06BA2 72       LD   (HL),D
06BA3 2C       INC  L
06BA4 71       LD   (HL),C
06BA5 2D       DEC  L
06BA6 2D       DEC  L
06BA7 2D       DEC  L
06BA8 2D       DEC  L
06BA9 E5       PUSH HL
06BAA 2170DF   LD   HL,DF70
06BAD 7E       LD   A,(HL)
06BAE E1       POP  HL
06BAF FE03     CP   03
06BB1 28CA     JR   Z,6B7D
06BB3 CDB96B   CALL 6BB9
06BB6 C35E6C   JP   6C5E
06BB9 D5       PUSH DE
06BBA 2A       HL++ A,(HL)
06BBB 5F       LD   E,A
06BBC 3A       HL-- A,(HL)
06BBD 57       LD   D,A
06BBE 13       INC  DE
06BBF 7B       LD   A,E
06BC0 22       HL++ (HL),A
06BC1 7A       LD   A,D
06BC2 32       HL-- (HL),A
06BC3 D1       POP  DE
06BC4 C9       RET  
06BC5 D5       PUSH DE
06BC6 2A       HL++ A,(HL)
06BC7 5F       LD   E,A
06BC8 3A       HL-- A,(HL)
06BC9 57       LD   D,A
06BCA 13       INC  DE
06BCB 13       INC  DE
06BCC 18F1     JR   6BBF
06BCE 2A       HL++ A,(HL)
06BCF 4F       LD   C,A
06BD0 3A       HL-- A,(HL)
06BD1 47       LD   B,A
06BD2 0A       LD   A,(BC)
06BD3 47       LD   B,A
06BD4 C9       RET  
06BD5 E1       POP  HL
06BD6 182C     JR   6C04
06BD8 FA70DF   LD   A,(DF70)
06BDB FE03     CP   03
06BDD 2010     JR   NZ,6BEF
06BDF FAB8DF   LD   A,(DFB8)
06BE2 CB7F     BIT  7,A
06BE4 2809     JR   Z,6BEF
06BE6 7E       LD   A,(HL)
06BE7 FE06     CP   06
06BE9 2004     JR   NZ,6BEF
06BEB 3E40     LD   A,40
06BED E01C     OUT  (1C),A
06BEF E5       PUSH HL
06BF0 7D       LD   A,L
06BF1 C609     ADD  A,09
06BF3 6F       LD   L,A
06BF4 7E       LD   A,(HL)
06BF5 A7       AND  A
06BF6 20DD     JR   NZ,6BD5
06BF8 7D       LD   A,L
06BF9 C604     ADD  A,04
06BFB 6F       LD   L,A
06BFC CB7E     BIT  7,(HL)
06BFE 20D5     JR   NZ,6BD5
06C00 E1       POP  HL
06C01 CD676D   CALL 6D67
06C04 2D       DEC  L
06C05 2D       DEC  L
06C06 C3396D   JP   6D39
06C09 2D       DEC  L
06C0A 2D       DEC  L
06C0B 2D       DEC  L
06C0C 2D       DEC  L
06C0D CDC56B   CALL 6BC5
06C10 7D       LD   A,L
06C11 C604     ADD  A,04
06C13 5F       LD   E,A
06C14 54       LD   D,H
06C15 CD026B   CALL 6B02
06C18 FE00     CP   00
06C1A 281F     JR   Z,6C3B
06C1C FEFF     CP   FF
06C1E 2804     JR   Z,6C24
06C20 2C       INC  L
06C21 C35C6C   JP   6C5C
06C24 2D       DEC  L
06C25 E5       PUSH HL
06C26 CDC56B   CALL 6BC5
06C29 CDCE6B   CALL 6BCE
06C2C 5F       LD   E,A
06C2D CDB96B   CALL 6BB9
06C30 CDCE6B   CALL 6BCE
06C33 57       LD   D,A
06C34 E1       POP  HL
06C35 7B       LD   A,E
06C36 22       HL++ (HL),A
06C37 7A       LD   A,D
06C38 32       HL-- (HL),A
06C39 18D5     JR   6C10
06C3B 21E9DF   LD   HL,DFE9
06C3E 3600     LD   (HL),00
06C40 CDA569   CALL 69A5
06C43 C9       RET  
06C44 21E9DF   LD   HL,DFE9
06C47 7E       LD   A,(HL)
06C48 A7       AND  A
06C49 C8       RET  Z
06C4A 3E01     LD   A,01
06C4C EA70DF   LD   (DF70),A
06C4F 2190DF   LD   HL,DF90
06C52 2C       INC  L
06C53 2A       HL++ A,(HL)
06C54 A7       AND  A
06C55 CA046C   JP   Z,6C04
06C58 35       DEC  (HL)
06C59 C2D86B   JP   NZ,6BD8
06C5C 2C       INC  L
06C5D 2C       INC  L
06C5E CDCE6B   CALL 6BCE
06C61 FE00     CP   00
06C63 CA096C   JP   Z,6C09
06C66 FE9D     CP   9D
06C68 CA896B   JP   Z,6B89
06C6B E6F0     AND  F0
06C6D FEA0     CP   A0
06C6F 201A     JR   NZ,6C8B
06C71 78       LD   A,B
06C72 E60F     AND  0F
06C74 4F       LD   C,A
06C75 0600     LD   B,00
06C77 E5       PUSH HL
06C78 1181DF   LD   DE,DF81
06C7B 1A       LD   A,(DE)
06C7C 6F       LD   L,A
06C7D 13       INC  DE
06C7E 1A       LD   A,(DE)
06C7F 67       LD   H,A
06C80 09       ADD  HL,BC
06C81 7E       LD   A,(HL)
06C82 E1       POP  HL
06C83 2D       DEC  L
06C84 22       HL++ (HL),A
06C85 CDB96B   CALL 6BB9
06C88 CDCE6B   CALL 6BCE
06C8B 78       LD   A,B
06C8C 4F       LD   C,A
06C8D 0600     LD   B,00
06C8F CDB96B   CALL 6BB9
06C92 FA70DF   LD   A,(DF70)
06C95 FE04     CP   04
06C97 CABC6C   JP   Z,6CBC
06C9A E5       PUSH HL
06C9B 7D       LD   A,L
06C9C C605     ADD  A,05
06C9E 6F       LD   L,A
06C9F 5D       LD   E,L
06CA0 54       LD   D,H
06CA1 2C       INC  L
06CA2 2C       INC  L
06CA3 79       LD   A,C
06CA4 FE01     CP   01
06CA6 280F     JR   Z,6CB7
06CA8 3600     LD   (HL),00
06CAA 21026E   LD   HL,6E02
06CAD 09       ADD  HL,BC
06CAE 2A       HL++ A,(HL)
06CAF 12       LD   (DE),A
06CB0 1C       INC  E
06CB1 7E       LD   A,(HL)
06CB2 12       LD   (DE),A
06CB3 E1       POP  HL
06CB4 C3D36C   JP   6CD3
06CB7 3601     LD   (HL),01
06CB9 E1       POP  HL
06CBA 1817     JR   6CD3
06CBC E5       PUSH HL
06CBD 11C6DF   LD   DE,DFC6
06CC0 21946E   LD   HL,6E94
06CC3 09       ADD  HL,BC
06CC4 2A       HL++ A,(HL)
06CC5 12       LD   (DE),A
06CC6 1C       INC  E
06CC7 7B       LD   A,E
06CC8 FECB     CP   CB
06CCA 20F8     JR   NZ,6CC4
06CCC 0E20     LD   C,20
06CCE 21C4DF   LD   HL,DFC4
06CD1 182E     JR   6D01
06CD3 E5       PUSH HL
06CD4 FA70DF   LD   A,(DF70)
06CD7 FE01     CP   01
06CD9 2821     JR   Z,6CFC
06CDB FE02     CP   02
06CDD 2819     JR   Z,6CF8
06CDF 0E1A     LD   C,1A
06CE1 FABFDF   LD   A,(DFBF)
06CE4 CB7F     BIT  7,A
06CE6 2005     JR   NZ,6CED
06CE8 AF       XOR  A
06CE9 E2       OUT  (C),A
06CEA 3E80     LD   A,80
06CEC E2       OUT  (C),A
06CED 0C       INC  C
06CEE 2C       INC  L
06CEF 2C       INC  L
06CF0 2C       INC  L
06CF1 2C       INC  L
06CF2 2A       HL++ A,(HL)
06CF3 5F       LD   E,A
06CF4 1600     LD   D,00
06CF6 1815     JR   6D0D
06CF8 0E16     LD   C,16
06CFA 1805     JR   6D01
06CFC 0E10     LD   C,10
06CFE 3E00     LD   A,00
06D00 0C       INC  C
06D01 2C       INC  L
06D02 2C       INC  L
06D03 2C       INC  L
06D04 3A       HL-- A,(HL)
06D05 A7       AND  A
06D06 204F     JR   NZ,6D57
06D08 2A       HL++ A,(HL)
06D09 5F       LD   E,A
06D0A 2C       INC  L
06D0B 2A       HL++ A,(HL)
06D0C 57       LD   D,A
06D0D E5       PUSH HL
06D0E 2C       INC  L
06D0F 2C       INC  L
06D10 2A       HL++ A,(HL)
06D11 A7       AND  A
06D12 2802     JR   Z,6D16
06D14 1E01     LD   E,01
06D16 2C       INC  L
06D17 2C       INC  L
06D18 3600     LD   (HL),00
06D1A 2C       INC  L
06D1B 7E       LD   A,(HL)
06D1C E1       POP  HL
06D1D CB7F     BIT  7,A
06D1F 2013     JR   NZ,6D34
06D21 7A       LD   A,D
06D22 E2       OUT  (C),A
06D23 0C       INC  C
06D24 7B       LD   A,E
06D25 E2       OUT  (C),A
06D26 0C       INC  C
06D27 2A       HL++ A,(HL)
06D28 E2       OUT  (C),A
06D29 0C       INC  C
06D2A 7E       LD   A,(HL)
06D2B F680     OR   80
06D2D E2       OUT  (C),A
06D2E 7D       LD   A,L
06D2F F605     OR   05
06D31 6F       LD   L,A
06D32 CB86     RES  0,(HL)
06D34 E1       POP  HL
06D35 2D       DEC  L
06D36 3A       HL-- A,(HL)
06D37 32       HL-- (HL),A
06D38 2D       DEC  L
06D39 1170DF   LD   DE,DF70
06D3C 1A       LD   A,(DE)
06D3D FE04     CP   04
06D3F 2809     JR   Z,6D4A
06D41 3C       INC  A
06D42 12       LD   (DE),A
06D43 111000   LD   DE,0010
06D46 19       ADD  HL,DE
06D47 C3526C   JP   6C52
06D4A 219EDF   LD   HL,DF9E
06D4D 34       INC  (HL)
06D4E 21AEDF   LD   HL,DFAE
06D51 34       INC  (HL)
06D52 21BEDF   LD   HL,DFBE
06D55 34       INC  (HL)
06D56 C9       RET  
06D57 0600     LD   B,00
06D59 E5       PUSH HL
06D5A E1       POP  HL
06D5B 2C       INC  L
06D5C 18AC     JR   6D0A
06D5E 78       LD   A,B
06D5F CB3F     SRL  A
06D61 6F       LD   L,A
06D62 2600     LD   H,00
06D64 19       ADD  HL,DE
06D65 5E       LD   E,(HL)
06D66 C9       RET  
06D67 E5       PUSH HL
06D68 7D       LD   A,L
06D69 C606     ADD  A,06
06D6B 6F       LD   L,A
06D6C 7E       LD   A,(HL)
06D6D E60F     AND  0F
06D6F 2818     JR   Z,6D89
06D71 EA71DF   LD   (DF71),A
06D74 FA70DF   LD   A,(DF70)
06D77 0E13     LD   C,13
06D79 FE01     CP   01
06D7B 280E     JR   Z,6D8B
06D7D 0E18     LD   C,18
06D7F FE02     CP   02
06D81 2808     JR   Z,6D8B
06D83 0E1D     LD   C,1D
06D85 FE03     CP   03
06D87 2802     JR   Z,6D8B
06D89 E1       POP  HL
06D8A C9       RET  
06D8B 2C       INC  L
06D8C 2A       HL++ A,(HL)
06D8D 5F       LD   E,A
06D8E 7E       LD   A,(HL)
06D8F 57       LD   D,A
06D90 D5       PUSH DE
06D91 7D       LD   A,L
06D92 C604     ADD  A,04
06D94 6F       LD   L,A
06D95 46       LD   B,(HL)
06D96 FA71DF   LD   A,(DF71)
06D99 FE01     CP   01
06D9B 1809     JR   6DA6
06D9D FE03     CP   03
06D9F 1800     JR   6DA1
06DA1 21FFFF   LD   HL,FFFF
06DA4 181C     JR   6DC2
06DA6 11CB6D   LD   DE,6DCB
06DA9 CD5E6D   CALL 6D5E
06DAC CB40     BIT  0,B
06DAE 2002     JR   NZ,6DB2
06DB0 CB       DB   CB
06DB1 33       INC  SP
06DB2 7B       LD   A,E
06DB3 E60F     AND  0F
06DB5 CB5F     BIT  3,A
06DB7 2806     JR   Z,6DBF
06DB9 26FF     LD   H,FF
06DBB F6F0     OR   F0
06DBD 1802     JR   6DC1
06DBF 2600     LD   H,00
06DC1 6F       LD   L,A
06DC2 D1       POP  DE
06DC3 19       ADD  HL,DE
06DC4 7D       LD   A,L
06DC5 E2       OUT  (C),A
06DC6 0C       INC  C
06DC7 7C       LD   A,H
06DC8 E2       OUT  (C),A
06DC9 18BE     JR   6D89
06DCB 00       NOP  
06DCC 00       NOP  
06DCD 00       NOP  
06DCE 00       NOP  
06DCF 00       NOP  
06DD0 00       NOP  
06DD1 1000     DJNZ 6DD3
06DD3 0F       RRCA 
06DD4 00       NOP  
06DD5 00       NOP  
06DD6 11000F   LD   DE,0F00
06DD9 F001     IN   A,(01)
06DDB 12       LD   (DE),A
06DDC 10FF     DJNZ 6DDD
06DDE EF       RST  28
06DDF 011210   LD   BC,1012
06DE2 FF       RST  38
06DE3 EF       RST  28
06DE4 011210   LD   BC,1012
06DE7 FF       RST  38
06DE8 EF       RST  28
06DE9 011210   LD   BC,1012
06DEC FF       RST  38
06DED EF       RST  28
06DEE 011210   LD   BC,1012
06DF1 FF       RST  38
06DF2 EF       RST  28
06DF3 011210   LD   BC,1012
06DF6 FF       RST  38
06DF7 EF       RST  28
06DF8 011210   LD   BC,1012
06DFB FF       RST  38
06DFC EF       RST  28
06DFD 011210   LD   BC,1012
06E00 FF       RST  38
06E01 EF       RST  28
06E02 00       NOP  
06E03 0F       RRCA 
06E04 2C       INC  L
06E05 00       NOP  
06E06 9C       SBC  A,H
06E07 00       NOP  
06E08 0601     LD   B,01
06E0A 6B       LD   L,E
06E0B 01C901   LD   BC,01C9
06E0E 23       INC  HL
06E0F 02       LD   (BC),A
06E10 77       LD   (HL),A
06E11 02       LD   (BC),A
06E12 C602     ADD  A,02
06E14 12       LD   (DE),A
06E15 03       INC  BC
06E16 56       LD   D,(HL)
06E17 03       INC  BC
06E18 9B       SBC  A,E
06E19 03       INC  BC
06E1A DA0316   JP   C,1603
06E1D 04       INC  B
06E1E 4E       LD   C,(HL)
06E1F 04       INC  B
06E20 83       ADD  A,E
06E21 04       INC  B
06E22 B5       OR   L
06E23 04       INC  B
06E24 E5       PUSH HL
06E25 04       INC  B
06E26 11053B   LD   DE,3B05
06E29 05       DEC  B
06E2A 63       LD   H,E
06E2B 05       DEC  B
06E2C 89       ADC  A,C
06E2D 05       DEC  B
06E2E AC       XOR  H
06E2F 05       DEC  B
06E30 CE05     ADC  A,05
06E32 ED       DB   ED
06E33 05       DEC  B
06E34 0A       LD   A,(BC)
06E35 0627     LD   B,27
06E37 0642     LD   B,42
06E39 065B     LD   B,5B
06E3B 0672     LD   B,72
06E3D 0689     LD   B,89
06E3F 069E     LD   B,9E
06E41 06B2     LD   B,B2
06E43 06C4     LD   B,C4
06E45 06D6     LD   B,D6
06E47 06E7     LD   B,E7
06E49 06F7     LD   B,F7
06E4B 0606     LD   B,06
06E4D 07       RLCA 
06E4E 14       INC  D
06E4F 07       RLCA 
06E50 21072D   LD   HL,2D07
06E53 07       RLCA 
06E54 39       ADD  HL,SP
06E55 07       RLCA 
06E56 44       LD   B,H
06E57 07       RLCA 
06E58 4F       LD   C,A
06E59 07       RLCA 
06E5A 59       LD   E,C
06E5B 07       RLCA 
06E5C 62       LD   H,D
06E5D 07       RLCA 
06E5E 6B       LD   L,E
06E5F 07       RLCA 
06E60 73       LD   (HL),E
06E61 07       RLCA 
06E62 7B       LD   A,E
06E63 07       RLCA 
06E64 83       ADD  A,E
06E65 07       RLCA 
06E66 8A       ADC  A,D
06E67 07       RLCA 
06E68 90       SUB  B
06E69 07       RLCA 
06E6A 97       SUB  A
06E6B 07       RLCA 
06E6C 9D       SBC  A,L
06E6D 07       RLCA 
06E6E A2       AND  D
06E6F 07       RLCA 
06E70 A7       AND  A
06E71 07       RLCA 
06E72 AC       XOR  H
06E73 07       RLCA 
06E74 B1       OR   C
06E75 07       RLCA 
06E76 B6       OR   (HL)
06E77 07       RLCA 
06E78 BA       CP   D
06E79 07       RLCA 
06E7A BE       CP   (HL)
06E7B 07       RLCA 
06E7C C1       POP  BC
06E7D 07       RLCA 
06E7E C407C8   CALL NZ,C807
06E81 07       RLCA 
06E82 CB07     RLC  A
06E84 CE07     ADC  A,07
06E86 D1       POP  DE
06E87 07       RLCA 
06E88 D407D6   CALL NC,D607
06E8B 07       RLCA 
06E8C D9       RETI 
06E8D 07       RLCA 
06E8E DB       ???? 
06E8F 07       RLCA 
06E90 DD       DB   DD
06E91 07       RLCA 
06E92 DF       RST  18
06E93 07       RLCA 
06E94 00       NOP  
06E95 00       NOP  
06E96 00       NOP  
06E97 00       NOP  
06E98 00       NOP  
06E99 C0       RET  NZ
06E9A A1       AND  C
06E9B 00       NOP  
06E9C 3A       HL-- A,(HL)
06E9D 00       NOP  
06E9E C0       RET  NZ
06E9F B1       OR   C
06EA0 00       NOP  
06EA1 29       ADD  HL,HL
06EA2 01C061   LD   BC,61C0
06EA5 00       NOP  
06EA6 3A       HL-- A,(HL)
06EA7 00       NOP  
06EA8 C0       RET  NZ
06EA9 12       LD   (DE),A
06EAA 34       INC  (HL)
06EAB 45       LD   B,L
06EAC 67       LD   H,A
06EAD 9A       SBC  A,D
06EAE BC       CP   H
06EAF DEFE     SBC  A,FE
06EB1 98       SBC  A,B
06EB2 7A       LD   A,D
06EB3 B7       OR   A
06EB4 BE       CP   (HL)
06EB5 A8       XOR  B
06EB6 76       HALT 
06EB7 54       LD   D,H
06EB8 310123   LD   SP,2301
06EBB 44       LD   B,H
06EBC 55       LD   D,L
06EBD 67       LD   H,A
06EBE 88       ADC  A,B
06EBF 9A       SBC  A,D
06EC0 BB       CP   E
06EC1 A9       XOR  C
06EC2 88       ADC  A,B
06EC3 76       HALT 
06EC4 55       LD   D,L
06EC5 44       LD   B,H
06EC6 33       INC  SP
06EC7 22       HL++ (HL),A
06EC8 110123   LD   DE,2301
06ECB 45       LD   B,L
06ECC 67       LD   H,A
06ECD 89       ADC  A,C
06ECE AB       XOR  E
06ECF CDEFFE   CALL FEEF
06ED2 DCBA98   CALL C,98BA
06ED5 76       HALT 
06ED6 54       LD   D,H
06ED7 32       HL-- (HL),A
06ED8 10A1     DJNZ 6E7B
06EDA 82       ADD  A,D
06EDB 23       INC  HL
06EDC 34       INC  (HL)
06EDD 45       LD   B,L
06EDE 56       LD   D,(HL)
06EDF 67       LD   H,A
06EE0 78       LD   A,B
06EE1 89       ADC  A,C
06EE2 9A       SBC  A,D
06EE3 AB       XOR  E
06EE4 BC       CP   H
06EE5 CD6432   CALL 3264
06EE8 1011     DJNZ 6EFB
06EEA 23       INC  HL
06EEB 56       LD   D,(HL)
06EEC 78       LD   A,B
06EED 99       SBC  A,C
06EEE 98       SBC  A,B
06EEF 76       HALT 
06EF0 67       LD   H,A
06EF1 9A       SBC  A,D
06EF2 DF       RST  18
06EF3 FEC9     CP   C9
06EF5 85       ADD  A,L
06EF6 42       LD   B,D
06EF7 113102   LD   DE,0231
06EFA 04       INC  B
06EFB 08       EX   AF,AF
06EFC 1020     DJNZ 6F1E
06EFE 40       LD   B,B
06EFF 0C       INC  C
06F00 1830     JR   6F32
06F02 05       DEC  B
06F03 00       NOP  
06F04 010305   LD   BC,0503
06F07 0A       LD   A,(BC)
06F08 14       INC  D
06F09 2850     JR   Z,6F5B
06F0B 0F       RRCA 
06F0C 1E3C     LD   E,3C
06F0E 03       INC  BC
06F0F 060C     LD   B,0C
06F11 1830     JR   6F43
06F13 60       LD   H,B
06F14 12       LD   (DE),A
06F15 24       INC  H
06F16 48       LD   C,B
06F17 08       EX   AF,AF
06F18 1000     DJNZ 6F1A
06F1A 07       RLCA 
06F1B 0E1C     LD   C,1C
06F1D 3870     JR   C,6F8F
06F1F 15       DEC  D
06F20 2A       HL++ A,(HL)
06F21 54       LD   D,H
06F22 04       INC  B
06F23 08       EX   AF,AF
06F24 1020     DJNZ 6F46
06F26 40       LD   B,B
06F27 80       ADD  A,B
06F28 1830     JR   6F5A
06F2A 60       LD   H,B
06F2B 04       INC  B
06F2C 09       ADD  HL,BC
06F2D 12       LD   (DE),A
06F2E 24       INC  H
06F2F 48       LD   C,B
06F30 90       SUB  B
06F31 1B       DEC  DE
06F32 366C     LD   (HL),6C
06F34 0C       INC  C
06F35 1804     JR   6F3B
06F37 0A       LD   A,(BC)
06F38 14       INC  D
06F39 2850     JR   Z,6F8B
06F3B A0       AND  B
06F3C 1E3C     LD   E,3C
06F3E 78       LD   A,B
06F3F 00       NOP  
06F40 0E6F     LD   C,6F
06F42 F9       LD   SP,HL
06F43 7C       LD   A,H
06F44 FF       RST  38
06F45 7C       LD   A,H
06F46 117D21   LD   DE,217D
06F49 7D       LD   A,L
06F4A 00       NOP  
06F4B 05       DEC  B
06F4C 6F       LD   L,A
06F4D 48       LD   C,B
06F4E 7E       LD   A,(HL)
06F4F 44       LD   B,H
06F50 7E       LD   A,(HL)
06F51 4A       LD   C,D
06F52 7E       LD   A,(HL)
06F53 4C       LD   C,H
06F54 7E       LD   A,(HL)
06F55 00       NOP  
06F56 0E6F     LD   C,6F
06F58 3B       DEC  SP
06F59 76       HALT 
06F5A 33       INC  SP
06F5B 76       HALT 
06F5C 41       LD   B,C
06F5D 76       HALT 
06F5E 63       LD   H,E
06F5F 76       HALT 
06F60 00       NOP  
06F61 F9       LD   SP,HL
06F62 6E       LD   L,(HL)
06F63 00       NOP  
06F64 76       HALT 
06F65 FC7502   CALL M,0275
06F68 76       HALT 
06F69 00       NOP  
06F6A 00       NOP  
06F6B 00       NOP  
06F6C 0E6F     LD   C,6F
06F6E 4C       LD   C,H
06F6F 71       LD   (HL),C
06F70 42       LD   B,D
06F71 71       LD   (HL),C
06F72 56       LD   D,(HL)
06F73 71       LD   (HL),C
06F74 62       LD   H,D
06F75 71       LD   (HL),C
06F76 00       NOP  
06F77 0E6F     LD   C,6F
06F79 C672     ADD  A,72
06F7B B8       CP   B
06F7C 72       LD   (HL),D
06F7D D47202   CALL NC,0272
06F80 73       LD   (HL),E
06F81 00       NOP  
06F82 0E6F     LD   C,6F
06F84 08       EX   AF,AF
06F85 70       LD   (HL),B
06F86 FA6F00   LD   A,(006F)
06F89 00       NOP  
06F8A 00       NOP  
06F8B 00       NOP  
06F8C 00       NOP  
06F8D 05       DEC  B
06F8E 6F       LD   L,A
06F8F 9D       SBC  A,L
06F90 7E       LD   A,(HL)
06F91 91       SUB  C
06F92 7E       LD   A,(HL)
06F93 A9       XOR  C
06F94 7E       LD   A,(HL)
06F95 B5       OR   L
06F96 7E       LD   A,(HL)
06F97 00       NOP  
06F98 0E6F     LD   C,6F
06F9A 287C     JR   Z,7018
06F9C 24       INC  H
06F9D 7C       LD   A,H
06F9E 2A       HL++ A,(HL)
06F9F 7C       LD   A,H
06FA0 2C       INC  L
06FA1 7C       LD   A,H
06FA2 00       NOP  
06FA3 0E6F     LD   C,6F
06FA5 00       NOP  
06FA6 00       NOP  
06FA7 00       NOP  
06FA8 7A       LD   A,D
06FA9 00       NOP  
06FAA 00       NOP  
06FAB 00       NOP  
06FAC 00       NOP  
06FAD 00       NOP  
06FAE 0E6F     LD   C,6F
06FB0 00       NOP  
06FB1 00       NOP  
06FB2 267A     LD   H,7A
06FB4 2A       HL++ A,(HL)
06FB5 7A       LD   A,D
06FB6 00       NOP  
06FB7 00       NOP  
06FB8 00       NOP  
06FB9 0E6F     LD   C,6F
06FBB 73       LD   (HL),E
06FBC 7A       LD   A,D
06FBD 6F       LD   L,A
06FBE 7A       LD   A,D
06FBF 75       LD   (HL),L
06FC0 7A       LD   A,D
06FC1 00       NOP  
06FC2 00       NOP  
06FC3 00       NOP  
06FC4 0E6F     LD   C,6F
06FC6 DF       RST  18
06FC7 7A       LD   A,D
06FC8 E3       EX   (SP),HL
06FC9 7A       LD   A,D
06FCA E5       PUSH HL
06FCB 7A       LD   A,D
06FCC E7       RST  20
06FCD 7A       LD   A,D
06FCE 00       NOP  
06FCF 0E6F     LD   C,6F
06FD1 65       LD   H,L
06FD2 7B       LD   A,E
06FD3 6B       LD   L,E
06FD4 7B       LD   A,E
06FD5 6F       LD   L,A
06FD6 7B       LD   A,E
06FD7 73       LD   (HL),E
06FD8 7B       LD   A,E
06FD9 00       NOP  
06FDA 0E6F     LD   C,6F
06FDC 6C       LD   L,H
06FDD 78       LD   A,B
06FDE 76       HALT 
06FDF 78       LD   A,B
06FE0 7E       LD   A,(HL)
06FE1 78       LD   A,B
06FE2 86       ADD  A,(HL)
06FE3 78       LD   A,B
06FE4 00       NOP  
06FE5 2B       DEC  HL
06FE6 6F       LD   L,A
06FE7 43       LD   B,E
06FE8 75       LD   (HL),L
06FE9 4B       LD   C,E
06FEA 75       LD   (HL),L
06FEB 51       LD   D,C
06FEC 75       LD   (HL),L
06FED 00       NOP  
06FEE 00       NOP  
06FEF 00       NOP  
06FF0 0E6F     LD   C,6F
06FF2 8D       ADC  A,L
06FF3 75       LD   (HL),L
06FF4 95       SUB  L
06FF5 75       LD   (HL),L
06FF6 9B       SBC  A,E
06FF7 75       LD   (HL),L
06FF8 00       NOP  
06FF9 00       NOP  
06FFA 1670     LD   D,70
06FFC 34       INC  (HL)
06FFD 70       LD   (HL),B
06FFE 1670     LD   D,70
07000 4D       LD   C,L
07001 70       LD   (HL),B
07002 93       SUB  E
07003 70       LD   (HL),B
07004 FF       RST  38
07005 FF       RST  38
07006 FA6F62   LD   A,(626F)
07009 70       LD   (HL),B
0700A 74       LD   (HL),H
0700B 70       LD   (HL),B
0700C 62       LD   H,D
0700D 70       LD   (HL),B
0700E 85       ADD  A,L
0700F 70       LD   (HL),B
07010 F470FF   CALL P,FF70
07013 FF       RST  38
07014 08       EX   AF,AF
07015 70       LD   (HL),B
07016 9D       SBC  A,L
07017 74       LD   (HL),H
07018 00       NOP  
07019 41       LD   B,C
0701A A2       AND  D
0701B 44       LD   B,H
0701C 4C       LD   C,H
0701D 56       LD   D,(HL)
0701E 4C       LD   C,H
0701F 42       LD   B,D
07020 4C       LD   C,H
07021 44       LD   B,H
07022 4C       LD   C,H
07023 3E4C     LD   A,4C
07025 3C       INC  A
07026 4C       LD   C,H
07027 44       LD   B,H
07028 4C       LD   C,H
07029 56       LD   D,(HL)
0702A 4C       LD   C,H
0702B 42       LD   B,D
0702C 4C       LD   C,H
0702D 44       LD   B,H
0702E 4C       LD   C,H
0702F 3E4C     LD   A,4C
07031 3C       INC  A
07032 4C       LD   C,H
07033 00       NOP  
07034 44       LD   B,H
07035 4C       LD   C,H
07036 44       LD   B,H
07037 3E4E     LD   A,4E
07039 48       LD   C,B
0703A 42       LD   B,D
0703B 48       LD   C,B
0703C 42       LD   B,D
0703D 3A       HL-- A,(HL)
0703E 4C       LD   C,H
0703F 44       LD   B,H
07040 3E4C     LD   A,4C
07042 48       LD   C,B
07043 44       LD   B,H
07044 42       LD   B,D
07045 3E3C     LD   A,3C
07047 34       INC  (HL)
07048 3C       INC  A
07049 42       LD   B,D
0704A 4C       LD   C,H
0704B 48       LD   C,B
0704C 00       NOP  
0704D 44       LD   B,H
0704E 4C       LD   C,H
0704F 44       LD   B,H
07050 3E4E     LD   A,4E
07052 48       LD   C,B
07053 42       LD   B,D
07054 48       LD   C,B
07055 42       LD   B,D
07056 3A       HL-- A,(HL)
07057 52       LD   D,D
07058 48       LD   C,B
07059 4C       LD   C,H
0705A 52       LD   D,D
0705B 4C       LD   C,H
0705C 44       LD   B,H
0705D 3A       HL-- A,(HL)
0705E 42       LD   B,D
0705F A8       XOR  B
07060 44       LD   B,H
07061 00       NOP  
07062 9D       SBC  A,L
07063 64       LD   H,H
07064 00       NOP  
07065 41       LD   B,C
07066 A3       AND  E
07067 263E     LD   H,3E
07069 3C       INC  A
0706A 262C     LD   H,2C
0706C 34       INC  (HL)
0706D 3E36     LD   A,36
0706F 34       INC  (HL)
07070 3E2C     LD   A,2C
07072 34       INC  (HL)
07073 00       NOP  
07074 263E     LD   H,3E
07076 3022     JR   NC,709A
07078 3A       HL-- A,(HL)
07079 2C       INC  L
0707A 1E36     LD   E,36
0707C 30A2     JR   NC,7020
0707E 34       INC  (HL)
0707F 3634     LD   (HL),34
07081 302C     JR   NC,70AF
07083 2A       HL++ A,(HL)
07084 00       NOP  
07085 A3       AND  E
07086 263E     LD   H,3E
07088 3022     JR   NC,70AC
0708A 3A       HL-- A,(HL)
0708B 2A       HL++ A,(HL)
0708C 2C       INC  L
0708D 34       INC  (HL)
0708E 34       INC  (HL)
0708F 2C       INC  L
07090 22       HL++ (HL),A
07091 14       INC  D
07092 00       NOP  
07093 A2       AND  D
07094 52       LD   D,D
07095 4E       LD   C,(HL)
07096 4C       LD   C,H
07097 48       LD   C,B
07098 44       LD   B,H
07099 42       LD   B,D
0709A 44       LD   B,H
0709B 48       LD   C,B
0709C 4C       LD   C,H
0709D 44       LD   B,H
0709E 48       LD   C,B
0709F 4E       LD   C,(HL)
070A0 4C       LD   C,H
070A1 4E       LD   C,(HL)
070A2 A3       AND  E
070A3 52       LD   D,D
070A4 42       LD   B,D
070A5 A2       AND  D
070A6 44       LD   B,H
070A7 48       LD   C,B
070A8 A3       AND  E
070A9 4C       LD   C,H
070AA 48       LD   C,B
070AB 4C       LD   C,H
070AC 56       LD   D,(HL)
070AD 50       LD   D,B
070AE A2       AND  D
070AF 56       LD   D,(HL)
070B0 5A       LD   E,D
070B1 A3       AND  E
070B2 5C       LD   E,H
070B3 5A       LD   E,D
070B4 A2       AND  D
070B5 56       LD   D,(HL)
070B6 52       LD   D,D
070B7 50       LD   D,B
070B8 4C       LD   C,H
070B9 50       LD   D,B
070BA 4A       LD   C,D
070BB A8       XOR  B
070BC 4C       LD   C,H
070BD A7       AND  A
070BE 52       LD   D,D
070BF A1       AND  C
070C0 56       LD   D,(HL)
070C1 58       LD   E,B
070C2 A3       AND  E
070C3 56       LD   D,(HL)
070C4 A2       AND  D
070C5 52       LD   D,D
070C6 4E       LD   C,(HL)
070C7 52       LD   D,D
070C8 4C       LD   C,H
070C9 4E       LD   C,(HL)
070CA 48       LD   C,B
070CB A7       AND  A
070CC 56       LD   D,(HL)
070CD A1       AND  C
070CE 5A       LD   E,D
070CF 5C       LD   E,H
070D0 A3       AND  E
070D1 5A       LD   E,D
070D2 A2       AND  D
070D3 56       LD   D,(HL)
070D4 54       LD   D,H
070D5 56       LD   D,(HL)
070D6 50       LD   D,B
070D7 54       LD   D,H
070D8 4C       LD   C,H
070D9 5A       LD   E,D
070DA 54       LD   D,H
070DB 4C       LD   C,H
070DC 54       LD   D,H
070DD 5A       LD   E,D
070DE 60       LD   H,B
070DF 66       LD   H,(HL)
070E0 54       LD   D,H
070E1 64       LD   H,H
070E2 54       LD   D,H
070E3 60       LD   H,B
070E4 54       LD   D,H
070E5 A3       AND  E
070E6 5C       LD   E,H
070E7 A2       AND  D
070E8 60       LD   H,B
070E9 5C       LD   E,H
070EA 5A       LD   E,D
070EB 5C       LD   E,H
070EC A1       AND  C
070ED 56       LD   D,(HL)
070EE 5A       LD   E,D
070EF A4       AND  H
070F0 56       LD   D,(HL)
070F1 A2       AND  D
070F2 0100A2   LD   BC,A200
070F5 34       INC  (HL)
070F6 3A       HL-- A,(HL)
070F7 44       LD   B,H
070F8 3A       HL-- A,(HL)
070F9 303A     JR   NC,7135
070FB 34       INC  (HL)
070FC 3A       HL-- A,(HL)
070FD 2C       INC  L
070FE 3A       HL-- A,(HL)
070FF 2A       HL++ A,(HL)
07100 3A       HL-- A,(HL)
07101 2C       INC  L
07102 3A       HL-- A,(HL)
07103 44       LD   B,H
07104 3A       HL-- A,(HL)
07105 303A     JR   NC,7141
07107 34       INC  (HL)
07108 3A       HL-- A,(HL)
07109 2C       INC  L
0710A 3A       HL-- A,(HL)
0710B 2A       HL++ A,(HL)
0710C 3A       HL-- A,(HL)
0710D 2C       INC  L
0710E 34       INC  (HL)
0710F 2C       INC  L
07110 263E     LD   H,3E
07112 3832     JR   C,7146
07114 382A     JR   C,7140
07116 3832     JR   C,714A
07118 38A3     JR   C,70BD
0711A 34       INC  (HL)
0711B 42       LD   B,D
0711C 2A       HL++ A,(HL)
0711D A2       AND  D
0711E 34       INC  (HL)
0711F 3A       HL-- A,(HL)
07120 42       LD   B,D
07121 3A       HL-- A,(HL)
07122 303A     JR   NC,715E
07124 2E34     LD   L,34
07126 2634     LD   H,34
07128 2E34     LD   L,34
0712A A8       XOR  B
0712B 30A2     JR   NC,70CF
0712D 32       HL-- (HL),A
0712E 382A     JR   C,715A
07130 3832     JR   C,7164
07132 38A8     JR   C,70DC
07134 34       INC  (HL)
07135 A3       AND  E
07136 34       INC  (HL)
07137 2A       HL++ A,(HL)
07138 24       INC  H
07139 1C       INC  E
0713A 2024     JR   NZ,7160
0713C 2C       INC  L
0713D 3034     JR   NC,7173
0713F A8       XOR  B
07140 2600     LD   H,00
07142 68       LD   L,B
07143 71       LD   (HL),C
07144 68       LD   L,B
07145 71       LD   (HL),C
07146 AE       XOR  (HL)
07147 71       LD   (HL),C
07148 FF       RST  38
07149 FF       RST  38
0714A 42       LD   B,D
0714B 71       LD   (HL),C
0714C CB71     BIT  6,C
0714E CB71     BIT  6,C
07150 1D       DEC  E
07151 72       LD   (HL),D
07152 FF       RST  38
07153 FF       RST  38
07154 4C       LD   C,H
07155 71       LD   (HL),C
07156 3A       HL-- A,(HL)
07157 72       LD   (HL),D
07158 3A       HL-- A,(HL)
07159 72       LD   (HL),D
0715A 7F       LD   A,A
0715B 72       LD   (HL),D
0715C 7F       LD   A,A
0715D 72       LD   (HL),D
0715E FF       RST  38
0715F FF       RST  38
07160 56       LD   D,(HL)
07161 71       LD   (HL),C
07162 A3       AND  E
07163 72       LD   (HL),D
07164 FF       RST  38
07165 FF       RST  38
07166 62       LD   H,D
07167 71       LD   (HL),C
07168 9D       SBC  A,L
07169 84       ADD  A,H
0716A 00       NOP  
0716B 81       ADD  A,C
0716C A3       AND  E
0716D 52       LD   D,D
0716E A2       AND  D
0716F 48       LD   C,B
07170 4A       LD   C,D
07171 A3       AND  E
07172 4E       LD   C,(HL)
07173 A2       AND  D
07174 4A       LD   C,D
07175 48       LD   C,B
07176 A3       AND  E
07177 44       LD   B,H
07178 A2       AND  D
07179 44       LD   B,H
0717A 4A       LD   C,D
0717B A3       AND  E
0717C 52       LD   D,D
0717D A2       AND  D
0717E 4E       LD   C,(HL)
0717F 4A       LD   C,D
07180 A7       AND  A
07181 48       LD   C,B
07182 A2       AND  D
07183 4A       LD   C,D
07184 A3       AND  E
07185 4E       LD   C,(HL)
07186 52       LD   D,D
07187 A3       AND  E
07188 4A       LD   C,D
07189 44       LD   B,H
0718A 44       LD   B,H
0718B 01A201   LD   BC,01A2
0718E A3       AND  E
0718F 4E       LD   C,(HL)
07190 A2       AND  D
07191 54       LD   D,H
07192 A3       AND  E
07193 5C       LD   E,H
07194 A2       AND  D
07195 58       LD   E,B
07196 54       LD   D,H
07197 A7       AND  A
07198 52       LD   D,D
07199 A2       AND  D
0719A 4A       LD   C,D
0719B A3       AND  E
0719C 52       LD   D,D
0719D A2       AND  D
0719E 4E       LD   C,(HL)
0719F 4A       LD   C,D
071A0 A3       AND  E
071A1 48       LD   C,B
071A2 A2       AND  D
071A3 48       LD   C,B
071A4 4A       LD   C,D
071A5 A3       AND  E
071A6 4E       LD   C,(HL)
071A7 52       LD   D,D
071A8 A3       AND  E
071A9 4A       LD   C,D
071AA 44       LD   B,H
071AB 44       LD   B,H
071AC 01009D   LD   BC,9D00
071AF 50       LD   D,B
071B0 00       NOP  
071B1 81       ADD  A,C
071B2 A4       AND  H
071B3 3A       HL-- A,(HL)
071B4 32       HL-- (HL),A
071B5 3630     LD   (HL),30
071B7 A4       AND  H
071B8 32       HL-- (HL),A
071B9 2C       INC  L
071BA A8       XOR  B
071BB 2A       HL++ A,(HL)
071BC A3       AND  E
071BD 01A43A   LD   BC,3AA4
071C0 32       HL-- (HL),A
071C1 3630     LD   (HL),30
071C3 A3       AND  E
071C4 32       HL-- (HL),A
071C5 3A       HL-- A,(HL)
071C6 A4       AND  H
071C7 44       LD   B,H
071C8 42       LD   B,D
071C9 01009D   LD   BC,9D00
071CC 43       LD   B,E
071CD 00       NOP  
071CE 81       ADD  A,C
071CF A3       AND  E
071D0 48       LD   C,B
071D1 A2       AND  D
071D2 42       LD   B,D
071D3 44       LD   B,H
071D4 48       LD   C,B
071D5 A1       AND  C
071D6 52       LD   D,D
071D7 4E       LD   C,(HL)
071D8 A2       AND  D
071D9 44       LD   B,H
071DA 42       LD   B,D
071DB A7       AND  A
071DC 3A       HL-- A,(HL)
071DD A2       AND  D
071DE 44       LD   B,H
071DF 4A       LD   C,D
071E0 01A248   LD   BC,48A2
071E3 44       LD   B,H
071E4 A1       AND  C
071E5 42       LD   B,D
071E6 42       LD   B,D
071E7 A2       AND  D
071E8 3A       HL-- A,(HL)
071E9 42       LD   B,D
071EA 44       LD   B,H
071EB A3       AND  E
071EC 48       LD   C,B
071ED 4A       LD   C,D
071EE A3       AND  E
071EF 44       LD   B,H
071F0 3A       HL-- A,(HL)
071F1 3A       HL-- A,(HL)
071F2 01A21E   LD   BC,1EA2
071F5 A3       AND  E
071F6 3C       INC  A
071F7 A2       AND  D
071F8 44       LD   B,H
071F9 4A       LD   C,D
071FA A1       AND  C
071FB 4A       LD   C,D
071FC 4A       LD   C,D
071FD A2       AND  D
071FE 48       LD   C,B
071FF 44       LD   B,H
07200 A7       AND  A
07201 40       LD   B,B
07202 A2       AND  D
07203 3A       HL-- A,(HL)
07204 40       LD   B,B
07205 A1       AND  C
07206 44       LD   B,H
07207 40       LD   B,B
07208 A2       AND  D
07209 3C       INC  A
0720A 3A       HL-- A,(HL)
0720B 42       LD   B,D
0720C 3A       HL-- A,(HL)
0720D 42       LD   B,D
0720E 44       LD   B,H
0720F 48       LD   C,B
07210 42       LD   B,D
07211 4A       LD   C,D
07212 42       LD   B,D
07213 A1       AND  C
07214 44       LD   B,H
07215 4A       LD   C,D
07216 3A       HL-- A,(HL)
07217 01A33A   LD   BC,3AA3
0721A 3A       HL-- A,(HL)
0721B 01009D   LD   BC,9D00
0721E 3000     JR   NC,7220
07220 81       ADD  A,C
07221 A4       AND  H
07222 32       HL-- (HL),A
07223 2C       INC  L
07224 302A     JR   NC,7250
07226 2C       INC  L
07227 22       HL++ (HL),A
07228 A4       AND  H
07229 22       HL++ (HL),A
0722A A3       AND  E
0722B 3001     JR   NC,722E
0722D A4       AND  H
0722E 32       HL-- (HL),A
0722F 2C       INC  L
07230 302A     JR   NC,725C
07232 A3       AND  E
07233 2C       INC  L
07234 32       HL-- (HL),A
07235 A4       AND  H
07236 3A       HL-- A,(HL)
07237 3601     LD   (HL),01
07239 00       NOP  
0723A 9D       SBC  A,L
0723B C9       RET  
0723C 6E       LD   L,(HL)
0723D 20A2     JR   NZ,71E1
0723F 22       HL++ (HL),A
07240 3A       HL-- A,(HL)
07241 22       HL++ (HL),A
07242 3A       HL-- A,(HL)
07243 22       HL++ (HL),A
07244 3A       HL-- A,(HL)
07245 22       HL++ (HL),A
07246 3A       HL-- A,(HL)
07247 2C       INC  L
07248 44       LD   B,H
07249 2C       INC  L
0724A 44       LD   B,H
0724B 2C       INC  L
0724C 44       LD   B,H
0724D 2C       INC  L
0724E 44       LD   B,H
0724F 2A       HL++ A,(HL)
07250 42       LD   B,D
07251 2A       HL++ A,(HL)
07252 42       LD   B,D
07253 22       HL++ (HL),A
07254 3A       HL-- A,(HL)
07255 22       HL++ (HL),A
07256 3A       HL-- A,(HL)
07257 2C       INC  L
07258 44       LD   B,H
07259 2C       INC  L
0725A 44       LD   B,H
0725B 2C       INC  L
0725C 44       LD   B,H
0725D 3032     JR   NC,7291
0725F 361E     LD   (HL),1E
07261 011E01   LD   BC,011E
07264 1E2C     LD   E,2C
07266 24       INC  H
07267 1A       LD   A,(DE)
07268 32       HL-- (HL),A
07269 01321A   LD   BC,1A32
0726C 2828     JR   Z,7296
0726E 013048   LD   BC,4830
07271 014801   LD   BC,0148
07274 3A       HL-- A,(HL)
07275 01422C   LD   BC,2C42
07278 3A       HL-- A,(HL)
07279 2C       INC  L
0727A 3A       HL-- A,(HL)
0727B A3       AND  E
0727C 2C       INC  L
0727D 01009D   LD   BC,9D00
07280 C9       RET  
07281 6E       LD   L,(HL)
07282 20A2     JR   NZ,7226
07284 44       LD   B,H
07285 52       LD   D,D
07286 44       LD   B,H
07287 52       LD   D,D
07288 44       LD   B,H
07289 52       LD   D,D
0728A 44       LD   B,H
0728B 52       LD   D,D
0728C 42       LD   B,D
0728D 52       LD   D,D
0728E 42       LD   B,D
0728F 52       LD   D,D
07290 42       LD   B,D
07291 52       LD   D,D
07292 42       LD   B,D
07293 52       LD   D,D
07294 44       LD   B,H
07295 52       LD   D,D
07296 44       LD   B,H
07297 52       LD   D,D
07298 44       LD   B,H
07299 52       LD   D,D
0729A 44       LD   B,H
0729B 52       LD   D,D
0729C 42       LD   B,D
0729D 52       LD   D,D
0729E 42       LD   B,D
0729F 52       LD   D,D
072A0 A4       AND  H
072A1 0100A2   LD   BC,A200
072A4 010601   LD   BC,0106
072A7 0601     LD   B,01
072A9 A1       AND  C
072AA 0606     LD   B,06
072AC A2       AND  D
072AD 010601   LD   BC,0106
072B0 0601     LD   B,01
072B2 0601     LD   B,01
072B4 0606     LD   B,06
072B6 0600     LD   B,00
072B8 0B       DEC  BC
072B9 73       LD   (HL),E
072BA 3F       CCF  
072BB 73       LD   (HL),E
072BC 67       LD   H,A
072BD 73       LD   (HL),E
072BE 67       LD   H,A
072BF 73       LD   (HL),E
072C0 C9       RET  
072C1 73       LD   (HL),E
072C2 FF       RST  38
072C3 FF       RST  38
072C4 B8       CP   B
072C5 72       LD   (HL),D
072C6 08       EX   AF,AF
072C7 73       LD   (HL),E
072C8 3C       INC  A
072C9 73       LD   (HL),E
072CA 8E       ADC  A,(HL)
072CB 73       LD   (HL),E
072CC 8E       ADC  A,(HL)
072CD 73       LD   (HL),E
072CE 4B       LD   C,E
072CF 74       LD   (HL),H
072D0 FF       RST  38
072D1 FF       RST  38
072D2 C672     ADD  A,72
072D4 1F       RRA  
072D5 73       LD   (HL),E
072D6 53       LD   D,E
072D7 73       LD   (HL),E
072D8 B5       OR   L
072D9 73       LD   (HL),E
072DA B5       OR   L
072DB 73       LD   (HL),E
072DC B5       OR   L
072DD 73       LD   (HL),E
072DE B5       OR   L
072DF 73       LD   (HL),E
072E0 B5       OR   L
072E1 73       LD   (HL),E
072E2 B5       OR   L
072E3 73       LD   (HL),E
072E4 C0       RET  NZ
072E5 74       LD   (HL),H
072E6 DE74     SBC  A,74
072E8 DE74     SBC  A,74
072EA DE74     SBC  A,74
072EC EE74     XOR  74
072EE FE74     CP   74
072F0 FE74     CP   74
072F2 0E75     LD   C,75
072F4 0E75     LD   C,75
072F6 1E75     LD   E,75
072F8 1E75     LD   E,75
072FA 0E75     LD   C,75
072FC 2E75     LD   L,75
072FE FF       RST  38
072FF FF       RST  38
07300 D47233   CALL NC,3372
07303 73       LD   (HL),E
07304 FF       RST  38
07305 FF       RST  38
07306 02       LD   (BC),A
07307 73       LD   (HL),E
07308 A5       AND  L
07309 01009D   LD   BC,9D00
0730C 62       LD   H,D
0730D 00       NOP  
0730E 80       ADD  A,B
0730F A2       AND  D
07310 3A       HL-- A,(HL)
07311 A1       AND  C
07312 3A       HL-- A,(HL)
07313 3A       HL-- A,(HL)
07314 A2       AND  D
07315 3030     JR   NC,7347
07317 3A       HL-- A,(HL)
07318 A1       AND  C
07319 3A       HL-- A,(HL)
0731A 3A       HL-- A,(HL)
0731B A2       AND  D
0731C 3030     JR   NC,734E
0731E 00       NOP  
0731F 9D       SBC  A,L
07320 E9       JP   (HL)
07321 6E       LD   L,(HL)
07322 A0       AND  B
07323 A2       AND  D
07324 3A       HL-- A,(HL)
07325 A1       AND  C
07326 3A       HL-- A,(HL)
07327 3A       HL-- A,(HL)
07328 A2       AND  D
07329 3030     JR   NC,735B
0732B 3A       HL-- A,(HL)
0732C A1       AND  C
0732D 3A       HL-- A,(HL)
0732E 3A       HL-- A,(HL)
0732F A2       AND  D
07330 3030     JR   NC,7362
07332 00       NOP  
07333 A2       AND  D
07334 06A1     LD   B,A1
07336 0606     LD   B,06
07338 A2       AND  D
07339 0606     LD   B,06
0733B 00       NOP  
0733C A5       AND  L
0733D 01009D   LD   BC,9D00
07340 32       HL-- (HL),A
07341 00       NOP  
07342 80       ADD  A,B
07343 A2       AND  D
07344 3A       HL-- A,(HL)
07345 A1       AND  C
07346 3A       HL-- A,(HL)
07347 3A       HL-- A,(HL)
07348 A2       AND  D
07349 3030     JR   NC,737B
0734B 3A       HL-- A,(HL)
0734C A1       AND  C
0734D 3A       HL-- A,(HL)
0734E 3A       HL-- A,(HL)
0734F A2       AND  D
07350 3030     JR   NC,7382
07352 00       NOP  
07353 9D       SBC  A,L
07354 E9       JP   (HL)
07355 6E       LD   L,(HL)
07356 A0       AND  B
07357 A2       AND  D
07358 3A       HL-- A,(HL)
07359 A1       AND  C
0735A 3A       HL-- A,(HL)
0735B 3A       HL-- A,(HL)
0735C A2       AND  D
0735D 3030     JR   NC,738F
0735F 3A       HL-- A,(HL)
07360 A1       AND  C
07361 3A       HL-- A,(HL)
07362 3A       HL-- A,(HL)
07363 A2       AND  D
07364 3030     JR   NC,7396
07366 00       NOP  
07367 9D       SBC  A,L
07368 82       ADD  A,D
07369 00       NOP  
0736A 80       ADD  A,B
0736B A2       AND  D
0736C 3A       HL-- A,(HL)
0736D 48       LD   C,B
0736E 52       LD   D,D
0736F 50       LD   D,B
07370 52       LD   D,D
07371 A1       AND  C
07372 48       LD   C,B
07373 48       LD   C,B
07374 A2       AND  D
07375 4A       LD   C,D
07376 44       LD   B,H
07377 48       LD   C,B
07378 A1       AND  C
07379 40       LD   B,B
0737A 40       LD   B,B
0737B A2       AND  D
0737C 44       LD   B,H
0737D 3E40     LD   A,40
0737F A1       AND  C
07380 3A       HL-- A,(HL)
07381 3A       HL-- A,(HL)
07382 A2       AND  D
07383 3E38     LD   A,38
07385 3A       HL-- A,(HL)
07386 3032     JR   NC,73BA
07388 383A     JR   C,73C4
0738A 3032     JR   NC,73BE
0738C 3E00     LD   A,00
0738E 9D       SBC  A,L
0738F 53       LD   D,E
07390 00       NOP  
07391 40       LD   B,B
07392 A2       AND  D
07393 3040     JR   NC,73D5
07395 40       LD   B,B
07396 44       LD   B,H
07397 40       LD   B,B
07398 A1       AND  C
07399 3E40     LD   A,40
0739B A2       AND  D
0739C 44       LD   B,H
0739D 3E40     LD   A,40
0739F A1       AND  C
073A0 383A     JR   C,73DC
073A2 A2       AND  D
073A3 3E38     LD   A,38
073A5 3A       HL-- A,(HL)
073A6 A1       AND  C
073A7 2E30     LD   L,30
073A9 A2       AND  D
073AA 3830     JR   C,73DC
073AC 3028     JR   NC,73D6
073AE 2C       INC  L
073AF 2C       INC  L
073B0 3028     JR   NC,73DA
073B2 2C       INC  L
073B3 3800     JR   C,73B5
073B5 9D       SBC  A,L
073B6 E9       JP   (HL)
073B7 6E       LD   L,(HL)
073B8 A0       AND  B
073B9 A2       AND  D
073BA 3A       HL-- A,(HL)
073BB A1       AND  C
073BC 3A       HL-- A,(HL)
073BD 3A       HL-- A,(HL)
073BE A2       AND  D
073BF 3030     JR   NC,73F1
073C1 3A       HL-- A,(HL)
073C2 A1       AND  C
073C3 3A       HL-- A,(HL)
073C4 3A       HL-- A,(HL)
073C5 A2       AND  D
073C6 3030     JR   NC,73F8
073C8 00       NOP  
073C9 A8       XOR  B
073CA 3A       HL-- A,(HL)
073CB A2       AND  D
073CC 3E38     LD   A,38
073CE A8       XOR  B
073CF 3A       HL-- A,(HL)
073D0 A3       AND  E
073D1 3EA2     LD   A,A2
073D3 40       LD   B,B
073D4 A1       AND  C
073D5 40       LD   B,B
073D6 40       LD   B,B
073D7 A2       AND  D
073D8 44       LD   B,H
073D9 3E40     LD   A,40
073DB A1       AND  C
073DC 40       LD   B,B
073DD 40       LD   B,B
073DE A2       AND  D
073DF 44       LD   B,H
073E0 3EA8     LD   A,A8
073E2 40       LD   B,B
073E3 A3       AND  E
073E4 44       LD   B,H
073E5 A2       AND  D
073E6 48       LD   C,B
073E7 A1       AND  C
073E8 48       LD   C,B
073E9 48       LD   C,B
073EA A2       AND  D
073EB 4A       LD   C,D
073EC 44       LD   B,H
073ED 48       LD   C,B
073EE A1       AND  C
073EF 48       LD   C,B
073F0 48       LD   C,B
073F1 A2       AND  D
073F2 4A       LD   C,D
073F3 44       LD   B,H
073F4 A8       XOR  B
073F5 48       LD   C,B
073F6 A3       AND  E
073F7 4C       LD   C,H
073F8 A2       AND  D
073F9 4E       LD   C,(HL)
073FA A1       AND  C
073FB 4E       LD   C,(HL)
073FC 4E       LD   C,(HL)
073FD A2       AND  D
073FE 4E       LD   C,(HL)
073FF 4E       LD   C,(HL)
07400 52       LD   D,D
07401 4E       LD   C,(HL)
07402 4E       LD   C,(HL)
07403 4C       LD   C,H
07404 4E       LD   C,(HL)
07405 A1       AND  C
07406 4E       LD   C,(HL)
07407 4E       LD   C,(HL)
07408 A2       AND  D
07409 4E       LD   C,(HL)
0740A 4E       LD   C,(HL)
0740B 52       LD   D,D
0740C 4E       LD   C,(HL)
0740D 4E       LD   C,(HL)
0740E 4C       LD   C,H
0740F 4E       LD   C,(HL)
07410 A1       AND  C
07411 4E       LD   C,(HL)
07412 4E       LD   C,(HL)
07413 A2       AND  D
07414 4E       LD   C,(HL)
07415 4E       LD   C,(HL)
07416 4C       LD   C,H
07417 A1       AND  C
07418 4C       LD   C,H
07419 4C       LD   C,H
0741A A2       AND  D
0741B 4C       LD   C,H
0741C 4C       LD   C,H
0741D 4A       LD   C,D
0741E A1       AND  C
0741F 4A       LD   C,D
07420 4A       LD   C,D
07421 A2       AND  D
07422 4A       LD   C,D
07423 44       LD   B,H
07424 3E40     LD   A,40
07426 44       LD   B,H
07427 3644     LD   (HL),44
07429 A1       AND  C
0742A 40       LD   B,B
0742B 40       LD   B,B
0742C A2       AND  D
0742D 36A3     LD   (HL),A3
0742F 40       LD   B,B
07430 A1       AND  C
07431 363A     LD   (HL),3A
07433 A2       AND  D
07434 3630     LD   (HL),30
07436 44       LD   B,H
07437 A1       AND  C
07438 40       LD   B,B
07439 40       LD   B,B
0743A A2       AND  D
0743B 36A3     LD   (HL),A3
0743D 40       LD   B,B
0743E A1       AND  C
0743F 363A     LD   (HL),3A
07441 A2       AND  D
07442 362E     LD   (HL),2E
07444 A5       AND  L
07445 36A8     LD   (HL),A8
07447 01A338   LD   BC,38A3
0744A 00       NOP  
0744B A8       XOR  B
0744C 30A2     JR   NC,73F0
0744E 3030     JR   NC,7480
07450 A8       XOR  B
07451 30A3     JR   NC,73F6
07453 36A5     LD   (HL),A5
07455 01A801   LD   BC,01A8
07458 A3       AND  E
07459 3EA2     LD   A,A2
0745B 40       LD   B,B
0745C A1       AND  C
0745D 40       LD   B,B
0745E 40       LD   B,B
0745F A2       AND  D
07460 44       LD   B,H
07461 3E40     LD   A,40
07463 A1       AND  C
07464 40       LD   B,B
07465 40       LD   B,B
07466 A2       AND  D
07467 44       LD   B,H
07468 3EA8     LD   A,A8
0746A 36A3     LD   (HL),A3
0746C 3A       HL-- A,(HL)
0746D A2       AND  D
0746E 3EA1     LD   A,A1
07470 40       LD   B,B
07471 44       LD   B,H
07472 A2       AND  D
07473 3E44     LD   A,44
07475 48       LD   C,B
07476 48       LD   C,B
07477 48       LD   C,B
07478 3A       HL-- A,(HL)
07479 3EA1     LD   A,A1
0747B 40       LD   B,B
0747C 44       LD   B,H
0747D A2       AND  D
0747E 3E44     LD   A,44
07480 46       LD   B,(HL)
07481 46       LD   B,(HL)
07482 46       LD   B,(HL)
07483 3A       HL-- A,(HL)
07484 3EA1     LD   A,A1
07486 40       LD   B,B
07487 44       LD   B,H
07488 A2       AND  D
07489 3E44     LD   A,44
0748B 3A       HL-- A,(HL)
0748C A1       AND  C
0748D 3E40     LD   A,40
0748F A2       AND  D
07490 3A       HL-- A,(HL)
07491 40       LD   B,B
07492 3A       HL-- A,(HL)
07493 A1       AND  C
07494 3E40     LD   A,40
07496 A2       AND  D
07497 3E3E     LD   A,3E
07499 2C       INC  L
0749A 3A       HL-- A,(HL)
0749B 3E26     LD   A,26
0749D 30A1     JR   NC,7440
0749F 3030     JR   NC,74D1
074A1 A2       AND  D
074A2 30A3     JR   NC,7447
074A4 30A1     JR   NC,7447
074A6 3034     JR   NC,74DC
074A8 A2       AND  D
074A9 3028     JR   NC,74D3
074AB 2EA1     LD   L,A1
074AD 2E2E     LD   L,2E
074AF A2       AND  D
074B0 2EA3     LD   L,A3
074B2 2EA1     LD   L,A1
074B4 2E32     LD   L,32
074B6 A2       AND  D
074B7 2E28     LD   L,28
074B9 A5       AND  L
074BA 26A8     LD   H,A8
074BC 01A32C   LD   BC,2CA3
074BF 00       NOP  
074C0 A2       AND  D
074C1 3A       HL-- A,(HL)
074C2 A1       AND  C
074C3 3A       HL-- A,(HL)
074C4 3A       HL-- A,(HL)
074C5 A2       AND  D
074C6 32       HL-- (HL),A
074C7 2C       INC  L
074C8 3A       HL-- A,(HL)
074C9 A1       AND  C
074CA 3A       HL-- A,(HL)
074CB 3A       HL-- A,(HL)
074CC A2       AND  D
074CD 3830     JR   C,74FF
074CF 3A       HL-- A,(HL)
074D0 A1       AND  C
074D1 3A       HL-- A,(HL)
074D2 3A       HL-- A,(HL)
074D3 A2       AND  D
074D4 32       HL-- (HL),A
074D5 2C       INC  L
074D6 3A       HL-- A,(HL)
074D7 A1       AND  C
074D8 3A       HL-- A,(HL)
074D9 3A       HL-- A,(HL)
074DA A2       AND  D
074DB 2C       INC  L
074DC 1E00     LD   E,00
074DE A2       AND  D
074DF 28A1     JR   Z,7482
074E1 40       LD   B,B
074E2 28A2     JR   Z,7486
074E4 1E36     LD   E,36
074E6 28A1     JR   Z,7489
074E8 40       LD   B,B
074E9 28A2     JR   Z,748D
074EB 1E36     LD   E,36
074ED 00       NOP  
074EE A2       AND  D
074EF 28A1     JR   Z,7492
074F1 40       LD   B,B
074F2 28A2     JR   Z,7496
074F4 1E36     LD   E,36
074F6 28A1     JR   Z,7499
074F8 40       LD   B,B
074F9 28A2     JR   Z,749D
074FB 2C       INC  L
074FC 44       LD   B,H
074FD 00       NOP  
074FE A2       AND  D
074FF 1EA1     LD   E,A1
07501 361E     LD   (HL),1E
07503 A2       AND  D
07504 1E36     LD   E,36
07506 28A1     JR   Z,74A9
07508 40       LD   B,B
07509 28A2     JR   Z,74AD
0750B 2840     JR   Z,754D
0750D 00       NOP  
0750E A2       AND  D
0750F 1EA1     LD   E,A1
07511 361E     LD   (HL),1E
07513 A2       AND  D
07514 1E36     LD   E,36
07516 1EA1     LD   E,A1
07518 361E     LD   (HL),1E
0751A A2       AND  D
0751B 1E36     LD   E,36
0751D 00       NOP  
0751E A2       AND  D
0751F 22       HL++ (HL),A
07520 A1       AND  C
07521 3A       HL-- A,(HL)
07522 22       HL++ (HL),A
07523 A2       AND  D
07524 22       HL++ (HL),A
07525 3A       HL-- A,(HL)
07526 22       HL++ (HL),A
07527 A1       AND  C
07528 3A       HL-- A,(HL)
07529 22       HL++ (HL),A
0752A A2       AND  D
0752B 22       HL++ (HL),A
0752C 3A       HL-- A,(HL)
0752D 00       NOP  
0752E A2       AND  D
0752F 1EA1     LD   E,A1
07531 361E     LD   (HL),1E
07533 A2       AND  D
07534 1E36     LD   E,36
07536 1EA1     LD   E,A1
07538 361E     LD   (HL),1E
0753A A2       AND  D
0753B A4       AND  H
0753C 3E00     LD   A,00
0753E 363E     LD   (HL),3E
07540 44       LD   B,H
07541 A4       AND  H
07542 44       LD   B,H
07543 57       LD   D,A
07544 75       LD   (HL),L
07545 62       LD   H,D
07546 75       LD   (HL),L
07547 FF       RST  38
07548 FF       RST  38
07549 45       LD   B,L
0754A 75       LD   (HL),L
0754B 5E       LD   E,(HL)
0754C 75       LD   (HL),L
0754D FF       RST  38
0754E FF       RST  38
0754F 4B       LD   C,E
07550 75       LD   (HL),L
07551 7C       LD   A,H
07552 75       LD   (HL),L
07553 FF       RST  38
07554 FF       RST  38
07555 51       LD   D,C
07556 75       LD   (HL),L
07557 9D       SBC  A,L
07558 2000     JR   NZ,755A
0755A 81       ADD  A,C
0755B AA       XOR  D
0755C 01009D   LD   BC,9D00
0755F 70       LD   (HL),B
07560 00       NOP  
07561 81       ADD  A,C
07562 A2       AND  D
07563 42       LD   B,D
07564 32       HL-- (HL),A
07565 3842     JR   C,75A9
07567 46       LD   B,(HL)
07568 34       INC  (HL)
07569 3C       INC  A
0756A 46       LD   B,(HL)
0756B 4A       LD   C,D
0756C 3842     JR   C,75B0
0756E 4A       LD   C,D
0756F 4C       LD   C,H
07570 3C       INC  A
07571 42       LD   B,D
07572 4C       LD   C,H
07573 46       LD   B,(HL)
07574 34       INC  (HL)
07575 3C       INC  A
07576 46       LD   B,(HL)
07577 40       LD   B,B
07578 2E34     LD   L,34
0757A 40       LD   B,B
0757B 00       NOP  
0757C 9D       SBC  A,L
0757D E9       JP   (HL)
0757E 6E       LD   L,(HL)
0757F 21A842   LD   HL,42A8
07582 A3       AND  E
07583 2A       HL++ A,(HL)
07584 A8       XOR  B
07585 42       LD   B,D
07586 A3       AND  E
07587 2A       HL++ A,(HL)
07588 A8       XOR  B
07589 42       LD   B,D
0758A A3       AND  E
0758B 2A       HL++ A,(HL)
0758C 00       NOP  
0758D A1       AND  C
0758E 75       LD   (HL),L
0758F AC       XOR  H
07590 75       LD   (HL),L
07591 FF       RST  38
07592 FF       RST  38
07593 8F       ADC  A,A
07594 75       LD   (HL),L
07595 A8       XOR  B
07596 75       LD   (HL),L
07597 FF       RST  38
07598 FF       RST  38
07599 95       SUB  L
0759A 75       LD   (HL),L
0759B EE75     XOR  75
0759D FF       RST  38
0759E FF       RST  38
0759F 9B       SBC  A,E
075A0 75       LD   (HL),L
075A1 9D       SBC  A,L
075A2 2000     JR   NZ,75A4
075A4 81       ADD  A,C
075A5 AA       XOR  D
075A6 01009D   LD   BC,9D00
075A9 70       LD   (HL),B
075AA 00       NOP  
075AB 81       ADD  A,C
075AC A2       AND  D
075AD 4C       LD   C,H
075AE 42       LD   B,D
075AF 50       LD   D,B
075B0 42       LD   B,D
075B1 54       LD   D,H
075B2 42       LD   B,D
075B3 50       LD   D,B
075B4 42       LD   B,D
075B5 56       LD   D,(HL)
075B6 42       LD   B,D
075B7 54       LD   D,H
075B8 42       LD   B,D
075B9 50       LD   D,B
075BA 42       LD   B,D
075BB 54       LD   D,H
075BC 42       LD   B,D
075BD 4C       LD   C,H
075BE 42       LD   B,D
075BF 50       LD   D,B
075C0 42       LD   B,D
075C1 54       LD   D,H
075C2 42       LD   B,D
075C3 50       LD   D,B
075C4 42       LD   B,D
075C5 56       LD   D,(HL)
075C6 42       LD   B,D
075C7 54       LD   D,H
075C8 42       LD   B,D
075C9 50       LD   D,B
075CA 42       LD   B,D
075CB 54       LD   D,H
075CC 42       LD   B,D
075CD 5A       LD   E,D
075CE 46       LD   B,(HL)
075CF 56       LD   D,(HL)
075D0 46       LD   B,(HL)
075D1 54       LD   D,H
075D2 46       LD   B,(HL)
075D3 50       LD   D,B
075D4 46       LD   B,(HL)
075D5 4E       LD   C,(HL)
075D6 46       LD   B,(HL)
075D7 50       LD   D,B
075D8 46       LD   B,(HL)
075D9 54       LD   D,H
075DA 46       LD   B,(HL)
075DB 50       LD   D,B
075DC 46       LD   B,(HL)
075DD 50       LD   D,B
075DE 3E4C     LD   A,4C
075E0 3E4C     LD   A,4C
075E2 3E4A     LD   A,4A
075E4 3E4A     LD   A,4A
075E6 3E46     LD   A,46
075E8 3E4A     LD   A,4A
075EA 3E50     LD   A,50
075EC 3E00     LD   A,00
075EE 9D       SBC  A,L
075EF E9       JP   (HL)
075F0 6E       LD   L,(HL)
075F1 21A54C   LD   HL,4CA5
075F4 4A       LD   C,D
075F5 46       LD   B,(HL)
075F6 42       LD   B,D
075F7 383E     JR   C,7637
075F9 42       LD   B,D
075FA 42       LD   B,D
075FB 00       NOP  
075FC 04       INC  B
075FD 76       HALT 
075FE 00       NOP  
075FF 00       NOP  
07600 14       INC  D
07601 76       HALT 
07602 23       INC  HL
07603 76       HALT 
07604 9D       SBC  A,L
07605 B2       OR   D
07606 00       NOP  
07607 80       ADD  A,B
07608 A2       AND  D
07609 60       LD   H,B
0760A 5C       LD   E,H
0760B 60       LD   H,B
0760C 5C       LD   E,H
0760D 60       LD   H,B
0760E 62       LD   H,D
0760F 60       LD   H,B
07610 5C       LD   E,H
07611 A4       AND  H
07612 60       LD   H,B
07613 00       NOP  
07614 9D       SBC  A,L
07615 92       SUB  D
07616 00       NOP  
07617 80       ADD  A,B
07618 A2       AND  D
07619 52       LD   D,D
0761A 4E       LD   C,(HL)
0761B 52       LD   D,D
0761C 4E       LD   C,(HL)
0761D 52       LD   D,D
0761E 54       LD   D,H
0761F 52       LD   D,D
07620 4E       LD   C,(HL)
07621 A4       AND  H
07622 52       LD   D,D
07623 9D       SBC  A,L
07624 E9       JP   (HL)
07625 6E       LD   L,(HL)
07626 20A2     JR   NZ,75CA
07628 62       LD   H,D
07629 60       LD   H,B
0762A 62       LD   H,D
0762B 60       LD   H,B
0762C 62       LD   H,D
0762D 66       LD   H,(HL)
0762E 62       LD   H,D
0762F 60       LD   H,B
07630 A3       AND  E
07631 62       LD   H,D
07632 016F76   LD   BC,766F
07635 69       LD   L,C
07636 77       LD   (HL),A
07637 69       LD   L,C
07638 77       LD   (HL),A
07639 00       NOP  
0763A 00       NOP  
0763B BF       CP   A
0763C 76       HALT 
0763D AA       XOR  D
0763E 77       LD   (HL),A
0763F 3C       INC  A
07640 78       LD   A,B
07641 0C       INC  C
07642 77       LD   (HL),A
07643 EB       EX   DE,HL
07644 77       LD   (HL),A
07645 EB       EX   DE,HL
07646 77       LD   (HL),A
07647 F5       PUSH AF
07648 77       LD   (HL),A
07649 EB       EX   DE,HL
0764A 77       LD   (HL),A
0764B EB       EX   DE,HL
0764C 77       LD   (HL),A
0764D FE77     CP   77
0764F F5       PUSH AF
07650 77       LD   (HL),A
07651 EB       EX   DE,HL
07652 77       LD   (HL),A
07653 EB       EX   DE,HL
07654 77       LD   (HL),A
07655 FE77     CP   77
07657 F5       PUSH AF
07658 77       LD   (HL),A
07659 07       RLCA 
0765A 78       LD   A,B
0765B 1178FE   LD   DE,FE78
0765E 77       LD   (HL),A
0765F F5       PUSH AF
07660 77       LD   (HL),A
07661 EB       EX   DE,HL
07662 77       LD   (HL),A
07663 5B       LD   E,E
07664 77       LD   (HL),A
07665 5B       LD   E,E
07666 77       LD   (HL),A
07667 1A       LD   A,(DE)
07668 78       LD   A,B
07669 1A       LD   A,(DE)
0766A 78       LD   A,B
0766B 1A       LD   A,(DE)
0766C 78       LD   A,B
0766D 1A       LD   A,(DE)
0766E 78       LD   A,B
0766F 9D       SBC  A,L
07670 C30080   JP   8000
07673 A2       AND  D
07674 3C       INC  A
07675 3E3C     LD   A,3C
07677 3E38     LD   A,38
07679 50       LD   D,B
0767A A3       AND  E
0767B 01A23C   LD   BC,3CA2
0767E 3E3C     LD   A,3C
07680 3E38     LD   A,38
07682 50       LD   D,B
07683 A3       AND  E
07684 01A201   LD   BC,01A2
07687 48       LD   C,B
07688 014601   LD   BC,0146
0768B 42       LD   B,D
0768C 0146A1   LD   BC,A146
0768F 42       LD   B,D
07690 46       LD   B,(HL)
07691 A2       AND  D
07692 42       LD   B,D
07693 42       LD   B,D
07694 38A3     JR   C,7639
07696 3C       INC  A
07697 01A23E   LD   BC,3EA2
0769A 42       LD   B,D
0769B 3E42     LD   A,42
0769D 3C       INC  A
0769E 54       LD   D,H
0769F A3       AND  E
076A0 01A23E   LD   BC,3EA2
076A3 42       LD   B,D
076A4 3E42     LD   A,42
076A6 3C       INC  A
076A7 54       LD   D,H
076A8 A3       AND  E
076A9 01A201   LD   BC,01A2
076AC 56       LD   D,(HL)
076AD 015401   LD   BC,0154
076B0 54       LD   D,H
076B1 0150A2   LD   BC,A250
076B4 01A150   LD   BC,50A1
076B7 54       LD   D,H
076B8 A2       AND  D
076B9 50       LD   D,B
076BA 4E       LD   C,(HL)
076BB A3       AND  E
076BC 50       LD   D,B
076BD 01009D   LD   BC,9D00
076C0 74       LD   (HL),H
076C1 00       NOP  
076C2 80       ADD  A,B
076C3 A2       AND  D
076C4 3638     LD   (HL),38
076C6 3638     LD   (HL),38
076C8 2E3E     LD   L,3E
076CA A3       AND  E
076CB 01A236   LD   BC,36A2
076CE 3836     JR   C,7706
076D0 382E     JR   C,7700
076D2 3EA3     LD   A,A3
076D4 01A201   LD   BC,01A2
076D7 3601     LD   (HL),01
076D9 3601     LD   (HL),01
076DB 32       HL-- (HL),A
076DC 013636   LD   BC,3636
076DF 32       HL-- (HL),A
076E0 32       HL-- (HL),A
076E1 30A3     JR   NC,7686
076E3 3601     LD   (HL),01
076E5 A2       AND  D
076E6 383C     JR   C,7724
076E8 383C     JR   C,7726
076EA 364E     LD   (HL),4E
076EC A3       AND  E
076ED 01A238   LD   BC,38A2
076F0 3C       INC  A
076F1 383C     JR   C,772F
076F3 364E     LD   (HL),4E
076F5 A3       AND  E
076F6 01A201   LD   BC,01A2
076F9 50       LD   D,B
076FA 014E01   LD   BC,014E
076FD 46       LD   B,(HL)
076FE 0146A2   LD   BC,A246
07701 01A148   LD   BC,48A1
07704 4E       LD   C,(HL)
07705 A2       AND  D
07706 48       LD   C,B
07707 46       LD   B,(HL)
07708 A3       AND  E
07709 40       LD   B,B
0770A 01009D   LD   BC,9D00
0770D E9       JP   (HL)
0770E 6E       LD   L,(HL)
0770F 20A2     JR   NZ,76B3
07711 48       LD   C,B
07712 46       LD   B,(HL)
07713 48       LD   C,B
07714 46       LD   B,(HL)
07715 3E20     LD   A,20
07717 A3       AND  E
07718 01A248   LD   BC,48A2
0771B 46       LD   B,(HL)
0771C 48       LD   C,B
0771D 46       LD   B,(HL)
0771E 3E20     LD   A,20
07720 A3       AND  E
07721 01A22E   LD   BC,2EA2
07724 3C       INC  A
07725 2E24     LD   L,24
07727 24       INC  H
07728 24       INC  H
07729 24       INC  H
0772A 3C       INC  A
0772B 2A       HL++ A,(HL)
0772C 3E2A     LD   A,2A
0772E 3EA6     LD   A,A6
07730 2EA3     LD   L,A3
07732 01A101   LD   BC,01A1
07735 A2       AND  D
07736 48       LD   C,B
07737 46       LD   B,(HL)
07738 48       LD   C,B
07739 46       LD   B,(HL)
0773A 2E2E     LD   L,2E
0773C A3       AND  E
0773D 01A248   LD   BC,48A2
07740 46       LD   B,(HL)
07741 48       LD   C,B
07742 46       LD   B,(HL)
07743 2E2E     LD   L,2E
07745 A3       AND  E
07746 01A22A   LD   BC,2AA2
07749 3C       INC  A
0774A 2A       HL++ A,(HL)
0774B 3C       INC  A
0774C 2E3E     LD   L,3E
0774E 2E3E     LD   L,3E
07750 2E42     LD   L,42
07752 2E42     LD   L,42
07754 A6       AND  (HL)
07755 38A3     JR   C,76FA
07757 01A101   LD   BC,01A1
0775A 00       NOP  
0775B A8       XOR  B
0775C 01A206   LD   BC,06A2
0775F 0B       DEC  BC
07760 A8       XOR  B
07761 01A206   LD   BC,06A2
07764 0B       DEC  BC
07765 A5       AND  L
07766 010100   LD   BC,0001
07769 9D       SBC  A,L
0776A C5       PUSH BC
0776B 00       NOP  
0776C 80       ADD  A,B
0776D A1       AND  C
0776E 46       LD   B,(HL)
0776F 4A       LD   C,D
07770 A4       AND  H
07771 46       LD   B,(HL)
07772 A2       AND  D
07773 01A350   LD   BC,50A3
07776 A8       XOR  B
07777 4A       LD   C,D
07778 A3       AND  E
07779 01A142   LD   BC,42A1
0777C 46       LD   B,(HL)
0777D A4       AND  H
0777E 42       LD   B,D
0777F A2       AND  D
07780 01A34E   LD   BC,4EA3
07783 A1       AND  C
07784 4E       LD   C,(HL)
07785 50       LD   D,B
07786 A4       AND  H
07787 46       LD   B,(HL)
07788 A7       AND  A
07789 01A140   LD   BC,40A1
0778C 46       LD   B,(HL)
0778D A4       AND  H
0778E 40       LD   B,B
0778F A2       AND  D
07790 01A346   LD   BC,46A3
07793 A1       AND  C
07794 46       LD   B,(HL)
07795 4A       LD   C,D
07796 A4       AND  H
07797 42       LD   B,D
07798 A7       AND  A
07799 01A136   LD   BC,36A1
0779C 38A4     JR   C,7742
0779E 36A2     LD   (HL),A2
077A0 01A33C   LD   BC,3CA3
077A3 A7       AND  A
077A4 42       LD   B,D
077A5 A4       AND  H
077A6 40       LD   B,B
077A7 A2       AND  D
077A8 01009D   LD   BC,9D00
077AB 84       ADD  A,H
077AC 00       NOP  
077AD 41       LD   B,C
077AE A1       AND  C
077AF 40       LD   B,B
077B0 42       LD   B,D
077B1 A4       AND  H
077B2 40       LD   B,B
077B3 A2       AND  D
077B4 01A340   LD   BC,40A3
077B7 A8       XOR  B
077B8 42       LD   B,D
077B9 A3       AND  E
077BA 01A13C   LD   BC,3CA1
077BD 40       LD   B,B
077BE A4       AND  H
077BF 3C       INC  A
077C0 A2       AND  D
077C1 01A33C   LD   BC,3CA3
077C4 A1       AND  C
077C5 3C       INC  A
077C6 40       LD   B,B
077C7 A4       AND  H
077C8 40       LD   B,B
077C9 A7       AND  A
077CA 01A136   LD   BC,36A1
077CD 32       HL-- (HL),A
077CE A4       AND  H
077CF 2EA2     LD   L,A2
077D1 01A340   LD   BC,40A3
077D4 A1       AND  C
077D5 3638     LD   (HL),38
077D7 A4       AND  H
077D8 32       HL-- (HL),A
077D9 A7       AND  A
077DA 01A12E   LD   BC,2EA1
077DD 32       HL-- (HL),A
077DE A4       AND  H
077DF 2EA2     LD   L,A2
077E1 01A32A   LD   BC,2AA3
077E4 A7       AND  A
077E5 30A4     JR   NC,778B
077E7 2EA2     LD   L,A2
077E9 0100A2   LD   BC,A200
077EC 3838     JR   C,7826
077EE 013838   LD   BC,3838
077F1 3801     JR   C,77F4
077F3 3800     JR   C,77F5
077F5 2E2E     LD   L,2E
077F7 012E2E   LD   BC,2E2E
077FA 2E01     LD   L,01
077FC 2E00     LD   L,00
077FE 2A       HL++ A,(HL)
077FF 2A       HL++ A,(HL)
07800 012A2A   LD   BC,2A2A
07803 2A       HL++ A,(HL)
07804 012A00   LD   BC,002A
07807 A2       AND  D
07808 3838     JR   C,7842
0780A 013836   LD   BC,3638
0780D 3601     LD   (HL),01
0780F 3600     LD   (HL),00
07811 32       HL-- (HL),A
07812 32       HL-- (HL),A
07813 01322E   LD   BC,2E32
07816 2E01     LD   L,01
07818 2E00     LD   L,00
0781A A2       AND  D
0781B 060B     LD   B,0B
0781D 010606   LD   BC,0606
07820 0B       DEC  BC
07821 010606   LD   BC,0606
07824 0B       DEC  BC
07825 010606   LD   BC,0606
07828 0B       DEC  BC
07829 010606   LD   BC,0606
0782C 0B       DEC  BC
0782D 010606   LD   BC,0606
07830 0B       DEC  BC
07831 010606   LD   BC,0606
07834 0B       DEC  BC
07835 010601   LD   BC,0106
07838 0B       DEC  BC
07839 010B00   LD   BC,000B
0783C 9D       SBC  A,L
0783D 66       LD   H,(HL)
0783E 00       NOP  
0783F 81       ADD  A,C
07840 A7       AND  A
07841 58       LD   E,B
07842 5A       LD   E,D
07843 A3       AND  E
07844 58       LD   E,B
07845 A7       AND  A
07846 5E       LD   E,(HL)
07847 A4       AND  H
07848 5A       LD   E,D
07849 A2       AND  D
0784A 01A750   LD   BC,50A7
0784D 54       LD   D,H
0784E A3       AND  E
0784F 58       LD   E,B
07850 A7       AND  A
07851 5A       LD   E,D
07852 A4       AND  H
07853 58       LD   E,B
07854 A2       AND  D
07855 01A750   LD   BC,50A7
07858 A3       AND  E
07859 4E       LD   C,(HL)
0785A A7       AND  A
0785B 4E       LD   C,(HL)
0785C 58       LD   E,B
0785D 54       LD   D,H
0785E A3       AND  E
0785F 4A       LD   C,D
07860 A7       AND  A
07861 5A       LD   E,D
07862 5E       LD   E,(HL)
07863 A3       AND  E
07864 5A       LD   E,D
07865 A7       AND  A
07866 54       LD   D,H
07867 A4       AND  H
07868 50       LD   D,B
07869 A2       AND  D
0786A 01008E   LD   BC,8E00
0786D 78       LD   A,B
0786E 11798E   LD   DE,8E79
07871 78       LD   A,B
07872 96       SUB  (HL)
07873 79       LD   A,C
07874 00       NOP  
07875 00       NOP  
07876 AD       XOR  L
07877 78       LD   A,B
07878 3879     JR   C,78F3
0787A AD       XOR  L
0787B 78       LD   A,B
0787C BA       CP   D
0787D 79       LD   A,C
0787E D5       PUSH DE
0787F 78       LD   A,B
07880 5E       LD   E,(HL)
07881 79       LD   A,C
07882 D5       PUSH DE
07883 78       LD   A,B
07884 DD       DB   DD
07885 79       LD   A,C
07886 FE78     CP   78
07888 84       ADD  A,H
07889 79       LD   A,C
0788A FE78     CP   78
0788C 84       ADD  A,H
0788D 79       LD   A,C
0788E 9D       SBC  A,L
0788F D1       POP  DE
07890 00       NOP  
07891 80       ADD  A,B
07892 A2       AND  D
07893 5C       LD   E,H
07894 A1       AND  C
07895 5C       LD   E,H
07896 5A       LD   E,D
07897 A2       AND  D
07898 5C       LD   E,H
07899 5C       LD   E,H
0789A 56       LD   D,(HL)
0789B 52       LD   D,D
0789C 4E       LD   C,(HL)
0789D 56       LD   D,(HL)
0789E A2       AND  D
0789F 52       LD   D,D
078A0 A1       AND  C
078A1 52       LD   D,D
078A2 50       LD   D,B
078A3 A2       AND  D
078A4 52       LD   D,D
078A5 52       LD   D,D
078A6 4C       LD   C,H
078A7 48       LD   C,B
078A8 44       LD   B,H
078A9 A1       AND  C
078AA 4C       LD   C,H
078AB 52       LD   D,D
078AC 00       NOP  
078AD 9D       SBC  A,L
078AE B2       OR   D
078AF 00       NOP  
078B0 80       ADD  A,B
078B1 A2       AND  D
078B2 52       LD   D,D
078B3 A1       AND  C
078B4 52       LD   D,D
078B5 52       LD   D,D
078B6 A2       AND  D
078B7 52       LD   D,D
078B8 A1       AND  C
078B9 52       LD   D,D
078BA 52       LD   D,D
078BB A2       AND  D
078BC 44       LD   B,H
078BD A1       AND  C
078BE 44       LD   B,H
078BF 44       LD   B,H
078C0 A2       AND  D
078C1 44       LD   B,H
078C2 014CA1   LD   BC,A14C
078C5 4C       LD   C,H
078C6 4C       LD   C,H
078C7 A2       AND  D
078C8 4C       LD   C,H
078C9 A1       AND  C
078CA 4C       LD   C,H
078CB 4C       LD   C,H
078CC A2       AND  D
078CD 3A       HL-- A,(HL)
078CE A1       AND  C
078CF 3A       HL-- A,(HL)
078D0 3A       HL-- A,(HL)
078D1 A2       AND  D
078D2 3A       HL-- A,(HL)
078D3 01009D   LD   BC,9D00
078D6 E9       JP   (HL)
078D7 6E       LD   L,(HL)
078D8 20A2     JR   NZ,787C
078DA 5C       LD   E,H
078DB A1       AND  C
078DC 5C       LD   E,H
078DD 5C       LD   E,H
078DE A2       AND  D
078DF 5C       LD   E,H
078E0 A1       AND  C
078E1 5C       LD   E,H
078E2 5C       LD   E,H
078E3 A2       AND  D
078E4 4E       LD   C,(HL)
078E5 A1       AND  C
078E6 52       LD   D,D
078E7 52       LD   D,D
078E8 A2       AND  D
078E9 56       LD   D,(HL)
078EA 01A25C   LD   BC,5CA2
078ED A1       AND  C
078EE 5C       LD   E,H
078EF 5C       LD   E,H
078F0 A2       AND  D
078F1 5C       LD   E,H
078F2 A1       AND  C
078F3 5C       LD   E,H
078F4 5C       LD   E,H
078F5 A2       AND  D
078F6 44       LD   B,H
078F7 A1       AND  C
078F8 48       LD   C,B
078F9 48       LD   C,B
078FA A2       AND  D
078FB 4C       LD   C,H
078FC 0100A2   LD   BC,A200
078FF 06A7     LD   B,A7
07901 01A20B   LD   BC,0BA2
07904 0B       DEC  BC
07905 0B       DEC  BC
07906 01A206   LD   BC,06A2
07909 A7       AND  A
0790A 01A20B   LD   BC,0BA2
0790D 0B       DEC  BC
0790E 0B       DEC  BC
0790F 0100A2   LD   BC,A200
07912 48       LD   C,B
07913 A1       AND  C
07914 48       LD   C,B
07915 52       LD   D,D
07916 A2       AND  D
07917 44       LD   B,H
07918 A1       AND  C
07919 44       LD   B,H
0791A 52       LD   D,D
0791B A2       AND  D
0791C 42       LD   B,D
0791D A1       AND  C
0791E 42       LD   B,D
0791F 52       LD   D,D
07920 A2       AND  D
07921 48       LD   C,B
07922 A1       AND  C
07923 48       LD   C,B
07924 52       LD   D,D
07925 A2       AND  D
07926 4C       LD   C,H
07927 A1       AND  C
07928 4C       LD   C,H
07929 52       LD   D,D
0792A A2       AND  D
0792B 44       LD   B,H
0792C A1       AND  C
0792D 44       LD   B,H
0792E 52       LD   D,D
0792F A2       AND  D
07930 48       LD   C,B
07931 44       LD   B,H
07932 A1       AND  C
07933 48       LD   C,B
07934 52       LD   D,D
07935 56       LD   D,(HL)
07936 5A       LD   E,D
07937 00       NOP  
07938 3A       HL-- A,(HL)
07939 A1       AND  C
0793A 3A       HL-- A,(HL)
0793B 3A       HL-- A,(HL)
0793C A2       AND  D
0793D 3A       HL-- A,(HL)
0793E A1       AND  C
0793F 3A       HL-- A,(HL)
07940 3A       HL-- A,(HL)
07941 A2       AND  D
07942 3A       HL-- A,(HL)
07943 A1       AND  C
07944 3A       HL-- A,(HL)
07945 3A       HL-- A,(HL)
07946 A2       AND  D
07947 3A       HL-- A,(HL)
07948 A1       AND  C
07949 3A       HL-- A,(HL)
0794A 3A       HL-- A,(HL)
0794B A2       AND  D
0794C 3A       HL-- A,(HL)
0794D A1       AND  C
0794E 3A       HL-- A,(HL)
0794F 3A       HL-- A,(HL)
07950 A2       AND  D
07951 3A       HL-- A,(HL)
07952 A1       AND  C
07953 3A       HL-- A,(HL)
07954 3A       HL-- A,(HL)
07955 A2       AND  D
07956 36A1     LD   (HL),A1
07958 3636     LD   (HL),36
0795A A2       AND  D
0795B 3601     LD   (HL),01
0795D 00       NOP  
0795E 48       LD   C,B
0795F A1       AND  C
07960 48       LD   C,B
07961 48       LD   C,B
07962 A2       AND  D
07963 48       LD   C,B
07964 A1       AND  C
07965 48       LD   C,B
07966 48       LD   C,B
07967 A2       AND  D
07968 48       LD   C,B
07969 A1       AND  C
0796A 48       LD   C,B
0796B 48       LD   C,B
0796C A2       AND  D
0796D 48       LD   C,B
0796E A1       AND  C
0796F 48       LD   C,B
07970 48       LD   C,B
07971 A2       AND  D
07972 44       LD   B,H
07973 A1       AND  C
07974 44       LD   B,H
07975 44       LD   B,H
07976 A2       AND  D
07977 44       LD   B,H
07978 A1       AND  C
07979 44       LD   B,H
0797A 44       LD   B,H
0797B A2       AND  D
0797C 42       LD   B,D
0797D A1       AND  C
0797E 42       LD   B,D
0797F 42       LD   B,D
07980 A2       AND  D
07981 42       LD   B,D
07982 0100A2   LD   BC,A200
07985 010B01   LD   BC,010B
07988 0B       DEC  BC
07989 010B01   LD   BC,010B
0798C 0B       DEC  BC
0798D 010B01   LD   BC,010B
07990 0B       DEC  BC
07991 010B0B   LD   BC,0B0B
07994 0100A2   LD   BC,A200
07997 48       LD   C,B
07998 A1       AND  C
07999 48       LD   C,B
0799A 52       LD   D,D
0799B A2       AND  D
0799C 44       LD   B,H
0799D A1       AND  C
0799E 44       LD   B,H
0799F 52       LD   D,D
079A0 A2       AND  D
079A1 42       LD   B,D
079A2 A1       AND  C
079A3 42       LD   B,D
079A4 52       LD   D,D
079A5 A2       AND  D
079A6 48       LD   C,B
079A7 A1       AND  C
079A8 48       LD   C,B
079A9 52       LD   D,D
079AA A2       AND  D
079AB 4C       LD   C,H
079AC A1       AND  C
079AD 4C       LD   C,H
079AE 52       LD   D,D
079AF A2       AND  D
079B0 48       LD   C,B
079B1 A1       AND  C
079B2 48       LD   C,B
079B3 52       LD   D,D
079B4 A2       AND  D
079B5 44       LD   B,H
079B6 52       LD   D,D
079B7 A3       AND  E
079B8 5C       LD   E,H
079B9 00       NOP  
079BA 3A       HL-- A,(HL)
079BB A1       AND  C
079BC 3A       HL-- A,(HL)
079BD 3A       HL-- A,(HL)
079BE A2       AND  D
079BF 3A       HL-- A,(HL)
079C0 A1       AND  C
079C1 3A       HL-- A,(HL)
079C2 3A       HL-- A,(HL)
079C3 A2       AND  D
079C4 3A       HL-- A,(HL)
079C5 A1       AND  C
079C6 3A       HL-- A,(HL)
079C7 3A       HL-- A,(HL)
079C8 A2       AND  D
079C9 3A       HL-- A,(HL)
079CA A1       AND  C
079CB 3A       HL-- A,(HL)
079CC 3A       HL-- A,(HL)
079CD A2       AND  D
079CE 3A       HL-- A,(HL)
079CF A1       AND  C
079D0 3A       HL-- A,(HL)
079D1 3A       HL-- A,(HL)
079D2 A2       AND  D
079D3 3A       HL-- A,(HL)
079D4 A1       AND  C
079D5 3A       HL-- A,(HL)
079D6 3A       HL-- A,(HL)
079D7 A2       AND  D
079D8 013AA3   LD   BC,A33A
079DB 4C       LD   C,H
079DC 00       NOP  
079DD 48       LD   C,B
079DE A1       AND  C
079DF 48       LD   C,B
079E0 48       LD   C,B
079E1 A2       AND  D
079E2 48       LD   C,B
079E3 A1       AND  C
079E4 48       LD   C,B
079E5 48       LD   C,B
079E6 A2       AND  D
079E7 48       LD   C,B
079E8 A1       AND  C
079E9 48       LD   C,B
079EA 48       LD   C,B
079EB A2       AND  D
079EC 48       LD   C,B
079ED A1       AND  C
079EE 48       LD   C,B
079EF 48       LD   C,B
079F0 A2       AND  D
079F1 44       LD   B,H
079F2 A1       AND  C
079F3 44       LD   B,H
079F4 44       LD   B,H
079F5 A2       AND  D
079F6 44       LD   B,H
079F7 A1       AND  C
079F8 44       LD   B,H
079F9 44       LD   B,H
079FA A2       AND  D
079FB 014CA3   LD   BC,A34C
079FE 44       LD   B,H
079FF 00       NOP  
07A00 04       INC  B
07A01 7A       LD   A,D
07A02 00       NOP  
07A03 00       NOP  
07A04 9D       SBC  A,L
07A05 C20040   JP   NZ,4000
07A08 A2       AND  D
07A09 5C       LD   E,H
07A0A A1       AND  C
07A0B 5C       LD   E,H
07A0C 5A       LD   E,D
07A0D A2       AND  D
07A0E 5C       LD   E,H
07A0F 5C       LD   E,H
07A10 56       LD   D,(HL)
07A11 52       LD   D,D
07A12 4E       LD   C,(HL)
07A13 56       LD   D,(HL)
07A14 A2       AND  D
07A15 52       LD   D,D
07A16 A1       AND  C
07A17 52       LD   D,D
07A18 50       LD   D,B
07A19 A2       AND  D
07A1A 52       LD   D,D
07A1B 52       LD   D,D
07A1C 4C       LD   C,H
07A1D 48       LD   C,B
07A1E A1       AND  C
07A1F 44       LD   B,H
07A20 42       LD   B,D
07A21 A2       AND  D
07A22 44       LD   B,H
07A23 A4       AND  H
07A24 01002C   LD   BC,2C00
07A27 7A       LD   A,D
07A28 00       NOP  
07A29 00       NOP  
07A2A 4B       LD   C,E
07A2B 7A       LD   A,D
07A2C 9D       SBC  A,L
07A2D C20080   JP   NZ,8000
07A30 A2       AND  D
07A31 5C       LD   E,H
07A32 A1       AND  C
07A33 5C       LD   E,H
07A34 5A       LD   E,D
07A35 A2       AND  D
07A36 5C       LD   E,H
07A37 5C       LD   E,H
07A38 56       LD   D,(HL)
07A39 52       LD   D,D
07A3A 4E       LD   C,(HL)
07A3B 56       LD   D,(HL)
07A3C A2       AND  D
07A3D 52       LD   D,D
07A3E A1       AND  C
07A3F 52       LD   D,D
07A40 50       LD   D,B
07A41 A2       AND  D
07A42 52       LD   D,D
07A43 4C       LD   C,H
07A44 44       LD   B,H
07A45 52       LD   D,D
07A46 A3       AND  E
07A47 5C       LD   E,H
07A48 A4       AND  H
07A49 01009D   LD   BC,9D00
07A4C E9       JP   (HL)
07A4D 6E       LD   L,(HL)
07A4E 20A2     JR   NZ,79F2
07A50 5C       LD   E,H
07A51 A1       AND  C
07A52 5C       LD   E,H
07A53 5C       LD   E,H
07A54 A2       AND  D
07A55 5C       LD   E,H
07A56 A1       AND  C
07A57 5C       LD   E,H
07A58 5C       LD   E,H
07A59 A2       AND  D
07A5A 4E       LD   C,(HL)
07A5B 52       LD   D,D
07A5C 56       LD   D,(HL)
07A5D 01A25C   LD   BC,5CA2
07A60 A1       AND  C
07A61 5C       LD   E,H
07A62 5C       LD   E,H
07A63 A2       AND  D
07A64 5C       LD   E,H
07A65 A1       AND  C
07A66 5C       LD   E,H
07A67 5C       LD   E,H
07A68 A2       AND  D
07A69 52       LD   D,D
07A6A 4C       LD   C,H
07A6B 44       LD   B,H
07A6C 01A501   LD   BC,01A5
07A6F 77       LD   (HL),A
07A70 7A       LD   A,D
07A71 00       NOP  
07A72 00       NOP  
07A73 96       SUB  (HL)
07A74 7A       LD   A,D
07A75 B4       OR   H
07A76 7A       LD   A,D
07A77 9D       SBC  A,L
07A78 C20080   JP   NZ,8000
07A7B A2       AND  D
07A7C 5C       LD   E,H
07A7D A1       AND  C
07A7E 5C       LD   E,H
07A7F 5A       LD   E,D
07A80 A2       AND  D
07A81 5C       LD   E,H
07A82 5C       LD   E,H
07A83 56       LD   D,(HL)
07A84 52       LD   D,D
07A85 4E       LD   C,(HL)
07A86 56       LD   D,(HL)
07A87 A2       AND  D
07A88 52       LD   D,D
07A89 A1       AND  C
07A8A 52       LD   D,D
07A8B 50       LD   D,B
07A8C A2       AND  D
07A8D 52       LD   D,D
07A8E 4C       LD   C,H
07A8F 44       LD   B,H
07A90 52       LD   D,D
07A91 A3       AND  E
07A92 5C       LD   E,H
07A93 A4       AND  H
07A94 01009D   LD   BC,9D00
07A97 C20040   JP   NZ,4000
07A9A A2       AND  D
07A9B 4E       LD   C,(HL)
07A9C A1       AND  C
07A9D 4E       LD   C,(HL)
07A9E 52       LD   D,D
07A9F A2       AND  D
07AA0 56       LD   D,(HL)
07AA1 4E       LD   C,(HL)
07AA2 A3       AND  E
07AA3 48       LD   C,B
07AA4 48       LD   C,B
07AA5 A2       AND  D
07AA6 4C       LD   C,H
07AA7 A1       AND  C
07AA8 4C       LD   C,H
07AA9 4A       LD   C,D
07AAA A2       AND  D
07AAB 4C       LD   C,H
07AAC 44       LD   B,H
07AAD 34       INC  (HL)
07AAE 4C       LD   C,H
07AAF A3       AND  E
07AB0 4C       LD   C,H
07AB1 A5       AND  L
07AB2 01009D   LD   BC,9D00
07AB5 E9       JP   (HL)
07AB6 6E       LD   L,(HL)
07AB7 20A2     JR   NZ,7A5B
07AB9 5C       LD   E,H
07ABA A1       AND  C
07ABB 5C       LD   E,H
07ABC 5C       LD   E,H
07ABD A2       AND  D
07ABE 5C       LD   E,H
07ABF A1       AND  C
07AC0 5C       LD   E,H
07AC1 5C       LD   E,H
07AC2 A2       AND  D
07AC3 4E       LD   C,(HL)
07AC4 52       LD   D,D
07AC5 A1       AND  C
07AC6 56       LD   D,(HL)
07AC7 56       LD   D,(HL)
07AC8 A2       AND  D
07AC9 56       LD   D,(HL)
07ACA A2       AND  D
07ACB 5C       LD   E,H
07ACC A1       AND  C
07ACD 5C       LD   E,H
07ACE 5C       LD   E,H
07ACF A2       AND  D
07AD0 5C       LD   E,H
07AD1 A1       AND  C
07AD2 5C       LD   E,H
07AD3 5C       LD   E,H
07AD4 A2       AND  D
07AD5 52       LD   D,D
07AD6 4C       LD   C,H
07AD7 A1       AND  C
07AD8 44       LD   B,H
07AD9 44       LD   B,H
07ADA A2       AND  D
07ADB 01A501   LD   BC,01A5
07ADE 00       NOP  
07ADF E9       JP   (HL)
07AE0 7A       LD   A,D
07AE1 00       NOP  
07AE2 00       NOP  
07AE3 08       EX   AF,AF
07AE4 7B       LD   A,E
07AE5 25       DEC  H
07AE6 7B       LD   A,E
07AE7 4F       LD   C,A
07AE8 7B       LD   A,E
07AE9 9D       SBC  A,L
07AEA C20080   JP   NZ,8000
07AED A2       AND  D
07AEE 5C       LD   E,H
07AEF A1       AND  C
07AF0 5C       LD   E,H
07AF1 5A       LD   E,D
07AF2 A2       AND  D
07AF3 5C       LD   E,H
07AF4 5C       LD   E,H
07AF5 56       LD   D,(HL)
07AF6 52       LD   D,D
07AF7 4E       LD   C,(HL)
07AF8 56       LD   D,(HL)
07AF9 A2       AND  D
07AFA 52       LD   D,D
07AFB A1       AND  C
07AFC 52       LD   D,D
07AFD 50       LD   D,B
07AFE A2       AND  D
07AFF 52       LD   D,D
07B00 4C       LD   C,H
07B01 44       LD   B,H
07B02 52       LD   D,D
07B03 A3       AND  E
07B04 5C       LD   E,H
07B05 A4       AND  H
07B06 01009D   LD   BC,9D00
07B09 B2       OR   D
07B0A 00       NOP  
07B0B 80       ADD  A,B
07B0C A2       AND  D
07B0D 4E       LD   C,(HL)
07B0E A1       AND  C
07B0F 4E       LD   C,(HL)
07B10 52       LD   D,D
07B11 A2       AND  D
07B12 56       LD   D,(HL)
07B13 4E       LD   C,(HL)
07B14 A3       AND  E
07B15 48       LD   C,B
07B16 48       LD   C,B
07B17 A2       AND  D
07B18 4C       LD   C,H
07B19 A1       AND  C
07B1A 4C       LD   C,H
07B1B 4A       LD   C,D
07B1C A2       AND  D
07B1D 4C       LD   C,H
07B1E 44       LD   B,H
07B1F 34       INC  (HL)
07B20 4C       LD   C,H
07B21 A3       AND  E
07B22 4C       LD   C,H
07B23 A5       AND  L
07B24 019DE9   LD   BC,E99D
07B27 6E       LD   L,(HL)
07B28 20A2     JR   NZ,7ACC
07B2A 5C       LD   E,H
07B2B A1       AND  C
07B2C 5C       LD   E,H
07B2D 5C       LD   E,H
07B2E A2       AND  D
07B2F 5C       LD   E,H
07B30 A1       AND  C
07B31 5C       LD   E,H
07B32 5C       LD   E,H
07B33 4E       LD   C,(HL)
07B34 56       LD   D,(HL)
07B35 5C       LD   E,H
07B36 56       LD   D,(HL)
07B37 4E       LD   C,(HL)
07B38 44       LD   B,H
07B39 3E44     LD   A,44
07B3B A2       AND  D
07B3C 5C       LD   E,H
07B3D A1       AND  C
07B3E 5C       LD   E,H
07B3F 5C       LD   E,H
07B40 A2       AND  D
07B41 5C       LD   E,H
07B42 A1       AND  C
07B43 5C       LD   E,H
07B44 5C       LD   E,H
07B45 52       LD   D,D
07B46 4C       LD   C,H
07B47 44       LD   B,H
07B48 4C       LD   C,H
07B49 5C       LD   E,H
07B4A 01A201   LD   BC,01A2
07B4D A5       AND  L
07B4E 01A20B   LD   BC,0BA2
07B51 0B       DEC  BC
07B52 0B       DEC  BC
07B53 0B       DEC  BC
07B54 A2       AND  D
07B55 0B       DEC  BC
07B56 0B       DEC  BC
07B57 0B       DEC  BC
07B58 01A20B   LD   BC,0BA2
07B5B 0B       DEC  BC
07B5C 0B       DEC  BC
07B5D 0B       DEC  BC
07B5E A2       AND  D
07B5F 0B       DEC  BC
07B60 0B       DEC  BC
07B61 0B       DEC  BC
07B62 01A501   LD   BC,01A5
07B65 77       LD   (HL),A
07B66 7B       LD   A,E
07B67 CE7B     ADC  A,7B
07B69 00       NOP  
07B6A 00       NOP  
07B6B 96       SUB  (HL)
07B6C 7B       LD   A,E
07B6D F27BA8   JP   P,A87B
07B70 7B       LD   A,E
07B71 02       LD   (BC),A
07B72 7C       LD   A,H
07B73 BB       CP   E
07B74 7B       LD   A,E
07B75 12       LD   (DE),A
07B76 7C       LD   A,H
07B77 9D       SBC  A,L
07B78 D1       POP  DE
07B79 00       NOP  
07B7A 80       ADD  A,B
07B7B A2       AND  D
07B7C 5C       LD   E,H
07B7D A1       AND  C
07B7E 5C       LD   E,H
07B7F 5A       LD   E,D
07B80 A2       AND  D
07B81 5C       LD   E,H
07B82 5C       LD   E,H
07B83 56       LD   D,(HL)
07B84 52       LD   D,D
07B85 4E       LD   C,(HL)
07B86 56       LD   D,(HL)
07B87 A2       AND  D
07B88 52       LD   D,D
07B89 A1       AND  C
07B8A 52       LD   D,D
07B8B 50       LD   D,B
07B8C A2       AND  D
07B8D 52       LD   D,D
07B8E 52       LD   D,D
07B8F 4C       LD   C,H
07B90 48       LD   C,B
07B91 44       LD   B,H
07B92 A1       AND  C
07B93 4C       LD   C,H
07B94 52       LD   D,D
07B95 00       NOP  
07B96 A2       AND  D
07B97 52       LD   D,D
07B98 A7       AND  A
07B99 01A244   LD   BC,44A2
07B9C 44       LD   B,H
07B9D 44       LD   B,H
07B9E 014CA7   LD   BC,A74C
07BA1 01A23A   LD   BC,3AA2
07BA4 3A       HL-- A,(HL)
07BA5 3A       HL-- A,(HL)
07BA6 0100A2   LD   BC,A200
07BA9 5C       LD   E,H
07BAA A7       AND  A
07BAB 01A24E   LD   BC,4EA2
07BAE 52       LD   D,D
07BAF 56       LD   D,(HL)
07BB0 01A25C   LD   BC,5CA2
07BB3 A7       AND  A
07BB4 01A244   LD   BC,44A2
07BB7 48       LD   C,B
07BB8 4C       LD   C,H
07BB9 0100A2   LD   BC,A200
07BBC 06A7     LD   B,A7
07BBE 01A20B   LD   BC,0BA2
07BC1 0B       DEC  BC
07BC2 0B       DEC  BC
07BC3 01A206   LD   BC,06A2
07BC6 A7       AND  A
07BC7 01A20B   LD   BC,0BA2
07BCA 0B       DEC  BC
07BCB 0B       DEC  BC
07BCC 0100A2   LD   BC,A200
07BCF 48       LD   C,B
07BD0 A1       AND  C
07BD1 48       LD   C,B
07BD2 52       LD   D,D
07BD3 A2       AND  D
07BD4 44       LD   B,H
07BD5 A1       AND  C
07BD6 44       LD   B,H
07BD7 52       LD   D,D
07BD8 A2       AND  D
07BD9 42       LD   B,D
07BDA A1       AND  C
07BDB 42       LD   B,D
07BDC 52       LD   D,D
07BDD A2       AND  D
07BDE 48       LD   C,B
07BDF A1       AND  C
07BE0 48       LD   C,B
07BE1 52       LD   D,D
07BE2 A2       AND  D
07BE3 4C       LD   C,H
07BE4 A1       AND  C
07BE5 4C       LD   C,H
07BE6 52       LD   D,D
07BE7 A2       AND  D
07BE8 48       LD   C,B
07BE9 A1       AND  C
07BEA 48       LD   C,B
07BEB 52       LD   D,D
07BEC A2       AND  D
07BED 5C       LD   E,H
07BEE 52       LD   D,D
07BEF A3       AND  E
07BF0 5C       LD   E,H
07BF1 00       NOP  
07BF2 013A01   LD   BC,013A
07BF5 3A       HL-- A,(HL)
07BF6 013A01   LD   BC,013A
07BF9 3A       HL-- A,(HL)
07BFA 013A01   LD   BC,013A
07BFD 3A       HL-- A,(HL)
07BFE 013AA3   LD   BC,A33A
07C01 34       INC  (HL)
07C02 014801   LD   BC,0148
07C05 48       LD   C,B
07C06 014801   LD   BC,0148
07C09 48       LD   C,B
07C0A 014401   LD   BC,0144
07C0D 44       LD   B,H
07C0E 014CA3   LD   BC,A34C
07C11 44       LD   B,H
07C12 A2       AND  D
07C13 010B01   LD   BC,010B
07C16 0B       DEC  BC
07C17 010B01   LD   BC,010B
07C1A 0B       DEC  BC
07C1B 010B01   LD   BC,010B
07C1E 0B       DEC  BC
07C1F A2       AND  D
07C20 010B0B   LD   BC,0B0B
07C23 012E7C   LD   BC,7C2E
07C26 00       NOP  
07C27 00       NOP  
07C28 63       LD   H,E
07C29 7C       LD   A,H
07C2A 97       SUB  A
07C2B 7C       LD   A,H
07C2C CB7C     BIT  7,H
07C2E 9D       SBC  A,L
07C2F B3       OR   E
07C30 00       NOP  
07C31 80       ADD  A,B
07C32 A6       AND  (HL)
07C33 52       LD   D,D
07C34 A1       AND  C
07C35 50       LD   D,B
07C36 A6       AND  (HL)
07C37 52       LD   D,D
07C38 A1       AND  C
07C39 50       LD   D,B
07C3A A6       AND  (HL)
07C3B 52       LD   D,D
07C3C A1       AND  C
07C3D 48       LD   C,B
07C3E A3       AND  E
07C3F 01A64C   LD   BC,4CA6
07C42 A1       AND  C
07C43 4A       LD   C,D
07C44 A6       AND  (HL)
07C45 4C       LD   C,H
07C46 A1       AND  C
07C47 4A       LD   C,D
07C48 A6       AND  (HL)
07C49 4C       LD   C,H
07C4A A1       AND  C
07C4B 42       LD   B,D
07C4C A3       AND  E
07C4D 01A63E   LD   BC,3EA6
07C50 A1       AND  C
07C51 42       LD   B,D
07C52 A6       AND  (HL)
07C53 44       LD   B,H
07C54 A1       AND  C
07C55 48       LD   C,B
07C56 A6       AND  (HL)
07C57 4C       LD   C,H
07C58 A1       AND  C
07C59 50       LD   D,B
07C5A A6       AND  (HL)
07C5B 52       LD   D,D
07C5C A1       AND  C
07C5D 56       LD   D,(HL)
07C5E A6       AND  (HL)
07C5F 52       LD   D,D
07C60 A1       AND  C
07C61 6A       LD   L,D
07C62 00       NOP  
07C63 9D       SBC  A,L
07C64 93       SUB  E
07C65 00       NOP  
07C66 C0       RET  NZ
07C67 A6       AND  (HL)
07C68 42       LD   B,D
07C69 A1       AND  C
07C6A 40       LD   B,B
07C6B A6       AND  (HL)
07C6C 42       LD   B,D
07C6D A1       AND  C
07C6E 40       LD   B,B
07C6F A6       AND  (HL)
07C70 42       LD   B,D
07C71 A1       AND  C
07C72 42       LD   B,D
07C73 A3       AND  E
07C74 01A63A   LD   BC,3AA6
07C77 A1       AND  C
07C78 38A6     JR   C,7C20
07C7A 3A       HL-- A,(HL)
07C7B A1       AND  C
07C7C 38A6     JR   C,7C24
07C7E 3A       HL-- A,(HL)
07C7F A1       AND  C
07C80 3A       HL-- A,(HL)
07C81 A3       AND  E
07C82 01A638   LD   BC,38A6
07C85 A1       AND  C
07C86 38A6     JR   C,7C2E
07C88 3A       HL-- A,(HL)
07C89 A1       AND  C
07C8A 3EA6     LD   A,A6
07C8C 42       LD   B,D
07C8D A1       AND  C
07C8E 44       LD   B,H
07C8F A6       AND  (HL)
07C90 48       LD   C,B
07C91 A1       AND  C
07C92 4C       LD   C,H
07C93 A6       AND  (HL)
07C94 42       LD   B,D
07C95 A1       AND  C
07C96 42       LD   B,D
07C97 9D       SBC  A,L
07C98 E9       JP   (HL)
07C99 6E       LD   L,(HL)
07C9A A0       AND  B
07C9B A6       AND  (HL)
07C9C 48       LD   C,B
07C9D A1       AND  C
07C9E 46       LD   B,(HL)
07C9F A6       AND  (HL)
07CA0 48       LD   C,B
07CA1 A1       AND  C
07CA2 46       LD   B,(HL)
07CA3 A6       AND  (HL)
07CA4 48       LD   C,B
07CA5 A1       AND  C
07CA6 52       LD   D,D
07CA7 A3       AND  E
07CA8 01A644   LD   BC,44A6
07CAB A1       AND  C
07CAC 42       LD   B,D
07CAD A6       AND  (HL)
07CAE 44       LD   B,H
07CAF A1       AND  C
07CB0 42       LD   B,D
07CB1 A6       AND  (HL)
07CB2 44       LD   B,H
07CB3 A1       AND  C
07CB4 4C       LD   C,H
07CB5 A3       AND  E
07CB6 01A648   LD   BC,48A6
07CB9 A1       AND  C
07CBA 3A       HL-- A,(HL)
07CBB A6       AND  (HL)
07CBC 3EA1     LD   A,A1
07CBE 42       LD   B,D
07CBF A6       AND  (HL)
07CC0 44       LD   B,H
07CC1 A1       AND  C
07CC2 48       LD   C,B
07CC3 A6       AND  (HL)
07CC4 4C       LD   C,H
07CC5 A1       AND  C
07CC6 50       LD   D,B
07CC7 A6       AND  (HL)
07CC8 52       LD   D,D
07CC9 A1       AND  C
07CCA 3A       HL-- A,(HL)
07CCB A6       AND  (HL)
07CCC 0B       DEC  BC
07CCD A1       AND  C
07CCE 06A6     LD   B,A6
07CD0 0B       DEC  BC
07CD1 A1       AND  C
07CD2 06A6     LD   B,A6
07CD4 0B       DEC  BC
07CD5 A1       AND  C
07CD6 06A3     LD   B,A3
07CD8 01A60B   LD   BC,0BA6
07CDB A1       AND  C
07CDC 06A6     LD   B,A6
07CDE 0B       DEC  BC
07CDF A1       AND  C
07CE0 06A6     LD   B,A6
07CE2 0B       DEC  BC
07CE3 A1       AND  C
07CE4 06A3     LD   B,A3
07CE6 01A60B   LD   BC,0BA6
07CE9 A1       AND  C
07CEA 06A6     LD   B,A6
07CEC 0B       DEC  BC
07CED A1       AND  C
07CEE 06A6     LD   B,A6
07CF0 0B       DEC  BC
07CF1 A1       AND  C
07CF2 06A3     LD   B,A3
07CF4 01A60B   LD   BC,0BA6
07CF7 A1       AND  C
07CF8 062E     LD   B,2E
07CFA 7D       LD   A,L
07CFB FF       RST  38
07CFC FF       RST  38
07CFD 017D29   LD   BC,297D
07D00 7D       LD   A,L
07D01 35       DEC  (HL)
07D02 7D       LD   A,L
07D03 5B       LD   E,E
07D04 7D       LD   A,L
07D05 82       ADD  A,D
07D06 7D       LD   A,L
07D07 5B       LD   E,E
07D08 7D       LD   A,L
07D09 A4       AND  H
07D0A 7D       LD   A,L
07D0B C67D     ADD  A,7D
07D0D FF       RST  38
07D0E FF       RST  38
07D0F 03       INC  BC
07D10 7D       LD   A,L
07D11 3B       DEC  SP
07D12 7D       LD   A,L
07D13 6C       LD   L,H
07D14 7D       LD   A,L
07D15 93       SUB  E
07D16 7D       LD   A,L
07D17 6C       LD   L,H
07D18 7D       LD   A,L
07D19 B5       OR   L
07D1A 7D       LD   A,L
07D1B 07       RLCA 
07D1C 7E       LD   A,(HL)
07D1D FF       RST  38
07D1E FF       RST  38
07D1F 13       INC  DE
07D20 7D       LD   A,L
07D21 3E7D     LD   A,7D
07D23 41       LD   B,C
07D24 7D       LD   A,L
07D25 FF       RST  38
07D26 FF       RST  38
07D27 23       INC  HL
07D28 7D       LD   A,L
07D29 9D       SBC  A,L
07D2A 60       LD   H,B
07D2B 00       NOP  
07D2C 81       ADD  A,C
07D2D 00       NOP  
07D2E 9D       SBC  A,L
07D2F 2000     JR   NZ,7D31
07D31 81       ADD  A,C
07D32 AA       XOR  D
07D33 0100A3   LD   BC,A300
07D36 015054   LD   BC,5450
07D39 58       LD   E,B
07D3A 00       NOP  
07D3B A5       AND  L
07D3C 0100A5   LD   BC,A500
07D3F 0100A3   LD   BC,A300
07D42 010601   LD   BC,0106
07D45 0601     LD   B,01
07D47 A2       AND  D
07D48 0606     LD   B,06
07D4A A3       AND  E
07D4B 0106A3   LD   BC,A306
07D4E 010601   LD   BC,0106
07D51 0601     LD   B,01
07D53 A2       AND  D
07D54 0606     LD   B,06
07D56 010106   LD   BC,0601
07D59 0600     LD   B,00
07D5B A7       AND  A
07D5C 5A       LD   E,D
07D5D A2       AND  D
07D5E 5E       LD   E,(HL)
07D5F A7       AND  A
07D60 5A       LD   E,D
07D61 A2       AND  D
07D62 58       LD   E,B
07D63 A7       AND  A
07D64 58       LD   E,B
07D65 A2       AND  D
07D66 54       LD   D,H
07D67 A7       AND  A
07D68 58       LD   E,B
07D69 A2       AND  D
07D6A 54       LD   D,H
07D6B 00       NOP  
07D6C 9D       SBC  A,L
07D6D C9       RET  
07D6E 6E       LD   L,(HL)
07D6F 20A2     JR   NZ,7D13
07D71 5A       LD   E,D
07D72 62       LD   H,D
07D73 68       LD   L,B
07D74 70       LD   (HL),B
07D75 5A       LD   E,D
07D76 62       LD   H,D
07D77 68       LD   L,B
07D78 70       LD   (HL),B
07D79 5A       LD   E,D
07D7A 64       LD   H,H
07D7B 66       LD   H,(HL)
07D7C 6C       LD   L,H
07D7D 5A       LD   E,D
07D7E 64       LD   H,H
07D7F 66       LD   H,(HL)
07D80 6C       LD   L,H
07D81 00       NOP  
07D82 A7       AND  A
07D83 54       LD   D,H
07D84 A2       AND  D
07D85 50       LD   D,B
07D86 A7       AND  A
07D87 54       LD   D,H
07D88 A2       AND  D
07D89 50       LD   D,B
07D8A A7       AND  A
07D8B 50       LD   D,B
07D8C A2       AND  D
07D8D 4C       LD   C,H
07D8E A7       AND  A
07D8F 4A       LD   C,D
07D90 A2       AND  D
07D91 50       LD   D,B
07D92 00       NOP  
07D93 58       LD   E,B
07D94 5E       LD   E,(HL)
07D95 64       LD   H,H
07D96 6C       LD   L,H
07D97 58       LD   E,B
07D98 5E       LD   E,(HL)
07D99 64       LD   H,H
07D9A 6C       LD   L,H
07D9B 50       LD   D,B
07D9C 54       LD   D,H
07D9D 58       LD   E,B
07D9E 5E       LD   E,(HL)
07D9F 50       LD   D,B
07DA0 58       LD   E,B
07DA1 5E       LD   E,(HL)
07DA2 64       LD   H,H
07DA3 00       NOP  
07DA4 A7       AND  A
07DA5 54       LD   D,H
07DA6 A2       AND  D
07DA7 50       LD   D,B
07DA8 A7       AND  A
07DA9 54       LD   D,H
07DAA A2       AND  D
07DAB 50       LD   D,B
07DAC A7       AND  A
07DAD 50       LD   D,B
07DAE A2       AND  D
07DAF 4C       LD   C,H
07DB0 A7       AND  A
07DB1 4A       LD   C,D
07DB2 A2       AND  D
07DB3 46       LD   B,(HL)
07DB4 00       NOP  
07DB5 58       LD   E,B
07DB6 5E       LD   E,(HL)
07DB7 64       LD   H,H
07DB8 6C       LD   L,H
07DB9 58       LD   E,B
07DBA 5E       LD   E,(HL)
07DBB 64       LD   H,H
07DBC 6C       LD   L,H
07DBD 50       LD   D,B
07DBE 54       LD   D,H
07DBF 58       LD   E,B
07DC0 5E       LD   E,(HL)
07DC1 50       LD   D,B
07DC2 58       LD   E,B
07DC3 5E       LD   E,(HL)
07DC4 64       LD   H,H
07DC5 00       NOP  
07DC6 A7       AND  A
07DC7 4A       LD   C,D
07DC8 A2       AND  D
07DC9 4C       LD   C,H
07DCA A7       AND  A
07DCB 4A       LD   C,D
07DCC A2       AND  D
07DCD 46       LD   B,(HL)
07DCE A7       AND  A
07DCF 46       LD   B,(HL)
07DD0 A2       AND  D
07DD1 44       LD   B,H
07DD2 A7       AND  A
07DD3 46       LD   B,(HL)
07DD4 A2       AND  D
07DD5 4A       LD   C,D
07DD6 A7       AND  A
07DD7 4C       LD   C,H
07DD8 A2       AND  D
07DD9 50       LD   D,B
07DDA A7       AND  A
07DDB 4C       LD   C,H
07DDC A2       AND  D
07DDD 4A       LD   C,D
07DDE A7       AND  A
07DDF 4A       LD   C,D
07DE0 A2       AND  D
07DE1 46       LD   B,(HL)
07DE2 A7       AND  A
07DE3 4A       LD   C,D
07DE4 A2       AND  D
07DE5 4C       LD   C,H
07DE6 A7       AND  A
07DE7 50       LD   D,B
07DE8 A2       AND  D
07DE9 4E       LD   C,(HL)
07DEA A7       AND  A
07DEB 50       LD   D,B
07DEC A2       AND  D
07DED 52       LD   D,D
07DEE A7       AND  A
07DEF 58       LD   E,B
07DF0 A2       AND  D
07DF1 54       LD   D,H
07DF2 A7       AND  A
07DF3 5A       LD   E,D
07DF4 A2       AND  D
07DF5 54       LD   D,H
07DF6 A7       AND  A
07DF7 52       LD   D,D
07DF8 A2       AND  D
07DF9 50       LD   D,B
07DFA A7       AND  A
07DFB 4C       LD   C,H
07DFC A2       AND  D
07DFD 4A       LD   C,D
07DFE A2       AND  D
07DFF 42       LD   B,D
07E00 383C     JR   C,7E3E
07E02 4A       LD   C,D
07E03 A3       AND  E
07E04 42       LD   B,D
07E05 01004A   LD   BC,4A00
07E08 52       LD   D,D
07E09 58       LD   E,B
07E0A 5E       LD   E,(HL)
07E0B 4A       LD   C,D
07E0C 58       LD   E,B
07E0D 5E       LD   E,(HL)
07E0E 62       LD   H,D
07E0F 54       LD   D,H
07E10 62       LD   H,D
07E11 68       LD   L,B
07E12 6C       LD   L,H
07E13 54       LD   D,H
07E14 62       LD   H,D
07E15 68       LD   L,B
07E16 6C       LD   L,H
07E17 46       LD   B,(HL)
07E18 4C       LD   C,H
07E19 54       LD   D,H
07E1A 5E       LD   E,(HL)
07E1B 46       LD   B,(HL)
07E1C 4C       LD   C,H
07E1D 54       LD   D,H
07E1E 5A       LD   E,D
07E1F 50       LD   D,B
07E20 58       LD   E,B
07E21 5E       LD   E,(HL)
07E22 64       LD   H,H
07E23 50       LD   D,B
07E24 5E       LD   E,(HL)
07E25 64       LD   H,H
07E26 6C       LD   L,H
07E27 4A       LD   C,D
07E28 50       LD   D,B
07E29 58       LD   E,B
07E2A 5E       LD   E,(HL)
07E2B 4A       LD   C,D
07E2C 58       LD   E,B
07E2D 5E       LD   E,(HL)
07E2E 62       LD   H,D
07E2F 4E       LD   C,(HL)
07E30 54       LD   D,H
07E31 5A       LD   E,D
07E32 62       LD   H,D
07E33 4E       LD   C,(HL)
07E34 54       LD   D,H
07E35 5A       LD   E,D
07E36 66       LD   H,(HL)
07E37 50       LD   D,B
07E38 58       LD   E,B
07E39 5E       LD   E,(HL)
07E3A 64       LD   H,H
07E3B 50       LD   D,B
07E3C 5E       LD   E,(HL)
07E3D 64       LD   H,H
07E3E 68       LD   L,B
07E3F A8       XOR  B
07E40 5A       LD   E,D
07E41 A3       AND  E
07E42 01004E   LD   BC,4E00
07E45 7E       LD   A,(HL)
07E46 00       NOP  
07E47 00       NOP  
07E48 5E       LD   E,(HL)
07E49 7E       LD   A,(HL)
07E4A 6D       LD   L,L
07E4B 7E       LD   A,(HL)
07E4C 7D       LD   A,L
07E4D 7E       LD   A,(HL)
07E4E 9D       SBC  A,L
07E4F B1       OR   C
07E50 00       NOP  
07E51 80       ADD  A,B
07E52 A7       AND  A
07E53 01A15E   LD   BC,5EA1
07E56 5E       LD   E,(HL)
07E57 A6       AND  (HL)
07E58 68       LD   L,B
07E59 A1       AND  C
07E5A 5E       LD   E,(HL)
07E5B A4       AND  H
07E5C 68       LD   L,B
07E5D 00       NOP  
07E5E 9D       SBC  A,L
07E5F 91       SUB  C
07E60 00       NOP  
07E61 80       ADD  A,B
07E62 A7       AND  A
07E63 01A154   LD   BC,54A1
07E66 54       LD   D,H
07E67 A6       AND  (HL)
07E68 5E       LD   E,(HL)
07E69 A1       AND  C
07E6A 58       LD   E,B
07E6B A4       AND  H
07E6C 5E       LD   E,(HL)
07E6D 9D       SBC  A,L
07E6E E9       JP   (HL)
07E6F 6E       LD   L,(HL)
07E70 20A7     JR   NZ,7E19
07E72 01A14E   LD   BC,4EA1
07E75 4E       LD   C,(HL)
07E76 A6       AND  (HL)
07E77 58       LD   E,B
07E78 A1       AND  C
07E79 50       LD   D,B
07E7A A3       AND  E
07E7B 58       LD   E,B
07E7C 01A701   LD   BC,01A7
07E7F A1       AND  C
07E80 0606     LD   B,06
07E82 A6       AND  (HL)
07E83 0B       DEC  BC
07E84 A1       AND  C
07E85 06A0     LD   B,A0
07E87 0606     LD   B,06
07E89 0606     LD   B,06
07E8B 0606     LD   B,06
07E8D 0606     LD   B,06
07E8F A3       AND  E
07E90 01BB7E   LD   BC,7EBB
07E93 287F     JR   Z,7F14
07E95 BB       CP   E
07E96 7E       LD   A,(HL)
07E97 73       LD   (HL),E
07E98 7F       LD   A,A
07E99 FF       RST  38
07E9A FF       RST  38
07E9B 91       SUB  C
07E9C 7E       LD   A,(HL)
07E9D E5       PUSH HL
07E9E 7E       LD   A,(HL)
07E9F 4F       LD   C,A
07EA0 7F       LD   A,A
07EA1 E5       PUSH HL
07EA2 7E       LD   A,(HL)
07EA3 96       SUB  (HL)
07EA4 7F       LD   A,A
07EA5 FF       RST  38
07EA6 FF       RST  38
07EA7 9D       SBC  A,L
07EA8 7E       LD   A,(HL)
07EA9 FB       EI   
07EAA 7E       LD   A,(HL)
07EAB 61       LD   H,C
07EAC 7F       LD   A,A
07EAD FB       EI   
07EAE 7E       LD   A,(HL)
07EAF AE       XOR  (HL)
07EB0 7F       LD   A,A
07EB1 FF       RST  38
07EB2 FF       RST  38
07EB3 A9       XOR  C
07EB4 7E       LD   A,(HL)
07EB5 117FFF   LD   DE,FF7F
07EB8 FF       RST  38
07EB9 B5       OR   L
07EBA 7E       LD   A,(HL)
07EBB 9D       SBC  A,L
07EBC 82       ADD  A,D
07EBD 00       NOP  
07EBE 80       ADD  A,B
07EBF A2       AND  D
07EC0 54       LD   D,H
07EC1 A1       AND  C
07EC2 54       LD   D,H
07EC3 54       LD   D,H
07EC4 54       LD   D,H
07EC5 4A       LD   C,D
07EC6 46       LD   B,(HL)
07EC7 4A       LD   C,D
07EC8 A2       AND  D
07EC9 54       LD   D,H
07ECA A1       AND  C
07ECB 54       LD   D,H
07ECC 54       LD   D,H
07ECD 54       LD   D,H
07ECE 58       LD   E,B
07ECF 5C       LD   E,H
07ED0 58       LD   E,B
07ED1 A2       AND  D
07ED2 54       LD   D,H
07ED3 A1       AND  C
07ED4 54       LD   D,H
07ED5 54       LD   D,H
07ED6 58       LD   E,B
07ED7 54       LD   D,H
07ED8 52       LD   D,D
07ED9 54       LD   D,H
07EDA A1       AND  C
07EDB 58       LD   E,B
07EDC 5C       LD   E,H
07EDD 58       LD   E,B
07EDE 5C       LD   E,H
07EDF A2       AND  D
07EE0 58       LD   E,B
07EE1 A1       AND  C
07EE2 56       LD   D,(HL)
07EE3 58       LD   E,B
07EE4 00       NOP  
07EE5 9D       SBC  A,L
07EE6 62       LD   H,D
07EE7 00       NOP  
07EE8 80       ADD  A,B
07EE9 A2       AND  D
07EEA 014401   LD   BC,0144
07EED 40       LD   B,B
07EEE 014401   LD   BC,0144
07EF1 46       LD   B,(HL)
07EF2 014401   LD   BC,0144
07EF5 44       LD   B,H
07EF6 014001   LD   BC,0140
07EF9 40       LD   B,B
07EFA 00       NOP  
07EFB 9D       SBC  A,L
07EFC E9       JP   (HL)
07EFD 6E       LD   L,(HL)
07EFE 20A2     JR   NZ,7EA2
07F00 54       LD   D,H
07F01 54       LD   D,H
07F02 4A       LD   C,D
07F03 52       LD   D,D
07F04 54       LD   D,H
07F05 54       LD   D,H
07F06 4A       LD   C,D
07F07 58       LD   E,B
07F08 54       LD   D,H
07F09 54       LD   D,H
07F0A 52       LD   D,D
07F0B 54       LD   D,H
07F0C 4E       LD   C,(HL)
07F0D 54       LD   D,H
07F0E 4A       LD   C,D
07F0F 52       LD   D,D
07F10 00       NOP  
07F11 A2       AND  D
07F12 060B     LD   B,0B
07F14 060B     LD   B,0B
07F16 060B     LD   B,0B
07F18 060B     LD   B,0B
07F1A 060B     LD   B,0B
07F1C 060B     LD   B,0B
07F1E 06A1     LD   B,A1
07F20 0B       DEC  BC
07F21 0B       DEC  BC
07F22 06A2     LD   B,A2
07F24 0B       DEC  BC
07F25 A1       AND  C
07F26 0600     LD   B,00
07F28 A2       AND  D
07F29 5E       LD   E,(HL)
07F2A A1       AND  C
07F2B 5E       LD   E,(HL)
07F2C 5E       LD   E,(HL)
07F2D 5E       LD   E,(HL)
07F2E 54       LD   D,H
07F2F 50       LD   D,B
07F30 54       LD   D,H
07F31 A2       AND  D
07F32 5E       LD   E,(HL)
07F33 A1       AND  C
07F34 5E       LD   E,(HL)
07F35 5E       LD   E,(HL)
07F36 5E       LD   E,(HL)
07F37 62       LD   H,D
07F38 66       LD   H,(HL)
07F39 62       LD   H,D
07F3A A2       AND  D
07F3B 5E       LD   E,(HL)
07F3C A1       AND  C
07F3D 5E       LD   E,(HL)
07F3E 5C       LD   E,H
07F3F A2       AND  D
07F40 58       LD   E,B
07F41 A1       AND  C
07F42 58       LD   E,B
07F43 54       LD   D,H
07F44 A1       AND  C
07F45 52       LD   D,D
07F46 54       LD   D,H
07F47 52       LD   D,D
07F48 54       LD   D,H
07F49 A2       AND  D
07F4A 52       LD   D,D
07F4B A1       AND  C
07F4C 4E       LD   C,(HL)
07F4D 52       LD   D,D
07F4E 00       NOP  
07F4F A2       AND  D
07F50 014601   LD   BC,0146
07F53 4A       LD   C,D
07F54 014601   LD   BC,0146
07F57 4A       LD   C,D
07F58 014601   LD   BC,0146
07F5B 46       LD   B,(HL)
07F5C 014601   LD   BC,0146
07F5F 46       LD   B,(HL)
07F60 00       NOP  
07F61 A2       AND  D
07F62 46       LD   B,(HL)
07F63 54       LD   D,H
07F64 54       LD   D,H
07F65 54       LD   D,H
07F66 46       LD   B,(HL)
07F67 54       LD   D,H
07F68 54       LD   D,H
07F69 54       LD   D,H
07F6A 46       LD   B,(HL)
07F6B 54       LD   D,H
07F6C 52       LD   D,D
07F6D 58       LD   E,B
07F6E 44       LD   B,H
07F6F 52       LD   D,D
07F70 4A       LD   C,D
07F71 58       LD   E,B
07F72 00       NOP  
07F73 A2       AND  D
07F74 62       LD   H,D
07F75 A1       AND  C
07F76 62       LD   H,D
07F77 62       LD   H,D
07F78 62       LD   H,D
07F79 5E       LD   E,(HL)
07F7A 5A       LD   E,D
07F7B 5E       LD   E,(HL)
07F7C A2       AND  D
07F7D 62       LD   H,D
07F7E A1       AND  C
07F7F 62       LD   H,D
07F80 62       LD   H,D
07F81 62       LD   H,D
07F82 5E       LD   E,(HL)
07F83 5A       LD   E,D
07F84 5E       LD   E,(HL)
07F85 A2       AND  D
07F86 62       LD   H,D
07F87 A1       AND  C
07F88 4A       LD   C,D
07F89 4E       LD   C,(HL)
07F8A A2       AND  D
07F8B 52       LD   D,D
07F8C A1       AND  C
07F8D 4A       LD   C,D
07F8E 5C       LD   E,H
07F8F A3       AND  E
07F90 58       LD   E,B
07F91 A1       AND  C
07F92 54       LD   D,H
07F93 A6       AND  (HL)
07F94 6C       LD   L,H
07F95 00       NOP  
07F96 A2       AND  D
07F97 014A01   LD   BC,014A
07F9A 4A       LD   C,D
07F9B 014A01   LD   BC,014A
07F9E 4A       LD   C,D
07F9F 01A146   LD   BC,46A1
07FA2 46       LD   B,(HL)
07FA3 A2       AND  D
07FA4 46       LD   B,(HL)
07FA5 A1       AND  C
07FA6 46       LD   B,(HL)
07FA7 46       LD   B,(HL)
07FA8 A3       AND  E
07FA9 46       LD   B,(HL)
07FAA A2       AND  D
07FAB 44       LD   B,H
07FAC 0100A2   LD   BC,A200
07FAF 42       LD   B,D
07FB0 5A       LD   E,D
07FB1 50       LD   D,B
07FB2 5A       LD   E,D
07FB3 42       LD   B,D
07FB4 5A       LD   E,D
07FB5 50       LD   D,B
07FB6 5A       LD   E,D
07FB7 4A       LD   C,D
07FB8 A1       AND  C
07FB9 52       LD   D,D
07FBA 52       LD   D,D
07FBB A2       AND  D
07FBC 52       LD   D,D
07FBD A1       AND  C
07FBE 52       LD   D,D
07FBF 52       LD   D,D
07FC0 A3       AND  E
07FC1 52       LD   D,D
07FC2 A2       AND  D
07FC3 54       LD   D,H
07FC4 010000   LD   BC,0000
07FC7 00       NOP  
07FC8 00       NOP  
07FC9 00       NOP  
07FCA 00       NOP  
07FCB 00       NOP  
07FCC 00       NOP  
07FCD 00       NOP  
07FCE 00       NOP  
07FCF 00       NOP  
07FD0 00       NOP  
07FD1 00       NOP  
07FD2 00       NOP  
07FD3 00       NOP  
07FD4 00       NOP  
07FD5 00       NOP  
07FD6 00       NOP  
07FD7 00       NOP  
07FD8 00       NOP  
07FD9 00       NOP  
07FDA 00       NOP  
07FDB 00       NOP  
07FDC 00       NOP  
07FDD 00       NOP  
07FDE 00       NOP  
07FDF 00       NOP  
07FE0 00       NOP  
07FE1 00       NOP  
07FE2 00       NOP  
07FE3 00       NOP  
07FE4 00       NOP  
07FE5 00       NOP  
07FE6 00       NOP  
07FE7 00       NOP  
07FE8 00       NOP  
07FE9 00       NOP  
07FEA 00       NOP  
07FEB 00       NOP  
07FEC 00       NOP  
07FED 00       NOP  
07FEE 00       NOP  
07FEF 00       NOP  
07FF0 C3D364   JP   64D3
07FF3 C3A569   JP   69A5
07FF6 00       NOP  
07FF7 00       NOP  
07FF8 00       NOP  
07FF9 00       NOP  
07FFA 00       NOP  
07FFB 00       NOP  
07FFC 00       NOP  
07FFD 00       NOP  
07FFE 00       NOP  
07FFF 00       NOP  
